; Listing generated by Microsoft (R) Optimizing Compiler Version 19.50.35721.0 

include listing.inc

INCLUDELIB MSVCRTD
INCLUDELIB OLDNAMES

PUBLIC	__@@_PchSym_@00@UfhvihUhfiuzxvLkilLEUlmvwirevUnbLkilqvxghUhlfixvUivklhUfrFBCUfrFBCPfmrgPgvhghUcGEUwvyftUkxsOlyq@4B2008FD98C1DD4
;	COMDAT __@@_PchSym_@00@UfhvihUhfiuzxvLkilLEUlmvwirevUnbLkilqvxghUhlfixvUivklhUfrFBCUfrFBCPfmrgPgvhghUcGEUwvyftUkxsOlyq@4B2008FD98C1DD4
_BSS	SEGMENT
__@@_PchSym_@00@UfhvihUhfiuzxvLkilLEUlmvwirevUnbLkilqvxghUhlfixvUivklhUfrFBCUfrFBCPfmrgPgvhghUcGEUwvyftUkxsOlyq@4B2008FD98C1DD4 DD 01H DUP (?)
_BSS	ENDS
msvcjmc	SEGMENT
__ED5CB687_concurrencysal@h DB 01H
__E45EDB60_sal@h DB 01H
__D35E0FCE_vadefs@h DB 01H
__C27BE271_vcruntime@h DB 01H
__26A6A76C_xkeycheck@h DB 01H
__E31B3605_yvals_core@h DB 01H
__735960E1_corecrt@h DB 01H
__13DE2371_errno@h DB 01H
__913C9CB3_vcruntime_string@h DB 01H
__8ACB2152_corecrt_memcpy_s@h DB 01H
__EA6C9D17_corecrt_memory@h DB 01H
__0DF2AF52_corecrt_wstring@h DB 01H
__6E889ECC_string@h DB 01H
__A51D0F47_cstring DB 01H
__6C4E5558_CommonTypeDefs@h DB 01H
__72349D01_ui512_externs@h DB 01H
__E31EC421_pch@h DB 01H
__67805D5D_ui512_unit_tests@pch DB 01H
__63F9177F_pch@cpp DB 01H
msvcjmc	ENDS
END
