; Listing generated by Microsoft (R) Optimizing Compiler Version 19.50.35721.0 

include listing.inc

INCLUDELIB MSVCRTD
INCLUDELIB OLDNAMES

PUBLIC	_Avx2WmemEnabledWeakValue
;	COMDAT _Avx2WmemEnabledWeakValue
_BSS	SEGMENT
_Avx2WmemEnabledWeakValue DD 01H DUP (?)
_BSS	ENDS
msvcjmc	SEGMENT
__BCDB5C9F_ui512_unit_tests@pch DB 01H
__4F9DAAF3_predefined C++ types (compiler internal) DB 01H
__20193517_vector DB 01H
__D1A2D489_xsmf_control@h DB 01H
__AE5FB554_optional DB 01H
__93F89AEE_iomanip DB 01H
__2438182B_forward_list DB 01H
__20F45165___msvc_tzdb@hpp DB 01H
__EA574C79_ratio DB 01H
__63042391___msvc_chrono@hpp DB 01H
__0959437D_chrono DB 01H
__0CC0A096_xloctime DB 01H
__AA1FC06D_xlocmon DB 01H
__33F6443E_xlocmes DB 01H
__1FB5F5B9_xlocbuf DB 01H
__7AF7BBD4_locale DB 01H
__53D5BF5B_xcharconv_tables@h DB 01H
__2A8E0789_xcharconv_ryu_tables@h DB 01H
__80010E97_xcharconv_ryu@h DB 01H
__6C2ABDB7_xcharconv@h DB 01H
__4D844272_xbit_ops@h DB 01H
__D8047733_charconv DB 01H
__C395D46E___msvc_bit_utils@hpp DB 01H
__D74B0347_bit DB 01H
__57562046___msvc_ranges_tuple_formatter@hpp DB 01H
__8B09BF59_xfilesystem_abi@h DB 01H
__2B08D9FB___msvc_print@hpp DB 01H
__85E81555___msvc_formatter@hpp DB 01H
__DAF60B2D___msvc_format_ucd_tables@hpp DB 01H
__E5CD0F93_format DB 01H
__73AE2530_ui512_unit_tests@h DB 01H
__249C6933_ui512_stub_testing@cpp DB 01H
__92E676FC_CppUnitTestLogger@h DB 01H
__FFBDF365_locale@h DB 01H
__7A237B76_clocale DB 01H
__D602BFDF___msvc_xlocinfo_types@hpp DB 01H
__A8DD0984_xlocinfo DB 01H
__FD5F1E76_xfacet DB 01H
__A3D3F6D7_vcruntime_typeinfo@h DB 01H
__B754EA4C_typeinfo DB 01H
__D11A4979_memory DB 01H
__1FFAB342_xlocale DB 01H
__1FF36214_time@h DB 01H
__405749DF_ctime DB 01H
__714FFA14_xtimec@h DB 01H
__EEAFAE40___msvc_threads_core@hpp DB 01H
__F88E164F_xthreads@h DB 01H
__D91C7F2A_xatomic_wait@h DB 01H
__06811935_atomic DB 01H
__F75A0417_xerrc@h DB 01H
__A083E855_xcall_once@h DB 01H
__24B6FA99_stdexcept DB 01H
__E537B7EF_cerrno DB 01H
__43DB425A___msvc_system_error_abi@hpp DB 01H
__1FDEFA75_system_error DB 01H
__85852BDB_share@h DB 01H
__91387E97_xiosbase DB 01H
__26164225_streambuf DB 01H
__D627AE15_iterator DB 01H
__817DD555_xlocnum DB 01H
__1320DE83_ios DB 01H
__1D8A815F___msvc_ostream@hpp DB 01H
__6F3A5CBC_istream DB 01H
__AC949F3C_sstream DB 01H
__6CD6613D_ctype@h DB 01H
__77DD24B3_cctype DB 01H
__3ABE9893_xpolymorphic_allocator@h DB 01H
__20C7CC96_tuple DB 01H
__A7F44C12_xatomic@h DB 01H
__C071288D_corecrt_terminate@h DB 01H
__7747910A_eh@h DB 01H
__4A687918_vcruntime_exception@h DB 01H
__ADF8C0C4_exception DB 01H
__EBEDE495_new DB 01H
__CB8A55F3_float@h DB 01H
__0B520893_cfloat DB 01H
__6DB445F7_limits DB 01H
__B41741EF_xmemory DB 01H
__6D608555_climits DB 01H
__4323F09F_concepts DB 01H
__109A9D16_compare DB 01H
__F79AC0B4_initializer_list DB 01H
__DE82222C_utility DB 01H
__B73D1048___msvc_iter_core@hpp DB 01H
__C78B1955_xutility DB 01H
__9715746B_ammintrin@h DB 01H
__1AC237E4_zmmintrin@h DB 01H
__7CD62D9E_malloc@h DB 01H
__5CE08A7F_mmintrin@h DB 01H
__42AE8E25_xmmintrin@h DB 01H
__27CC07E9_emmintrin@h DB 01H
__F86D6F60_pmmintrin@h DB 01H
__48B41CE2_tmmintrin@h DB 01H
__618F0961_smmintrin@h DB 01H
__04ED80AD_nmmintrin@h DB 01H
__D1567AE3_wmmintrin@h DB 01H
__2DD6952E_immintrin@h DB 01H
__3B3089AB_setjmp@h DB 01H
__1D0635DC_intrin@h DB 01H
__2A5E3E75_types@h DB 01H
__B16B2B9B_stat@h DB 01H
__9E5BC8DA_corecrt_wtime@h DB 01H
__F49D648E_corecrt_wprocess@h DB 01H
__260A2221_corecrt_share@h DB 01H
__EB642103_corecrt_wio@h DB 01H
__547F429B_corecrt_wdirect@h DB 01H
__108B2620_corecrt_wctype@h DB 01H
__8BDC0229_corecrt_wconio@h DB 01H
__4DD8D0FE_wchar@h DB 01H
__E29D1547_cwchar DB 01H
__60B45B40_corecrt_stdio_config@h DB 01H
__CFA3741E_corecrt_wstdio@h DB 01H
__B3FE3303_stdio@h DB 01H
__7816C314_cstdio DB 01H
__A15D9071_iosfwd DB 01H
__FEA281E8___msvc_string_view@hpp DB 01H
__CAE7E606___msvc_sanitizer_annotate_container@hpp DB 01H
__C0C4C773_xstring DB 01H
__A5C9CFE5_string DB 01H
__4C447D0A_cstddef DB 01H
__680F61A7_type_traits DB 01H
__D889C389_intrin0@inl@h DB 01H
__7C8A1759_intrin0@h DB 01H
__62CE13B5_xtr1common DB 01H
__99C021FC_use_ansi@h DB 01H
__65A7AE52_crtdefs@h DB 01H
__5FCF1118_yvals@h DB 01H
__86E4D5D7_cmath DB 01H
__825995EE_CppUnitTestAssert@h DB 01H
__9A5272F0_vcruntime_new@h DB 01H
__42867C4A_vcruntime_new_debug@h DB 01H
__15FC02C9_crtdbg@h DB 01H
__AB5361A8_stdint@h DB 01H
__54D146DA_cstdint DB 01H
__15254F97_limits@h DB 01H
__8B813BF6_corecrt_wstdlib@h DB 01H
__955456CD_stddef@h DB 01H
__99AED4FB_corecrt_search@h DB 01H
__211DB995_corecrt_malloc@h DB 01H
__E8FB0A68_stdlib@h DB 01H
__1D9A7FA2_corecrt_math@h DB 01H
__2E93F1C0_math@h DB 01H
__E98FA7A7_cstdlib DB 01H
__12FEDF4E_sdkddkver@h DB 01H
__DA6CE5E7_CppUnitTestCommon@h DB 01H
__A9AD3190_CppUnitTest@h DB 01H
__BFCD2E3E_pch@h DB 01H
__EE7C4E54_pch@cpp DB 01H
msvcjmc	ENDS
PUBLIC	?__empty_global_delete@@YAXPEAX@Z		; __empty_global_delete
PUBLIC	?__empty_global_delete@@YAXPEAX_K@Z		; __empty_global_delete
PUBLIC	?__empty_global_delete@@YAXPEAXW4align_val_t@std@@@Z ; __empty_global_delete
PUBLIC	?__empty_global_delete@@YAXPEAX_KW4align_val_t@std@@@Z ; __empty_global_delete
PUBLIC	??2@YAPEAX_KPEAX@Z				; operator new
PUBLIC	?is_constant_evaluated@std@@YA_NXZ		; std::is_constant_evaluated
PUBLIC	wmemcpy
PUBLIC	?copy@?$_Char_traits@DH@std@@SAPEADQEADQEBD_K@Z	; std::_Char_traits<char,int>::copy
PUBLIC	?move@?$_Char_traits@DH@std@@SAPEADQEADQEBD_K@Z	; std::_Char_traits<char,int>::move
PUBLIC	?length@?$_Narrow_char_traits@DH@std@@SA_KQEBD@Z ; std::_Narrow_char_traits<char,int>::length
PUBLIC	?assign@?$_Narrow_char_traits@DH@std@@SAXAEADAEBD@Z ; std::_Narrow_char_traits<char,int>::assign
PUBLIC	??$min@_K@std@@YAAEB_KAEB_K0@Z			; std::min<unsigned __int64>
PUBLIC	??0exception@std@@QEAA@QEBDH@Z			; std::exception::exception
PUBLIC	??0exception@std@@QEAA@AEBV01@@Z		; std::exception::exception
PUBLIC	??1exception@std@@UEAA@XZ			; std::exception::~exception
PUBLIC	?what@exception@std@@UEBAPEBDXZ			; std::exception::what
PUBLIC	??_Gexception@std@@UEAAPEAXI@Z			; std::exception::`scalar deleting destructor'
PUBLIC	??0bad_alloc@std@@AEAA@QEBD@Z			; std::bad_alloc::bad_alloc
PUBLIC	??1bad_alloc@std@@UEAA@XZ			; std::bad_alloc::~bad_alloc
PUBLIC	??0bad_alloc@std@@QEAA@AEBV01@@Z		; std::bad_alloc::bad_alloc
PUBLIC	??_Gbad_alloc@std@@UEAAPEAXI@Z			; std::bad_alloc::`scalar deleting destructor'
PUBLIC	??0bad_array_new_length@std@@QEAA@XZ		; std::bad_array_new_length::bad_array_new_length
PUBLIC	??1bad_array_new_length@std@@UEAA@XZ		; std::bad_array_new_length::~bad_array_new_length
PUBLIC	??0bad_array_new_length@std@@QEAA@AEBV01@@Z	; std::bad_array_new_length::bad_array_new_length
PUBLIC	??_Gbad_array_new_length@std@@UEAAPEAXI@Z	; std::bad_array_new_length::`scalar deleting destructor'
PUBLIC	?_Throw_bad_array_new_length@std@@YAXXZ		; std::_Throw_bad_array_new_length
PUBLIC	?_Allocate@_Default_allocate_traits@std@@SAPEAX_K@Z ; std::_Default_allocate_traits::_Allocate
PUBLIC	?_Adjust_manually_vector_aligned@std@@YAXAEAPEAXAEA_K@Z ; std::_Adjust_manually_vector_aligned
PUBLIC	??0_Container_proxy@std@@QEAA@PEAU_Container_base12@1@@Z ; std::_Container_proxy::_Container_proxy
PUBLIC	??0_Container_base12@std@@QEAA@XZ		; std::_Container_base12::_Container_base12
PUBLIC	?_Orphan_all@_Container_base12@std@@QEAAXXZ	; std::_Container_base12::_Orphan_all
PUBLIC	?_Swap_proxy_and_iterators@_Container_base12@std@@QEAAXAEAU12@@Z ; std::_Container_base12::_Swap_proxy_and_iterators
PUBLIC	?_Orphan_all_unlocked_v3@_Container_base12@std@@AEAAXXZ ; std::_Container_base12::_Orphan_all_unlocked_v3
PUBLIC	?_Swap_proxy_and_iterators_unlocked@_Container_base12@std@@AEAAXAEAU12@@Z ; std::_Container_base12::_Swap_proxy_and_iterators_unlocked
PUBLIC	?_Orphan_all_locked_v3@_Container_base12@std@@AEAAXXZ ; std::_Container_base12::_Orphan_all_locked_v3
PUBLIC	?_Swap_proxy_and_iterators_locked@_Container_base12@std@@AEAAXAEAU12@@Z ; std::_Container_base12::_Swap_proxy_and_iterators_locked
PUBLIC	??$exchange@PEAU_Iterator_base12@std@@$$T@std@@YAPEAU_Iterator_base12@0@AEAPEAU10@$$QEA$$T@Z ; std::exchange<std::_Iterator_base12 *,std::nullptr_t>
PUBLIC	?_Release@_Basic_container_proxy_ptr12@std@@QEAAXXZ ; std::_Basic_container_proxy_ptr12::_Release
PUBLIC	??0_Basic_container_proxy_ptr12@std@@IEAA@XZ	; std::_Basic_container_proxy_ptr12::_Basic_container_proxy_ptr12
PUBLIC	??$addressof@U_Container_base12@std@@@std@@YAPEAU_Container_base12@0@AEAU10@@Z ; std::addressof<std::_Container_base12>
PUBLIC	??$_Construct_in_place@U_Container_proxy@std@@PEAU_Container_base12@2@@std@@YAXAEAU_Container_proxy@0@$$QEAPEAU_Container_base12@0@@Z ; std::_Construct_in_place<std::_Container_proxy,std::_Container_base12 *>
PUBLIC	?_Xlen_string@std@@YAXXZ			; std::_Xlen_string
PUBLIC	??0?$allocator@D@std@@QEAA@XZ			; std::allocator<char>::allocator<char>
PUBLIC	?deallocate@?$allocator@D@std@@QEAAXQEAD_K@Z	; std::allocator<char>::deallocate
PUBLIC	?allocate@?$allocator@D@std@@QEAAPEAD_K@Z	; std::allocator<char>::allocate
PUBLIC	?max_size@?$_Default_allocator_traits@V?$allocator@D@std@@@std@@SA_KAEBV?$allocator@D@2@@Z ; std::_Default_allocator_traits<std::allocator<char> >::max_size
PUBLIC	??0?$_String_val@U?$_Simple_types@D@std@@@std@@QEAA@XZ ; std::_String_val<std::_Simple_types<char> >::_String_val<std::_Simple_types<char> >
PUBLIC	?_Myptr@?$_String_val@U?$_Simple_types@D@std@@@std@@QEAAPEADXZ ; std::_String_val<std::_Simple_types<char> >::_Myptr
PUBLIC	?_Myptr@?$_String_val@U?$_Simple_types@D@std@@@std@@QEBAPEBDXZ ; std::_String_val<std::_Simple_types<char> >::_Myptr
PUBLIC	?_Large_mode_engaged@?$_String_val@U?$_Simple_types@D@std@@@std@@QEBA_NXZ ; std::_String_val<std::_Simple_types<char> >::_Large_mode_engaged
PUBLIC	?_Activate_SSO_buffer@?$_String_val@U?$_Simple_types@D@std@@@std@@QEAAXXZ ; std::_String_val<std::_Simple_types<char> >::_Activate_SSO_buffer
PUBLIC	??0_Bxty@?$_String_val@U?$_Simple_types@D@std@@@std@@QEAA@XZ ; std::_String_val<std::_Simple_types<char> >::_Bxty::_Bxty
PUBLIC	??1_Bxty@?$_String_val@U?$_Simple_types@D@std@@@std@@QEAA@XZ ; std::_String_val<std::_Simple_types<char> >::_Bxty::~_Bxty
PUBLIC	?_Switch_to_buf@_Bxty@?$_String_val@U?$_Simple_types@D@std@@@std@@QEAAXXZ ; std::_String_val<std::_Simple_types<char> >::_Bxty::_Switch_to_buf
PUBLIC	??1?$_String_val@U?$_Simple_types@D@std@@@std@@QEAA@XZ ; std::_String_val<std::_Simple_types<char> >::~_String_val<std::_Simple_types<char> >
PUBLIC	??0?$basic_string@DU?$char_traits@D@std@@V?$allocator@D@2@@std@@QEAA@QEBD@Z ; std::basic_string<char,std::char_traits<char>,std::allocator<char> >::basic_string<char,std::char_traits<char>,std::allocator<char> >
PUBLIC	?_Deallocate_for_capacity@?$basic_string@DU?$char_traits@D@std@@V?$allocator@D@2@@std@@CAXAEAV?$allocator@D@2@QEAD_K@Z ; std::basic_string<char,std::char_traits<char>,std::allocator<char> >::_Deallocate_for_capacity
PUBLIC	??0?$basic_string@DU?$char_traits@D@std@@V?$allocator@D@2@@std@@QEAA@$$QEAV01@@Z ; std::basic_string<char,std::char_traits<char>,std::allocator<char> >::basic_string<char,std::char_traits<char>,std::allocator<char> >
PUBLIC	?_Take_contents@?$basic_string@DU?$char_traits@D@std@@V?$allocator@D@2@@std@@AEAAXAEAV12@@Z ; std::basic_string<char,std::char_traits<char>,std::allocator<char> >::_Take_contents
PUBLIC	??1?$basic_string@DU?$char_traits@D@std@@V?$allocator@D@2@@std@@QEAA@XZ ; std::basic_string<char,std::char_traits<char>,std::allocator<char> >::~basic_string<char,std::char_traits<char>,std::allocator<char> >
PUBLIC	?append@?$basic_string@DU?$char_traits@D@std@@V?$allocator@D@2@@std@@QEAAAEAV12@QEBD@Z ; std::basic_string<char,std::char_traits<char>,std::allocator<char> >::append
PUBLIC	?c_str@?$basic_string@DU?$char_traits@D@std@@V?$allocator@D@2@@std@@QEBAPEBDXZ ; std::basic_string<char,std::char_traits<char>,std::allocator<char> >::c_str
PUBLIC	?max_size@?$basic_string@DU?$char_traits@D@std@@V?$allocator@D@2@@std@@QEBA_KXZ ; std::basic_string<char,std::char_traits<char>,std::allocator<char> >::max_size
PUBLIC	?_Calculate_growth@?$basic_string@DU?$char_traits@D@std@@V?$allocator@D@2@@std@@CA_K_K00@Z ; std::basic_string<char,std::char_traits<char>,std::allocator<char> >::_Calculate_growth
PUBLIC	?_Calculate_growth@?$basic_string@DU?$char_traits@D@std@@V?$allocator@D@2@@std@@AEBA_K_K@Z ; std::basic_string<char,std::char_traits<char>,std::allocator<char> >::_Calculate_growth
PUBLIC	?_Tidy_deallocate@?$basic_string@DU?$char_traits@D@std@@V?$allocator@D@2@@std@@AEAAXXZ ; std::basic_string<char,std::char_traits<char>,std::allocator<char> >::_Tidy_deallocate
PUBLIC	?_Swap_proxy_and_iterators@?$basic_string@DU?$char_traits@D@std@@V?$allocator@D@2@@std@@AEAAXAEAV12@@Z ; std::basic_string<char,std::char_traits<char>,std::allocator<char> >::_Swap_proxy_and_iterators
PUBLIC	?_Getal@?$basic_string@DU?$char_traits@D@std@@V?$allocator@D@2@@std@@AEAAAEAV?$allocator@D@2@XZ ; std::basic_string<char,std::char_traits<char>,std::allocator<char> >::_Getal
PUBLIC	?_Getal@?$basic_string@DU?$char_traits@D@std@@V?$allocator@D@2@@std@@AEBAAEBV?$allocator@D@2@XZ ; std::basic_string<char,std::char_traits<char>,std::allocator<char> >::_Getal
PUBLIC	?_Get_first@?$_Compressed_pair@V?$allocator@D@std@@V?$_String_val@U?$_Simple_types@D@std@@@2@$00@std@@QEAAAEAV?$allocator@D@2@XZ ; std::_Compressed_pair<std::allocator<char>,std::_String_val<std::_Simple_types<char> >,1>::_Get_first
PUBLIC	?_Get_first@?$_Compressed_pair@V?$allocator@D@std@@V?$_String_val@U?$_Simple_types@D@std@@@2@$00@std@@QEBAAEBV?$allocator@D@2@XZ ; std::_Compressed_pair<std::allocator<char>,std::_String_val<std::_Simple_types<char> >,1>::_Get_first
PUBLIC	??1?$_Compressed_pair@V?$allocator@D@std@@V?$_String_val@U?$_Simple_types@D@std@@@2@$00@std@@QEAA@XZ ; std::_Compressed_pair<std::allocator<char>,std::_String_val<std::_Simple_types<char> >,1>::~_Compressed_pair<std::allocator<char>,std::_String_val<std::_Simple_types<char> >,1>
PUBLIC	?_Maklocwcs@std@@YAPEA_WPEB_W@Z			; std::_Maklocwcs
PUBLIC	??$_Max_limit@_J@std@@YA_JXZ			; std::_Max_limit<__int64>
PUBLIC	?WriteMessage@Logger@CppUnitTestFramework@VisualStudio@Microsoft@@SAXPEBD@Z ; Microsoft::VisualStudio::CppUnitTestFramework::Logger::WriteMessage
PUBLIC	??0TestClassImpl@CppUnitTestFramework@VisualStudio@Microsoft@@QEAA@XZ ; Microsoft::VisualStudio::CppUnitTestFramework::TestClassImpl::TestClassImpl
PUBLIC	??1TestClassImpl@CppUnitTestFramework@VisualStudio@Microsoft@@UEAA@XZ ; Microsoft::VisualStudio::CppUnitTestFramework::TestClassImpl::~TestClassImpl
PUBLIC	??0CrtHandlersSetter@TestClassImpl@CppUnitTestFramework@VisualStudio@Microsoft@@QEAA@XZ ; Microsoft::VisualStudio::CppUnitTestFramework::TestClassImpl::CrtHandlersSetter::CrtHandlersSetter
PUBLIC	??1CrtHandlersSetter@TestClassImpl@CppUnitTestFramework@VisualStudio@Microsoft@@QEAA@XZ ; Microsoft::VisualStudio::CppUnitTestFramework::TestClassImpl::CrtHandlersSetter::~CrtHandlersSetter
PUBLIC	??_GTestClassImpl@CppUnitTestFramework@VisualStudio@Microsoft@@UEAAPEAXI@Z ; Microsoft::VisualStudio::CppUnitTestFramework::TestClassImpl::`scalar deleting destructor'
PUBLIC	??$_Getvals@_W@?$time_get@DV?$istreambuf_iterator@DU?$char_traits@D@std@@@std@@@std@@IEAAX_WAEBV_Locinfo@1@@Z ; std::time_get<char,std::istreambuf_iterator<char,std::char_traits<char> > >::_Getvals<wchar_t>
PUBLIC	??$_Getvals@_W@?$time_get@_WV?$istreambuf_iterator@_WU?$char_traits@_W@std@@@std@@@std@@IEAAX_WAEBV_Locinfo@1@@Z ; std::time_get<wchar_t,std::istreambuf_iterator<wchar_t,std::char_traits<wchar_t> > >::_Getvals<wchar_t>
PUBLIC	??$max@_K@std@@YAAEB_KAEB_K0@Z			; std::max<unsigned __int64>
PUBLIC	??$?HDU?$char_traits@D@std@@V?$allocator@D@1@@std@@YA?AV?$basic_string@DU?$char_traits@D@std@@V?$allocator@D@2@@0@$$QEAV10@QEBD@Z ; std::operator+<char,std::char_traits<char>,std::allocator<char> >
PUBLIC	?__New@?$TestClass@Vui512_stub_testing@ui512_Unit_Tests@@@CppUnitTestFramework@VisualStudio@Microsoft@@SAPEAVTestClassImpl@234@XZ ; Microsoft::VisualStudio::CppUnitTestFramework::TestClass<ui512_Unit_Tests::ui512_stub_testing>::__New
PUBLIC	?__Delete@?$TestClass@Vui512_stub_testing@ui512_Unit_Tests@@@CppUnitTestFramework@VisualStudio@Microsoft@@SAXPEAVTestClassImpl@234@@Z ; Microsoft::VisualStudio::CppUnitTestFramework::TestClass<ui512_Unit_Tests::ui512_stub_testing>::__Delete
PUBLIC	??1?$TestClass@Vui512_stub_testing@ui512_Unit_Tests@@@CppUnitTestFramework@VisualStudio@Microsoft@@UEAA@XZ ; Microsoft::VisualStudio::CppUnitTestFramework::TestClass<ui512_Unit_Tests::ui512_stub_testing>::~TestClass<ui512_Unit_Tests::ui512_stub_testing>
PUBLIC	?__Invoke@?$TestClass@Vui512_stub_testing@ui512_Unit_Tests@@@CppUnitTestFramework@VisualStudio@Microsoft@@UEAAXP8TestClassImpl@234@EAAXXZ@Z ; Microsoft::VisualStudio::CppUnitTestFramework::TestClass<ui512_Unit_Tests::ui512_stub_testing>::__Invoke
PUBLIC	?__GetTestClassInfo@?$TestClass@Vui512_stub_testing@ui512_Unit_Tests@@@CppUnitTestFramework@VisualStudio@Microsoft@@SAPEBUTestClassInfo@234@XZ ; Microsoft::VisualStudio::CppUnitTestFramework::TestClass<ui512_Unit_Tests::ui512_stub_testing>::__GetTestClassInfo
PUBLIC	?__GetTestVersion@?$TestClass@Vui512_stub_testing@ui512_Unit_Tests@@@CppUnitTestFramework@VisualStudio@Microsoft@@SAPEBUTestDataVersion@234@XZ ; Microsoft::VisualStudio::CppUnitTestFramework::TestClass<ui512_Unit_Tests::ui512_stub_testing>::__GetTestVersion
PUBLIC	??0?$TestClass@Vui512_stub_testing@ui512_Unit_Tests@@@CppUnitTestFramework@VisualStudio@Microsoft@@QEAA@XZ ; Microsoft::VisualStudio::CppUnitTestFramework::TestClass<ui512_Unit_Tests::ui512_stub_testing>::TestClass<ui512_Unit_Tests::ui512_stub_testing>
PUBLIC	??_G?$TestClass@Vui512_stub_testing@ui512_Unit_Tests@@@CppUnitTestFramework@VisualStudio@Microsoft@@UEAAPEAXI@Z ; Microsoft::VisualStudio::CppUnitTestFramework::TestClass<ui512_Unit_Tests::ui512_stub_testing>::`scalar deleting destructor'
PUBLIC	?__GetTestMethodInfo_ui512_01@ui512_stub_testing@ui512_Unit_Tests@@CAPEBUMemberMethodInfo@CppUnitTestFramework@VisualStudio@Microsoft@@XZ ; ui512_Unit_Tests::ui512_stub_testing::__GetTestMethodInfo_ui512_01
PUBLIC	?ui512_01@ui512_stub_testing@ui512_Unit_Tests@@AEAAXXZ ; ui512_Unit_Tests::ui512_stub_testing::ui512_01
PUBLIC	??0ui512_stub_testing@ui512_Unit_Tests@@QEAA@XZ	; ui512_Unit_Tests::ui512_stub_testing::ui512_stub_testing
PUBLIC	??1ui512_stub_testing@ui512_Unit_Tests@@UEAA@XZ	; ui512_Unit_Tests::ui512_stub_testing::~ui512_stub_testing
PUBLIC	??_Gui512_stub_testing@ui512_Unit_Tests@@UEAAPEAXI@Z ; ui512_Unit_Tests::ui512_stub_testing::`scalar deleting destructor'
PUBLIC	??$_Convert_size@_K_K@std@@YA_K_K@Z		; std::_Convert_size<unsigned __int64,unsigned __int64>
PUBLIC	??$_Construct@$00PEBD@?$basic_string@DU?$char_traits@D@std@@V?$allocator@D@2@@std@@AEAAXQEBD_K@Z ; std::basic_string<char,std::char_traits<char>,std::allocator<char> >::_Construct<1,char const *>
PUBLIC	?deallocate@?$allocator@U_Container_proxy@std@@@std@@QEAAXQEAU_Container_proxy@2@_K@Z ; std::allocator<std::_Container_proxy>::deallocate
PUBLIC	?allocate@?$allocator@U_Container_proxy@std@@@std@@QEAAPEAU_Container_proxy@2@_K@Z ; std::allocator<std::_Container_proxy>::allocate
PUBLIC	??$_Delete_plain_internal@V?$allocator@U_Container_proxy@std@@@std@@@std@@YAXAEAV?$allocator@U_Container_proxy@std@@@0@QEAU_Container_proxy@0@@Z ; std::_Delete_plain_internal<std::allocator<std::_Container_proxy> >
PUBLIC	??$_Alloc_proxy@V?$allocator@U_Container_proxy@std@@@std@@@_Container_base12@std@@QEAAX$$QEAV?$allocator@U_Container_proxy@std@@@1@@Z ; std::_Container_base12::_Alloc_proxy<std::allocator<std::_Container_proxy> >
PUBLIC	??$_Append@D@?$basic_string@DU?$char_traits@D@std@@V?$allocator@D@2@@std@@AEAAAEAV01@QEBD_K@Z ; std::basic_string<char,std::char_traits<char>,std::allocator<char> >::_Append<char>
PUBLIC	??$_Get_proxy_allocator@V?$allocator@D@std@@@std@@YA?AV?$allocator@U_Container_proxy@std@@@0@AEBV?$allocator@D@0@@Z ; std::_Get_proxy_allocator<std::allocator<char> >
PUBLIC	??$?0D@?$allocator@U_Container_proxy@std@@@std@@QEAA@AEBV?$allocator@D@1@@Z ; std::allocator<std::_Container_proxy>::allocator<std::_Container_proxy><char>
PUBLIC	??$?0V?$allocator@D@std@@$$V@?$_Compressed_pair@V?$allocator@D@std@@V?$_String_val@U?$_Simple_types@D@std@@@2@$00@std@@QEAA@U_One_then_variadic_args_t@1@$$QEAV?$allocator@D@1@@Z ; std::_Compressed_pair<std::allocator<char>,std::_String_val<std::_Simple_types<char> >,1>::_Compressed_pair<std::allocator<char>,std::_String_val<std::_Simple_types<char> >,1><std::allocator<char> >
PUBLIC	??$?0$$V@?$_Compressed_pair@V?$allocator@D@std@@V?$_String_val@U?$_Simple_types@D@std@@@2@$00@std@@QEAA@U_Zero_then_variadic_args_t@1@@Z ; std::_Compressed_pair<std::allocator<char>,std::_String_val<std::_Simple_types<char> >,1>::_Compressed_pair<std::allocator<char>,std::_String_val<std::_Simple_types<char> >,1><>
PUBLIC	??$_Allocate_at_least_helper@V?$allocator@D@std@@@std@@YAPEADAEAV?$allocator@D@0@AEA_K@Z ; std::_Allocate_at_least_helper<std::allocator<char> >
PUBLIC	??$_Unfancy@D@std@@YAPEADPEAD@Z			; std::_Unfancy<char>
PUBLIC	??0?$_Container_proxy_ptr12@V?$allocator@U_Container_proxy@std@@@std@@@std@@QEAA@AEAV?$allocator@U_Container_proxy@std@@@1@AEAU_Container_base12@1@@Z ; std::_Container_proxy_ptr12<std::allocator<std::_Container_proxy> >::_Container_proxy_ptr12<std::allocator<std::_Container_proxy> >
PUBLIC	??1?$_Container_proxy_ptr12@V?$allocator@U_Container_proxy@std@@@std@@@std@@QEAA@XZ ; std::_Container_proxy_ptr12<std::allocator<std::_Container_proxy> >::~_Container_proxy_ptr12<std::allocator<std::_Container_proxy> >
PUBLIC	??$_Traits_copy_batch@U?$char_traits@D@std@@D@std@@YAXQEADQEBD_K@Z ; std::_Traits_copy_batch<std::char_traits<char>,char>
PUBLIC	??$_Allocate_for_capacity@$0A@@?$basic_string@DU?$char_traits@D@std@@V?$allocator@D@2@@std@@CAPEADAEAV?$allocator@D@1@AEA_K@Z ; std::basic_string<char,std::char_traits<char>,std::allocator<char> >::_Allocate_for_capacity<0>
PUBLIC	??$construct_at@D$$V@std@@YAPEADQEAD@Z		; std::construct_at<char>
PUBLIC	??$_Construct_in_place@PEADAEBQEAD@std@@YAXAEAPEADAEBQEAD@Z ; std::_Construct_in_place<char *,char * const &>
PUBLIC	??$_Deallocate_plain@V?$allocator@U_Container_proxy@std@@@std@@@std@@YAXAEAV?$allocator@U_Container_proxy@std@@@0@QEAU_Container_proxy@0@@Z ; std::_Deallocate_plain<std::allocator<std::_Container_proxy> >
PUBLIC	??$_Unfancy@U_Container_proxy@std@@@std@@YAPEAU_Container_proxy@0@PEAU10@@Z ; std::_Unfancy<std::_Container_proxy>
PUBLIC	??$_Traits_move_batch@U?$char_traits@D@std@@D@std@@YAXQEADQEBD_K@Z ; std::_Traits_move_batch<std::char_traits<char>,char>
PUBLIC	??R<lambda_1>@?1???$_Append@D@?$basic_string@DU?$char_traits@D@std@@V?$allocator@D@2@@std@@AEAAAEAV12@QEBD_K@Z@SA@QEAD0101@Z ; `std::basic_string<char,std::char_traits<char>,std::allocator<char> >::_Append<char>'::`2'::<lambda_1>::operator()
PUBLIC	??$_Reallocate_grow_by@V<lambda_1>@?1???$_Append@D@?$basic_string@DU?$char_traits@D@std@@V?$allocator@D@2@@std@@AEAAAEAV23@QEBD_K@Z@PEBD_K@?$basic_string@DU?$char_traits@D@std@@V?$allocator@D@2@@std@@AEAAAEAV01@_KV<lambda_1>@?1???$_Append@D@01@AEAAAEAV01@QEBD0@Z@PEBD_K@Z ; std::basic_string<char,std::char_traits<char>,std::allocator<char> >::_Reallocate_grow_by<`std::basic_string<char,std::char_traits<char>,std::allocator<char> >::_Append<char>'::`2'::<lambda_1>,char const *,unsigned __int64>
PUBLIC	??$addressof@V?$_String_val@U?$_Simple_types@D@std@@@std@@@std@@YAPEAV?$_String_val@U?$_Simple_types@D@std@@@0@AEAV10@@Z ; std::addressof<std::_String_val<std::_Simple_types<char> > >
PUBLIC	??$_Construct_in_place@PEADAEAPEAD@std@@YAXAEAPEAD0@Z ; std::_Construct_in_place<char *,char * &>
PUBLIC	??$_Allocate@$0BA@U_Default_allocate_traits@std@@@std@@YAPEAX_K@Z ; std::_Allocate<16,std::_Default_allocate_traits>
PUBLIC	??$_Deallocate@$0BA@@std@@YAXPEAX_K@Z		; std::_Deallocate<16>
PUBLIC	??$_Get_size_of_n@$00@std@@YA_K_K@Z		; std::_Get_size_of_n<1>
PUBLIC	??$addressof@U_Container_proxy@std@@@std@@YAPEAU_Container_proxy@0@AEAU10@@Z ; std::addressof<std::_Container_proxy>
PUBLIC	??$construct_at@U_Container_proxy@std@@PEAU_Container_base12@2@@std@@YAPEAU_Container_proxy@0@QEAU10@$$QEAPEAU_Container_base12@0@@Z ; std::construct_at<std::_Container_proxy,std::_Container_base12 *>
PUBLIC	??$addressof@PEAD@std@@YAPEAPEADAEAPEAD@Z	; std::addressof<char *>
PUBLIC	??$construct_at@PEADAEBQEAD@std@@YAPEAPEADQEAPEADAEBQEAD@Z ; std::construct_at<char *,char * const &>
PUBLIC	?deallocate@?$_Default_allocator_traits@V?$allocator@U_Container_proxy@std@@@std@@@std@@SAXAEAV?$allocator@U_Container_proxy@std@@@2@QEAU_Container_proxy@2@_K@Z ; std::_Default_allocator_traits<std::allocator<std::_Container_proxy> >::deallocate
PUBLIC	??$construct_at@PEADAEAPEAD@std@@YAPEAPEADQEAPEADAEAPEAD@Z ; std::construct_at<char *,char * &>
PUBLIC	??$_Allocate_manually_vector_aligned@U_Default_allocate_traits@std@@@std@@YAPEAX_K@Z ; std::_Allocate_manually_vector_aligned<std::_Default_allocate_traits>
PUBLIC	??$_Get_size_of_n@$0BA@@std@@YA_K_K@Z		; std::_Get_size_of_n<16>
PUBLIC	??$_Destroy_in_place@PEAD@std@@YAXAEAPEAD@Z	; std::_Destroy_in_place<char *>
PUBLIC	__JustMyCode_Default
PUBLIC	??_7exception@std@@6B@				; std::exception::`vftable'
PUBLIC	??_C@_0BC@EOODALEL@Unknown?5exception@		; `string'
PUBLIC	??_7bad_alloc@std@@6B@				; std::bad_alloc::`vftable'
PUBLIC	??_7bad_array_new_length@std@@6B@		; std::bad_array_new_length::`vftable'
PUBLIC	??_C@_0BF@KINCDENJ@bad?5array?5new?5length@	; `string'
PUBLIC	??_R0?AVexception@std@@@8			; std::exception `RTTI Type Descriptor'
PUBLIC	_CT??_R0?AVexception@std@@@8??0exception@std@@QEAA@AEBV01@@Z24
PUBLIC	_TI3?AVbad_array_new_length@std@@
PUBLIC	_CTA3?AVbad_array_new_length@std@@
PUBLIC	??_R0?AVbad_array_new_length@std@@@8		; std::bad_array_new_length `RTTI Type Descriptor'
PUBLIC	_CT??_R0?AVbad_array_new_length@std@@@8??0bad_array_new_length@std@@QEAA@AEBV01@@Z24
PUBLIC	??_R0?AVbad_alloc@std@@@8			; std::bad_alloc `RTTI Type Descriptor'
PUBLIC	_CT??_R0?AVbad_alloc@std@@@8??0bad_alloc@std@@QEAA@AEBV01@@Z24
PUBLIC	?__LINE__Var@?0??_Adjust_manually_vector_aligned@std@@YAXAEAPEAXAEA_K@Z@4JA ; `std::_Adjust_manually_vector_aligned'::`1'::__LINE__Var
PUBLIC	??_C@_0BB@FCMFBGOM@invalid?5argument@		; `string'
PUBLIC	??_C@_02DKCKIIND@?$CFs@				; `string'
PUBLIC	??_C@_0GA@HFAKHCPJ@C?3?2Program?5Files?2Microsoft?5Visu@ ; `string'
PUBLIC	??_C@_0BA@JFNIOLAK@string?5too?5long@		; `string'
PUBLIC	?__LINE__Var@?0??_Maklocwcs@std@@YAPEA_WPEB_W@Z@4JA ; `std::_Maklocwcs'::`1'::__LINE__Var
PUBLIC	??_C@_0GA@FOILECPP@C?3?2Program?5Files?2Microsoft?5Visu@ ; `string'
PUBLIC	??_7TestClassImpl@CppUnitTestFramework@VisualStudio@Microsoft@@6B@ ; Microsoft::VisualStudio::CppUnitTestFramework::TestClassImpl::`vftable'
PUBLIC	??_7?$TestClass@Vui512_stub_testing@ui512_Unit_Tests@@@CppUnitTestFramework@VisualStudio@Microsoft@@6B@ ; Microsoft::VisualStudio::CppUnitTestFramework::TestClass<ui512_Unit_Tests::ui512_stub_testing>::`vftable'
PUBLIC	??_7ui512_stub_testing@ui512_Unit_Tests@@6B@	; ui512_Unit_Tests::ui512_stub_testing::`vftable'
PUBLIC	?s_Metadata@?1??__GetTestMethodInfo_ui512_01@ui512_stub_testing@ui512_Unit_Tests@@CAPEBUMemberMethodInfo@CppUnitTestFramework@VisualStudio@Microsoft@@XZ@4UMethodMetadata@567@B ; `ui512_Unit_Tests::ui512_stub_testing::__GetTestMethodInfo_ui512_01'::`2'::s_Metadata
PUBLIC	??_C@_1BO@LIDJJEMN@?$AAT?$AAe?$AAs?$AAt?$AAM?$AAe?$AAt?$AAh?$AAo?$AAd?$AAI?$AAn?$AAf?$AAo@ ; `string'
PUBLIC	??_C@_1BC@FNFIDNPA@?$AAu?$AAi?$AA5?$AA1?$AA2?$AA_?$AA0?$AA1@ ; `string'
PUBLIC	??_C@_0ED@MLBDPENL@ui512_Unit_Tests?3?3ui512_stub_te@ ; `string'
PUBLIC	??_C@_0IK@KAAEBMLK@?$DP__GetTestMethodInfo_ui512_01?$EAu@ ; `string'
PUBLIC	??_C@_1JO@OAJKIPCJ@?$AAC?$AA?3?$AA?2?$AAU?$AAs?$AAe?$AAr?$AAs?$AA?2?$AAJ?$AAo?$AAh?$AAn?$AA?5?$AAL@ ; `string'
PUBLIC	?s_Info@?1??__GetTestMethodInfo_ui512_01@ui512_stub_testing@ui512_Unit_Tests@@CAPEBUMemberMethodInfo@CppUnitTestFramework@VisualStudio@Microsoft@@XZ@4U4567@A ; `ui512_Unit_Tests::ui512_stub_testing::__GetTestMethodInfo_ui512_01'::`2'::s_Info
PUBLIC	??_C@_07LMMOHMOF@?7?7?7?$CK?$CK?$CK?6@		; `string'
PUBLIC	??_C@_0N@HABDBKBE@Stub?5Test?501@		; `string'
PUBLIC	??_C@_06IHADJIOK@?$CK?$CK?$CK?7?7?7@		; `string'
PUBLIC	??_C@_1BK@MHIKGOKE@?$AA?3?$AAA?$AAM?$AA?3?$AAa?$AAm?$AA?3?$AAP?$AAM?$AA?3?$AAp?$AAm@ ; `string'
PUBLIC	?s_version@?1??__GetTestVersion@?$TestClass@Vui512_stub_testing@ui512_Unit_Tests@@@CppUnitTestFramework@VisualStudio@Microsoft@@SAPEBUTestDataVersion@345@XZ@4U6345@A ; `Microsoft::VisualStudio::CppUnitTestFramework::TestClass<ui512_Unit_Tests::ui512_stub_testing>::__GetTestVersion'::`2'::s_version
PUBLIC	?s_Metadata@?1??__GetTestClassInfo@?$TestClass@Vui512_stub_testing@ui512_Unit_Tests@@@CppUnitTestFramework@VisualStudio@Microsoft@@SAPEBUTestClassInfo@345@XZ@4UClassMetadata@345@B ; `Microsoft::VisualStudio::CppUnitTestFramework::TestClass<ui512_Unit_Tests::ui512_stub_testing>::__GetTestClassInfo'::`2'::s_Metadata
PUBLIC	??_C@_1BM@OILAKHEN@?$AAT?$AAe?$AAs?$AAt?$AAC?$AAl?$AAa?$AAs?$AAs?$AAI?$AAn?$AAf?$AAo@ ; `string'
PUBLIC	??_C@_0HJ@BADDJBGA@Microsoft?3?3VisualStudio?3?3CppUni@ ; `string'
PUBLIC	??_C@_0IP@PLDHKPPA@?$DP__GetTestClassInfo?$EA?$DP$TestClass@ ; `string'
PUBLIC	?s_Info@?1??__GetTestClassInfo@?$TestClass@Vui512_stub_testing@ui512_Unit_Tests@@@CppUnitTestFramework@VisualStudio@Microsoft@@SAPEBUTestClassInfo@345@XZ@4U6345@B ; `Microsoft::VisualStudio::CppUnitTestFramework::TestClass<ui512_Unit_Tests::ui512_stub_testing>::__GetTestClassInfo'::`2'::s_Info
PUBLIC	??_C@_0DG@KGHKKGBC@null?5pointer?5cannot?5point?5to?5a?5@ ; `string'
PUBLIC	??_R4exception@std@@6B@				; std::exception::`RTTI Complete Object Locator'
PUBLIC	??_R3exception@std@@8				; std::exception::`RTTI Class Hierarchy Descriptor'
PUBLIC	??_R2exception@std@@8				; std::exception::`RTTI Base Class Array'
PUBLIC	??_R1A@?0A@EA@exception@std@@8			; std::exception::`RTTI Base Class Descriptor at (0,-1,0,64)'
PUBLIC	??_R4bad_array_new_length@std@@6B@		; std::bad_array_new_length::`RTTI Complete Object Locator'
PUBLIC	??_R3bad_array_new_length@std@@8		; std::bad_array_new_length::`RTTI Class Hierarchy Descriptor'
PUBLIC	??_R2bad_array_new_length@std@@8		; std::bad_array_new_length::`RTTI Base Class Array'
PUBLIC	??_R1A@?0A@EA@bad_array_new_length@std@@8	; std::bad_array_new_length::`RTTI Base Class Descriptor at (0,-1,0,64)'
PUBLIC	??_R1A@?0A@EA@bad_alloc@std@@8			; std::bad_alloc::`RTTI Base Class Descriptor at (0,-1,0,64)'
PUBLIC	??_R3bad_alloc@std@@8				; std::bad_alloc::`RTTI Class Hierarchy Descriptor'
PUBLIC	??_R2bad_alloc@std@@8				; std::bad_alloc::`RTTI Base Class Array'
PUBLIC	??_R4bad_alloc@std@@6B@				; std::bad_alloc::`RTTI Complete Object Locator'
PUBLIC	??_R4TestClassImpl@CppUnitTestFramework@VisualStudio@Microsoft@@6B@ ; Microsoft::VisualStudio::CppUnitTestFramework::TestClassImpl::`RTTI Complete Object Locator'
PUBLIC	??_R0?AVTestClassImpl@CppUnitTestFramework@VisualStudio@Microsoft@@@8 ; Microsoft::VisualStudio::CppUnitTestFramework::TestClassImpl `RTTI Type Descriptor'
PUBLIC	??_R3TestClassImpl@CppUnitTestFramework@VisualStudio@Microsoft@@8 ; Microsoft::VisualStudio::CppUnitTestFramework::TestClassImpl::`RTTI Class Hierarchy Descriptor'
PUBLIC	??_R2TestClassImpl@CppUnitTestFramework@VisualStudio@Microsoft@@8 ; Microsoft::VisualStudio::CppUnitTestFramework::TestClassImpl::`RTTI Base Class Array'
PUBLIC	??_R1A@?0A@EA@TestClassImpl@CppUnitTestFramework@VisualStudio@Microsoft@@8 ; Microsoft::VisualStudio::CppUnitTestFramework::TestClassImpl::`RTTI Base Class Descriptor at (0,-1,0,64)'
PUBLIC	??_R4ui512_stub_testing@ui512_Unit_Tests@@6B@	; ui512_Unit_Tests::ui512_stub_testing::`RTTI Complete Object Locator'
PUBLIC	??_R0?AVui512_stub_testing@ui512_Unit_Tests@@@8	; ui512_Unit_Tests::ui512_stub_testing `RTTI Type Descriptor'
PUBLIC	??_R3ui512_stub_testing@ui512_Unit_Tests@@8	; ui512_Unit_Tests::ui512_stub_testing::`RTTI Class Hierarchy Descriptor'
PUBLIC	??_R2ui512_stub_testing@ui512_Unit_Tests@@8	; ui512_Unit_Tests::ui512_stub_testing::`RTTI Base Class Array'
PUBLIC	??_R1A@?0A@EA@ui512_stub_testing@ui512_Unit_Tests@@8 ; ui512_Unit_Tests::ui512_stub_testing::`RTTI Base Class Descriptor at (0,-1,0,64)'
PUBLIC	??_R1A@?0A@EA@?$TestClass@Vui512_stub_testing@ui512_Unit_Tests@@@CppUnitTestFramework@VisualStudio@Microsoft@@8 ; Microsoft::VisualStudio::CppUnitTestFramework::TestClass<ui512_Unit_Tests::ui512_stub_testing>::`RTTI Base Class Descriptor at (0,-1,0,64)'
PUBLIC	??_R0?AV?$TestClass@Vui512_stub_testing@ui512_Unit_Tests@@@CppUnitTestFramework@VisualStudio@Microsoft@@@8 ; Microsoft::VisualStudio::CppUnitTestFramework::TestClass<ui512_Unit_Tests::ui512_stub_testing> `RTTI Type Descriptor'
PUBLIC	??_R3?$TestClass@Vui512_stub_testing@ui512_Unit_Tests@@@CppUnitTestFramework@VisualStudio@Microsoft@@8 ; Microsoft::VisualStudio::CppUnitTestFramework::TestClass<ui512_Unit_Tests::ui512_stub_testing>::`RTTI Class Hierarchy Descriptor'
PUBLIC	??_R2?$TestClass@Vui512_stub_testing@ui512_Unit_Tests@@@CppUnitTestFramework@VisualStudio@Microsoft@@8 ; Microsoft::VisualStudio::CppUnitTestFramework::TestClass<ui512_Unit_Tests::ui512_stub_testing>::`RTTI Base Class Array'
PUBLIC	??_R4?$TestClass@Vui512_stub_testing@ui512_Unit_Tests@@@CppUnitTestFramework@VisualStudio@Microsoft@@6B@ ; Microsoft::VisualStudio::CppUnitTestFramework::TestClass<ui512_Unit_Tests::ui512_stub_testing>::`RTTI Complete Object Locator'
EXTRN	_purecall:PROC
EXTRN	??2@YAPEAX_K@Z:PROC				; operator new
EXTRN	??3@YAXPEAX@Z:PROC				; operator delete
EXTRN	??3@YAXPEAX_K@Z:PROC				; operator delete
EXTRN	memcpy:PROC
EXTRN	memmove:PROC
EXTRN	__imp_wcslen:PROC
EXTRN	__imp__set_invalid_parameter_handler:PROC
EXTRN	__imp__calloc_dbg:PROC
EXTRN	__imp__CrtDbgReport:PROC
EXTRN	__imp__CrtSetReportFile:PROC
EXTRN	__imp__CrtSetReportMode:PROC
EXTRN	__imp_??0_Lockit@std@@QEAA@H@Z:PROC
EXTRN	__imp_??1_Lockit@std@@QEAA@XZ:PROC
EXTRN	?_Xbad_alloc@std@@YAXXZ:PROC			; std::_Xbad_alloc
EXTRN	?_Xlength_error@std@@YAXPEBD@Z:PROC		; std::_Xlength_error
EXTRN	__std_exception_copy:PROC
EXTRN	__std_exception_destroy:PROC
EXTRN	??_Eexception@std@@UEAAPEAXI@Z:PROC		; std::exception::`vector deleting destructor'
EXTRN	??_Ebad_alloc@std@@UEAAPEAXI@Z:PROC		; std::bad_alloc::`vector deleting destructor'
EXTRN	??_Ebad_array_new_length@std@@UEAAPEAXI@Z:PROC	; std::bad_array_new_length::`vector deleting destructor'
EXTRN	__imp_?_Getcvt@_Locinfo@std@@QEBA?AU_Cvtvec@@XZ:PROC
EXTRN	__imp_?_W_Getdays@_Locinfo@std@@QEBAPEBGXZ:PROC
EXTRN	__imp_?_W_Getmonths@_Locinfo@std@@QEBAPEBGXZ:PROC
EXTRN	?WriteMessageImplA@Logger@CppUnitTestFramework@VisualStudio@Microsoft@@CAXPEBD@Z:PROC ; Microsoft::VisualStudio::CppUnitTestFramework::Logger::WriteMessageImplA
EXTRN	?IsDebuggerAttached@CrtHandlersSetter@TestClassImpl@CppUnitTestFramework@VisualStudio@Microsoft@@CA_NXZ:PROC ; Microsoft::VisualStudio::CppUnitTestFramework::TestClassImpl::CrtHandlersSetter::IsDebuggerAttached
EXTRN	?InvalidParameterHandler@CrtHandlersSetter@TestClassImpl@CppUnitTestFramework@VisualStudio@Microsoft@@CAXPEBG00I_K@Z:PROC ; Microsoft::VisualStudio::CppUnitTestFramework::TestClassImpl::CrtHandlersSetter::InvalidParameterHandler
EXTRN	??_ETestClassImpl@CppUnitTestFramework@VisualStudio@Microsoft@@UEAAPEAXI@Z:PROC ; Microsoft::VisualStudio::CppUnitTestFramework::TestClassImpl::`vector deleting destructor'
EXTRN	??_E?$TestClass@Vui512_stub_testing@ui512_Unit_Tests@@@CppUnitTestFramework@VisualStudio@Microsoft@@UEAAPEAXI@Z:PROC ; Microsoft::VisualStudio::CppUnitTestFramework::TestClass<ui512_Unit_Tests::ui512_stub_testing>::`vector deleting destructor'
EXTRN	??_Eui512_stub_testing@ui512_Unit_Tests@@UEAAPEAXI@Z:PROC ; ui512_Unit_Tests::ui512_stub_testing::`vector deleting destructor'
EXTRN	_CxxThrowException:PROC
EXTRN	_RTC_CheckStackVars:PROC
EXTRN	_RTC_InitBase:PROC
EXTRN	_RTC_Shutdown:PROC
EXTRN	__CheckForDebuggerJustMyCode:PROC
EXTRN	__CxxFrameHandler4:PROC
EXTRN	__GSHandlerCheck:PROC
EXTRN	__GSHandlerCheck_EH4:PROC
EXTRN	__security_check_cookie:PROC
EXTRN	strlen:PROC
EXTRN	??_7type_info@@6B@:BYTE				; type_info::`vftable'
EXTRN	__security_cookie:QWORD
;	COMDAT pdata
pdata	SEGMENT
$pdata$?__empty_global_delete@@YAXPEAX@Z DD imagerel $LN4
	DD	imagerel $LN4+42
	DD	imagerel $unwind$?__empty_global_delete@@YAXPEAX@Z
pdata	ENDS
;	COMDAT pdata
pdata	SEGMENT
$pdata$?__empty_global_delete@@YAXPEAX_K@Z DD imagerel $LN4
	DD	imagerel $LN4+47
	DD	imagerel $unwind$?__empty_global_delete@@YAXPEAX_K@Z
pdata	ENDS
;	COMDAT pdata
pdata	SEGMENT
$pdata$?__empty_global_delete@@YAXPEAXW4align_val_t@std@@@Z DD imagerel $LN4
	DD	imagerel $LN4+47
	DD	imagerel $unwind$?__empty_global_delete@@YAXPEAXW4align_val_t@std@@@Z
pdata	ENDS
;	COMDAT pdata
pdata	SEGMENT
$pdata$?__empty_global_delete@@YAXPEAX_KW4align_val_t@std@@@Z DD imagerel $LN4
	DD	imagerel $LN4+52
	DD	imagerel $unwind$?__empty_global_delete@@YAXPEAX_KW4align_val_t@std@@@Z
pdata	ENDS
;	COMDAT pdata
pdata	SEGMENT
$pdata$??2@YAPEAX_KPEAX@Z DD imagerel $LN4
	DD	imagerel $LN4+54
	DD	imagerel $unwind$??2@YAPEAX_KPEAX@Z
pdata	ENDS
;	COMDAT pdata
pdata	SEGMENT
$pdata$?is_constant_evaluated@std@@YA_NXZ DD imagerel $LN4
	DD	imagerel $LN4+40
	DD	imagerel $unwind$?is_constant_evaluated@std@@YA_NXZ
pdata	ENDS
;	COMDAT pdata
pdata	SEGMENT
$pdata$wmemcpy DD imagerel $LN3
	DD	imagerel $LN3+84
	DD	imagerel $unwind$wmemcpy
pdata	ENDS
;	COMDAT pdata
pdata	SEGMENT
$pdata$?copy@?$_Char_traits@DH@std@@SAPEADQEADQEBD_K@Z DD imagerel $LN8
	DD	imagerel $LN8+182
	DD	imagerel $unwind$?copy@?$_Char_traits@DH@std@@SAPEADQEADQEBD_K@Z
pdata	ENDS
;	COMDAT pdata
pdata	SEGMENT
$pdata$?move@?$_Char_traits@DH@std@@SAPEADQEADQEBD_K@Z DD imagerel $LN17
	DD	imagerel $LN17+345
	DD	imagerel $unwind$?move@?$_Char_traits@DH@std@@SAPEADQEADQEBD_K@Z
pdata	ENDS
;	COMDAT pdata
pdata	SEGMENT
$pdata$?length@?$_Narrow_char_traits@DH@std@@SA_KQEBD@Z DD imagerel $LN4
	DD	imagerel $LN4+54
	DD	imagerel $unwind$?length@?$_Narrow_char_traits@DH@std@@SA_KQEBD@Z
pdata	ENDS
;	COMDAT pdata
pdata	SEGMENT
$pdata$?assign@?$_Narrow_char_traits@DH@std@@SAXAEADAEBD@Z DD imagerel $LN4
	DD	imagerel $LN4+66
	DD	imagerel $unwind$?assign@?$_Narrow_char_traits@DH@std@@SAXAEADAEBD@Z
pdata	ENDS
;	COMDAT pdata
pdata	SEGMENT
$pdata$??$min@_K@std@@YAAEB_KAEB_K0@Z DD imagerel $LN6
	DD	imagerel $LN6+120
	DD	imagerel $unwind$??$min@_K@std@@YAAEB_KAEB_K0@Z
pdata	ENDS
;	COMDAT pdata
pdata	SEGMENT
$pdata$??0exception@std@@QEAA@QEBDH@Z DD imagerel $LN4
	DD	imagerel $LN4+117
	DD	imagerel $unwind$??0exception@std@@QEAA@QEBDH@Z
pdata	ENDS
;	COMDAT pdata
pdata	SEGMENT
$pdata$??0exception@std@@QEAA@AEBV01@@Z DD imagerel $LN4
	DD	imagerel $LN4+125
	DD	imagerel $unwind$??0exception@std@@QEAA@AEBV01@@Z
pdata	ENDS
;	COMDAT pdata
pdata	SEGMENT
$pdata$??1exception@std@@UEAA@XZ DD imagerel $LN4
	DD	imagerel $LN4+79
	DD	imagerel $unwind$??1exception@std@@UEAA@XZ
pdata	ENDS
;	COMDAT pdata
pdata	SEGMENT
$pdata$?what@exception@std@@UEBAPEBDXZ DD imagerel $LN5
	DD	imagerel $LN5+97
	DD	imagerel $unwind$?what@exception@std@@UEBAPEBDXZ
pdata	ENDS
;	COMDAT pdata
pdata	SEGMENT
$pdata$??_Gexception@std@@UEAAPEAXI@Z DD imagerel $LN5
	DD	imagerel $LN5+84
	DD	imagerel $unwind$??_Gexception@std@@UEAAPEAXI@Z
pdata	ENDS
;	COMDAT pdata
pdata	SEGMENT
$pdata$??0bad_alloc@std@@AEAA@QEBD@Z DD imagerel $LN4
	DD	imagerel $LN4+97
	DD	imagerel $unwind$??0bad_alloc@std@@AEAA@QEBD@Z
pdata	ENDS
;	COMDAT pdata
pdata	SEGMENT
$pdata$??1bad_alloc@std@@UEAA@XZ DD imagerel $LN4
	DD	imagerel $LN4+42
	DD	imagerel $unwind$??1bad_alloc@std@@UEAA@XZ
pdata	ENDS
;	COMDAT pdata
pdata	SEGMENT
$pdata$??0bad_alloc@std@@QEAA@AEBV01@@Z DD imagerel $LN4
	DD	imagerel $LN4+78
	DD	imagerel $unwind$??0bad_alloc@std@@QEAA@AEBV01@@Z
pdata	ENDS
;	COMDAT pdata
pdata	SEGMENT
$pdata$??_Gbad_alloc@std@@UEAAPEAXI@Z DD imagerel $LN5
	DD	imagerel $LN5+84
	DD	imagerel $unwind$??_Gbad_alloc@std@@UEAAPEAXI@Z
pdata	ENDS
;	COMDAT pdata
pdata	SEGMENT
$pdata$??0bad_array_new_length@std@@QEAA@XZ DD imagerel $LN4
	DD	imagerel $LN4+86
	DD	imagerel $unwind$??0bad_array_new_length@std@@QEAA@XZ
pdata	ENDS
;	COMDAT pdata
pdata	SEGMENT
$pdata$??1bad_array_new_length@std@@UEAA@XZ DD imagerel $LN4
	DD	imagerel $LN4+42
	DD	imagerel $unwind$??1bad_array_new_length@std@@UEAA@XZ
pdata	ENDS
;	COMDAT pdata
pdata	SEGMENT
$pdata$??0bad_array_new_length@std@@QEAA@AEBV01@@Z DD imagerel $LN4
	DD	imagerel $LN4+78
	DD	imagerel $unwind$??0bad_array_new_length@std@@QEAA@AEBV01@@Z
pdata	ENDS
;	COMDAT pdata
pdata	SEGMENT
$pdata$??_Gbad_array_new_length@std@@UEAAPEAXI@Z DD imagerel $LN5
	DD	imagerel $LN5+84
	DD	imagerel $unwind$??_Gbad_array_new_length@std@@UEAAPEAXI@Z
pdata	ENDS
;	COMDAT pdata
pdata	SEGMENT
$pdata$?_Throw_bad_array_new_length@std@@YAXXZ DD imagerel $LN3
	DD	imagerel $LN3+70
	DD	imagerel $unwind$?_Throw_bad_array_new_length@std@@YAXXZ
pdata	ENDS
;	COMDAT pdata
pdata	SEGMENT
$pdata$?_Allocate@_Default_allocate_traits@std@@SAPEAX_K@Z DD imagerel $LN3
	DD	imagerel $LN3+54
	DD	imagerel $unwind$?_Allocate@_Default_allocate_traits@std@@SAPEAX_K@Z
pdata	ENDS
;	COMDAT pdata
pdata	SEGMENT
$pdata$?_Adjust_manually_vector_aligned@std@@YAXAEAPEAXAEA_K@Z DD imagerel $LN8
	DD	imagerel $LN8+336
	DD	imagerel $unwind$?_Adjust_manually_vector_aligned@std@@YAXAEAPEAXAEA_K@Z
pdata	ENDS
;	COMDAT pdata
pdata	SEGMENT
$pdata$??0_Container_proxy@std@@QEAA@PEAU_Container_base12@1@@Z DD imagerel $LN4
	DD	imagerel $LN4+86
	DD	imagerel $unwind$??0_Container_proxy@std@@QEAA@PEAU_Container_base12@1@@Z
pdata	ENDS
;	COMDAT pdata
pdata	SEGMENT
$pdata$??0_Container_base12@std@@QEAA@XZ DD imagerel $LN4
	DD	imagerel $LN4+63
	DD	imagerel $unwind$??0_Container_base12@std@@QEAA@XZ
pdata	ENDS
;	COMDAT pdata
pdata	SEGMENT
$pdata$?_Orphan_all@_Container_base12@std@@QEAAXXZ DD imagerel $LN6
	DD	imagerel $LN6+82
	DD	imagerel $unwind$?_Orphan_all@_Container_base12@std@@QEAAXXZ
pdata	ENDS
;	COMDAT pdata
pdata	SEGMENT
$pdata$?_Swap_proxy_and_iterators@_Container_base12@std@@QEAAXAEAU12@@Z DD imagerel $LN6
	DD	imagerel $LN6+101
	DD	imagerel $unwind$?_Swap_proxy_and_iterators@_Container_base12@std@@QEAAXAEAU12@@Z
pdata	ENDS
;	COMDAT pdata
pdata	SEGMENT
$pdata$?_Orphan_all_unlocked_v3@_Container_base12@std@@AEAAXXZ DD imagerel $LN8
	DD	imagerel $LN8+135
	DD	imagerel $unwind$?_Orphan_all_unlocked_v3@_Container_base12@std@@AEAAXXZ
pdata	ENDS
;	COMDAT pdata
pdata	SEGMENT
$pdata$?_Swap_proxy_and_iterators_unlocked@_Container_base12@std@@AEAAXAEAU12@@Z DD imagerel $LN6
	DD	imagerel $LN6+161
	DD	imagerel $unwind$?_Swap_proxy_and_iterators_unlocked@_Container_base12@std@@AEAAXAEAU12@@Z
pdata	ENDS
;	COMDAT pdata
pdata	SEGMENT
$pdata$?_Orphan_all_locked_v3@_Container_base12@std@@AEAAXXZ DD imagerel $LN4
	DD	imagerel $LN4+155
	DD	imagerel $unwind$?_Orphan_all_locked_v3@_Container_base12@std@@AEAAXXZ
pdata	ENDS
;	COMDAT pdata
pdata	SEGMENT
$pdata$?_Swap_proxy_and_iterators_locked@_Container_base12@std@@AEAAXAEAU12@@Z DD imagerel $LN4
	DD	imagerel $LN4+167
	DD	imagerel $unwind$?_Swap_proxy_and_iterators_locked@_Container_base12@std@@AEAAXAEAU12@@Z
pdata	ENDS
;	COMDAT pdata
pdata	SEGMENT
$pdata$??$exchange@PEAU_Iterator_base12@std@@$$T@std@@YAPEAU_Iterator_base12@0@AEAPEAU10@$$QEA$$T@Z DD imagerel $LN4
	DD	imagerel $LN4+85
	DD	imagerel $unwind$??$exchange@PEAU_Iterator_base12@std@@$$T@std@@YAPEAU_Iterator_base12@0@AEAPEAU10@$$QEA$$T@Z
pdata	ENDS
;	COMDAT pdata
pdata	SEGMENT
$pdata$?_Release@_Basic_container_proxy_ptr12@std@@QEAAXXZ DD imagerel $LN4
	DD	imagerel $LN4+56
	DD	imagerel $unwind$?_Release@_Basic_container_proxy_ptr12@std@@QEAAXXZ
pdata	ENDS
;	COMDAT pdata
pdata	SEGMENT
$pdata$??0_Basic_container_proxy_ptr12@std@@IEAA@XZ DD imagerel $LN4
	DD	imagerel $LN4+63
	DD	imagerel $unwind$??0_Basic_container_proxy_ptr12@std@@IEAA@XZ
pdata	ENDS
;	COMDAT pdata
pdata	SEGMENT
$pdata$??$addressof@U_Container_base12@std@@@std@@YAPEAU_Container_base12@0@AEAU10@@Z DD imagerel $LN4
	DD	imagerel $LN4+49
	DD	imagerel $unwind$??$addressof@U_Container_base12@std@@@std@@YAPEAU_Container_base12@0@AEAU10@@Z
pdata	ENDS
;	COMDAT pdata
pdata	SEGMENT
$pdata$??$_Construct_in_place@U_Container_proxy@std@@PEAU_Container_base12@2@@std@@YAXAEAU_Container_proxy@0@$$QEAPEAU_Container_base12@0@@Z DD imagerel $LN6
	DD	imagerel $LN6+144
	DD	imagerel $unwind$??$_Construct_in_place@U_Container_proxy@std@@PEAU_Container_base12@2@@std@@YAXAEAU_Container_proxy@0@$$QEAPEAU_Container_base12@0@@Z
pdata	ENDS
;	COMDAT pdata
pdata	SEGMENT
$pdata$?_Xlen_string@std@@YAXXZ DD imagerel $LN3
	DD	imagerel $LN3+51
	DD	imagerel $unwind$?_Xlen_string@std@@YAXXZ
pdata	ENDS
;	COMDAT pdata
pdata	SEGMENT
$pdata$??0?$allocator@D@std@@QEAA@XZ DD imagerel $LN4
	DD	imagerel $LN4+49
	DD	imagerel $unwind$??0?$allocator@D@std@@QEAA@XZ
pdata	ENDS
;	COMDAT pdata
pdata	SEGMENT
$pdata$?deallocate@?$allocator@D@std@@QEAAXQEAD_K@Z DD imagerel $LN6
	DD	imagerel $LN6+158
	DD	imagerel $unwind$?deallocate@?$allocator@D@std@@QEAAXQEAD_K@Z
pdata	ENDS
;	COMDAT pdata
pdata	SEGMENT
$pdata$?allocate@?$allocator@D@std@@QEAAPEAD_K@Z DD imagerel $LN3
	DD	imagerel $LN3+67
	DD	imagerel $unwind$?allocate@?$allocator@D@std@@QEAAPEAD_K@Z
pdata	ENDS
;	COMDAT pdata
pdata	SEGMENT
$pdata$?max_size@?$_Default_allocator_traits@V?$allocator@D@std@@@std@@SA_KAEBV?$allocator@D@2@@Z DD imagerel $LN4
	DD	imagerel $LN4+49
	DD	imagerel $unwind$?max_size@?$_Default_allocator_traits@V?$allocator@D@std@@@std@@SA_KAEBV?$allocator@D@2@@Z
pdata	ENDS
;	COMDAT pdata
pdata	SEGMENT
$pdata$??0?$_String_val@U?$_Simple_types@D@std@@@std@@QEAA@XZ DD imagerel $LN4
	DD	imagerel $LN4+112
	DD	imagerel $unwind$??0?$_String_val@U?$_Simple_types@D@std@@@std@@QEAA@XZ
pdata	ENDS
;	COMDAT pdata
pdata	SEGMENT
$pdata$?_Myptr@?$_String_val@U?$_Simple_types@D@std@@@std@@QEAAPEADXZ DD imagerel $LN5
	DD	imagerel $LN5+100
	DD	imagerel $unwind$?_Myptr@?$_String_val@U?$_Simple_types@D@std@@@std@@QEAAPEADXZ
pdata	ENDS
;	COMDAT pdata
pdata	SEGMENT
$pdata$?_Myptr@?$_String_val@U?$_Simple_types@D@std@@@std@@QEBAPEBDXZ DD imagerel $LN5
	DD	imagerel $LN5+100
	DD	imagerel $unwind$?_Myptr@?$_String_val@U?$_Simple_types@D@std@@@std@@QEBAPEBDXZ
pdata	ENDS
;	COMDAT pdata
pdata	SEGMENT
$pdata$?_Large_mode_engaged@?$_String_val@U?$_Simple_types@D@std@@@std@@QEBA_NXZ DD imagerel $LN6
	DD	imagerel $LN6+85
	DD	imagerel $unwind$?_Large_mode_engaged@?$_String_val@U?$_Simple_types@D@std@@@std@@QEBA_NXZ
pdata	ENDS
;	COMDAT pdata
pdata	SEGMENT
$pdata$?_Activate_SSO_buffer@?$_String_val@U?$_Simple_types@D@std@@@std@@QEAAXXZ DD imagerel $LN8
	DD	imagerel $LN8+105
	DD	imagerel $unwind$?_Activate_SSO_buffer@?$_String_val@U?$_Simple_types@D@std@@@std@@QEAAXXZ
pdata	ENDS
;	COMDAT pdata
pdata	SEGMENT
$pdata$??0_Bxty@?$_String_val@U?$_Simple_types@D@std@@@std@@QEAA@XZ DD imagerel $LN4
	DD	imagerel $LN4+72
	DD	imagerel $unwind$??0_Bxty@?$_String_val@U?$_Simple_types@D@std@@@std@@QEAA@XZ
pdata	ENDS
;	COMDAT pdata
pdata	SEGMENT
$pdata$??1_Bxty@?$_String_val@U?$_Simple_types@D@std@@@std@@QEAA@XZ DD imagerel $LN4
	DD	imagerel $LN4+42
	DD	imagerel $unwind$??1_Bxty@?$_String_val@U?$_Simple_types@D@std@@@std@@QEAA@XZ
pdata	ENDS
;	COMDAT pdata
pdata	SEGMENT
$pdata$?_Switch_to_buf@_Bxty@?$_String_val@U?$_Simple_types@D@std@@@std@@QEAAXXZ DD imagerel $LN8
	DD	imagerel $LN8+120
	DD	imagerel $unwind$?_Switch_to_buf@_Bxty@?$_String_val@U?$_Simple_types@D@std@@@std@@QEAAXXZ
pdata	ENDS
;	COMDAT pdata
pdata	SEGMENT
$pdata$??1?$_String_val@U?$_Simple_types@D@std@@@std@@QEAA@XZ DD imagerel $LN4
	DD	imagerel $LN4+49
	DD	imagerel $unwind$??1?$_String_val@U?$_Simple_types@D@std@@@std@@QEAA@XZ
pdata	ENDS
;	COMDAT pdata
pdata	SEGMENT
$pdata$??0?$basic_string@DU?$char_traits@D@std@@V?$allocator@D@2@@std@@QEAA@QEBD@Z DD imagerel $LN4
	DD	imagerel $LN4+131
	DD	imagerel $unwind$??0?$basic_string@DU?$char_traits@D@std@@V?$allocator@D@2@@std@@QEAA@QEBD@Z
pdata	ENDS
;	COMDAT pdata
pdata	SEGMENT
$pdata$?dtor$0@?0???0?$basic_string@DU?$char_traits@D@std@@V?$allocator@D@2@@std@@QEAA@QEBD@Z@4HA DD imagerel ?dtor$0@?0???0?$basic_string@DU?$char_traits@D@std@@V?$allocator@D@2@@std@@QEAA@QEBD@Z@4HA
	DD	imagerel ?dtor$0@?0???0?$basic_string@DU?$char_traits@D@std@@V?$allocator@D@2@@std@@QEAA@QEBD@Z@4HA+39
	DD	imagerel $unwind$?dtor$0@?0???0?$basic_string@DU?$char_traits@D@std@@V?$allocator@D@2@@std@@QEAA@QEBD@Z@4HA
pdata	ENDS
;	COMDAT pdata
pdata	SEGMENT
$pdata$?_Deallocate_for_capacity@?$basic_string@DU?$char_traits@D@std@@V?$allocator@D@2@@std@@CAXAEAV?$allocator@D@2@QEAD_K@Z DD imagerel $LN4
	DD	imagerel $LN4+85
	DD	imagerel $unwind$?_Deallocate_for_capacity@?$basic_string@DU?$char_traits@D@std@@V?$allocator@D@2@@std@@CAXAEAV?$allocator@D@2@QEAD_K@Z
pdata	ENDS
;	COMDAT pdata
pdata	SEGMENT
$pdata$??0?$basic_string@DU?$char_traits@D@std@@V?$allocator@D@2@@std@@QEAA@$$QEAV01@@Z DD imagerel $LN4
	DD	imagerel $LN4+204
	DD	imagerel $unwind$??0?$basic_string@DU?$char_traits@D@std@@V?$allocator@D@2@@std@@QEAA@$$QEAV01@@Z
pdata	ENDS
;	COMDAT pdata
pdata	SEGMENT
$pdata$?_Take_contents@?$basic_string@DU?$char_traits@D@std@@V?$allocator@D@2@@std@@AEAAXAEAV12@@Z DD imagerel $LN9
	DD	imagerel $LN9+532
	DD	imagerel $unwind$?_Take_contents@?$basic_string@DU?$char_traits@D@std@@V?$allocator@D@2@@std@@AEAAXAEAV12@@Z
pdata	ENDS
;	COMDAT pdata
pdata	SEGMENT
$pdata$??1?$basic_string@DU?$char_traits@D@std@@V?$allocator@D@2@@std@@QEAA@XZ DD imagerel $LN4
	DD	imagerel $LN4+211
	DD	imagerel $unwind$??1?$basic_string@DU?$char_traits@D@std@@V?$allocator@D@2@@std@@QEAA@XZ
pdata	ENDS
;	COMDAT pdata
pdata	SEGMENT
$pdata$?append@?$basic_string@DU?$char_traits@D@std@@V?$allocator@D@2@@std@@QEAAAEAV12@QEBD@Z DD imagerel $LN3
	DD	imagerel $LN3+89
	DD	imagerel $unwind$?append@?$basic_string@DU?$char_traits@D@std@@V?$allocator@D@2@@std@@QEAAAEAV12@QEBD@Z
pdata	ENDS
;	COMDAT pdata
pdata	SEGMENT
$pdata$?c_str@?$basic_string@DU?$char_traits@D@std@@V?$allocator@D@2@@std@@QEBAPEBDXZ DD imagerel $LN4
	DD	imagerel $LN4+57
	DD	imagerel $unwind$?c_str@?$basic_string@DU?$char_traits@D@std@@V?$allocator@D@2@@std@@QEBAPEBDXZ
pdata	ENDS
;	COMDAT pdata
pdata	SEGMENT
$pdata$?max_size@?$basic_string@DU?$char_traits@D@std@@V?$allocator@D@2@@std@@QEBA_KXZ DD imagerel $LN4
	DD	imagerel $LN4+224
	DD	imagerel $unwind$?max_size@?$basic_string@DU?$char_traits@D@std@@V?$allocator@D@2@@std@@QEBA_KXZ
pdata	ENDS
;	COMDAT pdata
pdata	SEGMENT
$pdata$?_Calculate_growth@?$basic_string@DU?$char_traits@D@std@@V?$allocator@D@2@@std@@CA_K_K00@Z DD imagerel $LN6
	DD	imagerel $LN6+272
	DD	imagerel $unwind$?_Calculate_growth@?$basic_string@DU?$char_traits@D@std@@V?$allocator@D@2@@std@@CA_K_K00@Z
pdata	ENDS
;	COMDAT pdata
pdata	SEGMENT
$pdata$?_Calculate_growth@?$basic_string@DU?$char_traits@D@std@@V?$allocator@D@2@@std@@AEBA_K_K@Z DD imagerel $LN4
	DD	imagerel $LN4+110
	DD	imagerel $unwind$?_Calculate_growth@?$basic_string@DU?$char_traits@D@std@@V?$allocator@D@2@@std@@AEBA_K_K@Z
pdata	ENDS
;	COMDAT pdata
pdata	SEGMENT
$pdata$?_Tidy_deallocate@?$basic_string@DU?$char_traits@D@std@@V?$allocator@D@2@@std@@AEAAXXZ DD imagerel $LN5
	DD	imagerel $LN5+203
	DD	imagerel $unwind$?_Tidy_deallocate@?$basic_string@DU?$char_traits@D@std@@V?$allocator@D@2@@std@@AEAAXXZ
pdata	ENDS
;	COMDAT pdata
pdata	SEGMENT
$pdata$?_Swap_proxy_and_iterators@?$basic_string@DU?$char_traits@D@std@@V?$allocator@D@2@@std@@AEAAXAEAV12@@Z DD imagerel $LN4
	DD	imagerel $LN4+84
	DD	imagerel $unwind$?_Swap_proxy_and_iterators@?$basic_string@DU?$char_traits@D@std@@V?$allocator@D@2@@std@@AEAAXAEAV12@@Z
pdata	ENDS
;	COMDAT pdata
pdata	SEGMENT
$pdata$?_Getal@?$basic_string@DU?$char_traits@D@std@@V?$allocator@D@2@@std@@AEAAAEAV?$allocator@D@2@XZ DD imagerel $LN4
	DD	imagerel $LN4+57
	DD	imagerel $unwind$?_Getal@?$basic_string@DU?$char_traits@D@std@@V?$allocator@D@2@@std@@AEAAAEAV?$allocator@D@2@XZ
pdata	ENDS
;	COMDAT pdata
pdata	SEGMENT
$pdata$?_Getal@?$basic_string@DU?$char_traits@D@std@@V?$allocator@D@2@@std@@AEBAAEBV?$allocator@D@2@XZ DD imagerel $LN4
	DD	imagerel $LN4+57
	DD	imagerel $unwind$?_Getal@?$basic_string@DU?$char_traits@D@std@@V?$allocator@D@2@@std@@AEBAAEBV?$allocator@D@2@XZ
pdata	ENDS
;	COMDAT pdata
pdata	SEGMENT
$pdata$?_Get_first@?$_Compressed_pair@V?$allocator@D@std@@V?$_String_val@U?$_Simple_types@D@std@@@2@$00@std@@QEAAAEAV?$allocator@D@2@XZ DD imagerel $LN4
	DD	imagerel $LN4+49
	DD	imagerel $unwind$?_Get_first@?$_Compressed_pair@V?$allocator@D@std@@V?$_String_val@U?$_Simple_types@D@std@@@2@$00@std@@QEAAAEAV?$allocator@D@2@XZ
pdata	ENDS
;	COMDAT pdata
pdata	SEGMENT
$pdata$?_Get_first@?$_Compressed_pair@V?$allocator@D@std@@V?$_String_val@U?$_Simple_types@D@std@@@2@$00@std@@QEBAAEBV?$allocator@D@2@XZ DD imagerel $LN4
	DD	imagerel $LN4+49
	DD	imagerel $unwind$?_Get_first@?$_Compressed_pair@V?$allocator@D@std@@V?$_String_val@U?$_Simple_types@D@std@@@2@$00@std@@QEBAAEBV?$allocator@D@2@XZ
pdata	ENDS
;	COMDAT pdata
pdata	SEGMENT
$pdata$??1?$_Compressed_pair@V?$allocator@D@std@@V?$_String_val@U?$_Simple_types@D@std@@@2@$00@std@@QEAA@XZ DD imagerel $LN4
	DD	imagerel $LN4+45
	DD	imagerel $unwind$??1?$_Compressed_pair@V?$allocator@D@std@@V?$_String_val@U?$_Simple_types@D@std@@@2@$00@std@@QEAA@XZ
pdata	ENDS
;	COMDAT pdata
pdata	SEGMENT
$pdata$?_Maklocwcs@std@@YAPEA_WPEB_W@Z DD imagerel $LN4
	DD	imagerel $LN4+145
	DD	imagerel $unwind$?_Maklocwcs@std@@YAPEA_WPEB_W@Z
pdata	ENDS
;	COMDAT pdata
pdata	SEGMENT
$pdata$??$_Max_limit@_J@std@@YA_JXZ DD imagerel $LN4
	DD	imagerel $LN4+56
	DD	imagerel $unwind$??$_Max_limit@_J@std@@YA_JXZ
pdata	ENDS
;	COMDAT pdata
pdata	SEGMENT
$pdata$?WriteMessage@Logger@CppUnitTestFramework@VisualStudio@Microsoft@@SAXPEBD@Z DD imagerel $LN3
	DD	imagerel $LN3+55
	DD	imagerel $unwind$?WriteMessage@Logger@CppUnitTestFramework@VisualStudio@Microsoft@@SAXPEBD@Z
pdata	ENDS
;	COMDAT pdata
pdata	SEGMENT
$pdata$??0TestClassImpl@CppUnitTestFramework@VisualStudio@Microsoft@@QEAA@XZ DD imagerel $LN3
	DD	imagerel $LN3+66
	DD	imagerel $unwind$??0TestClassImpl@CppUnitTestFramework@VisualStudio@Microsoft@@QEAA@XZ
pdata	ENDS
;	COMDAT pdata
pdata	SEGMENT
$pdata$??1TestClassImpl@CppUnitTestFramework@VisualStudio@Microsoft@@UEAA@XZ DD imagerel $LN3
	DD	imagerel $LN3+59
	DD	imagerel $unwind$??1TestClassImpl@CppUnitTestFramework@VisualStudio@Microsoft@@UEAA@XZ
pdata	ENDS
;	COMDAT pdata
pdata	SEGMENT
$pdata$??0CrtHandlersSetter@TestClassImpl@CppUnitTestFramework@VisualStudio@Microsoft@@QEAA@XZ DD imagerel $LN4
	DD	imagerel $LN4+163
	DD	imagerel $unwind$??0CrtHandlersSetter@TestClassImpl@CppUnitTestFramework@VisualStudio@Microsoft@@QEAA@XZ
pdata	ENDS
;	COMDAT pdata
pdata	SEGMENT
$pdata$??1CrtHandlersSetter@TestClassImpl@CppUnitTestFramework@VisualStudio@Microsoft@@QEAA@XZ DD imagerel $LN5
	DD	imagerel $LN5+121
	DD	imagerel $unwind$??1CrtHandlersSetter@TestClassImpl@CppUnitTestFramework@VisualStudio@Microsoft@@QEAA@XZ
pdata	ENDS
;	COMDAT pdata
pdata	SEGMENT
$pdata$??_GTestClassImpl@CppUnitTestFramework@VisualStudio@Microsoft@@UEAAPEAXI@Z DD imagerel $LN4
	DD	imagerel $LN4+84
	DD	imagerel $unwind$??_GTestClassImpl@CppUnitTestFramework@VisualStudio@Microsoft@@UEAAPEAXI@Z
pdata	ENDS
;	COMDAT pdata
pdata	SEGMENT
$pdata$??$_Getvals@_W@?$time_get@DV?$istreambuf_iterator@DU?$char_traits@D@std@@@std@@@std@@IEAAX_WAEBV_Locinfo@1@@Z DD imagerel $LN3
	DD	imagerel $LN3+182
	DD	imagerel $unwind$??$_Getvals@_W@?$time_get@DV?$istreambuf_iterator@DU?$char_traits@D@std@@@std@@@std@@IEAAX_WAEBV_Locinfo@1@@Z
pdata	ENDS
;	COMDAT pdata
pdata	SEGMENT
$pdata$??$_Getvals@_W@?$time_get@_WV?$istreambuf_iterator@_WU?$char_traits@_W@std@@@std@@@std@@IEAAX_WAEBV_Locinfo@1@@Z DD imagerel $LN3
	DD	imagerel $LN3+182
	DD	imagerel $unwind$??$_Getvals@_W@?$time_get@_WV?$istreambuf_iterator@_WU?$char_traits@_W@std@@@std@@@std@@IEAAX_WAEBV_Locinfo@1@@Z
pdata	ENDS
;	COMDAT pdata
pdata	SEGMENT
$pdata$??$max@_K@std@@YAAEB_KAEB_K0@Z DD imagerel $LN6
	DD	imagerel $LN6+120
	DD	imagerel $unwind$??$max@_K@std@@YAAEB_KAEB_K0@Z
pdata	ENDS
;	COMDAT pdata
pdata	SEGMENT
$pdata$??$?HDU?$char_traits@D@std@@V?$allocator@D@1@@std@@YA?AV?$basic_string@DU?$char_traits@D@std@@V?$allocator@D@2@@0@$$QEAV10@QEBD@Z DD imagerel $LN5
	DD	imagerel $LN5+118
	DD	imagerel $unwind$??$?HDU?$char_traits@D@std@@V?$allocator@D@1@@std@@YA?AV?$basic_string@DU?$char_traits@D@std@@V?$allocator@D@2@@0@$$QEAV10@QEBD@Z
pdata	ENDS
;	COMDAT pdata
pdata	SEGMENT
$pdata$?__New@?$TestClass@Vui512_stub_testing@ui512_Unit_Tests@@@CppUnitTestFramework@VisualStudio@Microsoft@@SAPEAVTestClassImpl@234@XZ DD imagerel $LN7
	DD	imagerel $LN7+238
	DD	imagerel $unwind$?__New@?$TestClass@Vui512_stub_testing@ui512_Unit_Tests@@@CppUnitTestFramework@VisualStudio@Microsoft@@SAPEAVTestClassImpl@234@XZ
pdata	ENDS
;	COMDAT pdata
pdata	SEGMENT
$pdata$?dtor$0@?0??__New@?$TestClass@Vui512_stub_testing@ui512_Unit_Tests@@@CppUnitTestFramework@VisualStudio@Microsoft@@SAPEAVTestClassImpl@234@XZ@4HA DD imagerel ?dtor$0@?0??__New@?$TestClass@Vui512_stub_testing@ui512_Unit_Tests@@@CppUnitTestFramework@VisualStudio@Microsoft@@SAPEAVTestClassImpl@234@XZ@4HA
	DD	imagerel ?dtor$0@?0??__New@?$TestClass@Vui512_stub_testing@ui512_Unit_Tests@@@CppUnitTestFramework@VisualStudio@Microsoft@@SAPEAVTestClassImpl@234@XZ@4HA+36
	DD	imagerel $unwind$?dtor$0@?0??__New@?$TestClass@Vui512_stub_testing@ui512_Unit_Tests@@@CppUnitTestFramework@VisualStudio@Microsoft@@SAPEAVTestClassImpl@234@XZ@4HA
pdata	ENDS
;	COMDAT pdata
pdata	SEGMENT
$pdata$?dtor$1@?0??__New@?$TestClass@Vui512_stub_testing@ui512_Unit_Tests@@@CppUnitTestFramework@VisualStudio@Microsoft@@SAPEAVTestClassImpl@234@XZ@4HA DD imagerel ?dtor$1@?0??__New@?$TestClass@Vui512_stub_testing@ui512_Unit_Tests@@@CppUnitTestFramework@VisualStudio@Microsoft@@SAPEAVTestClassImpl@234@XZ@4HA
	DD	imagerel ?dtor$1@?0??__New@?$TestClass@Vui512_stub_testing@ui512_Unit_Tests@@@CppUnitTestFramework@VisualStudio@Microsoft@@SAPEAVTestClassImpl@234@XZ@4HA+44
	DD	imagerel $unwind$?dtor$1@?0??__New@?$TestClass@Vui512_stub_testing@ui512_Unit_Tests@@@CppUnitTestFramework@VisualStudio@Microsoft@@SAPEAVTestClassImpl@234@XZ@4HA
pdata	ENDS
;	COMDAT pdata
pdata	SEGMENT
$pdata$?__Delete@?$TestClass@Vui512_stub_testing@ui512_Unit_Tests@@@CppUnitTestFramework@VisualStudio@Microsoft@@SAXPEAVTestClassImpl@234@@Z DD imagerel $LN6
	DD	imagerel $LN6+217
	DD	imagerel $unwind$?__Delete@?$TestClass@Vui512_stub_testing@ui512_Unit_Tests@@@CppUnitTestFramework@VisualStudio@Microsoft@@SAXPEAVTestClassImpl@234@@Z
pdata	ENDS
;	COMDAT pdata
pdata	SEGMENT
$pdata$?dtor$0@?0??__Delete@?$TestClass@Vui512_stub_testing@ui512_Unit_Tests@@@CppUnitTestFramework@VisualStudio@Microsoft@@SAXPEAVTestClassImpl@234@@Z@4HA DD imagerel ?dtor$0@?0??__Delete@?$TestClass@Vui512_stub_testing@ui512_Unit_Tests@@@CppUnitTestFramework@VisualStudio@Microsoft@@SAXPEAVTestClassImpl@234@@Z@4HA
	DD	imagerel ?dtor$0@?0??__Delete@?$TestClass@Vui512_stub_testing@ui512_Unit_Tests@@@CppUnitTestFramework@VisualStudio@Microsoft@@SAXPEAVTestClassImpl@234@@Z@4HA+36
	DD	imagerel $unwind$?dtor$0@?0??__Delete@?$TestClass@Vui512_stub_testing@ui512_Unit_Tests@@@CppUnitTestFramework@VisualStudio@Microsoft@@SAXPEAVTestClassImpl@234@@Z@4HA
pdata	ENDS
;	COMDAT pdata
pdata	SEGMENT
$pdata$??1?$TestClass@Vui512_stub_testing@ui512_Unit_Tests@@@CppUnitTestFramework@VisualStudio@Microsoft@@UEAA@XZ DD imagerel $LN4
	DD	imagerel $LN4+72
	DD	imagerel $unwind$??1?$TestClass@Vui512_stub_testing@ui512_Unit_Tests@@@CppUnitTestFramework@VisualStudio@Microsoft@@UEAA@XZ
pdata	ENDS
;	COMDAT pdata
pdata	SEGMENT
$pdata$?__Invoke@?$TestClass@Vui512_stub_testing@ui512_Unit_Tests@@@CppUnitTestFramework@VisualStudio@Microsoft@@UEAAXP8TestClassImpl@234@EAAXXZ@Z DD imagerel $LN4
	DD	imagerel $LN4+162
	DD	imagerel $unwind$?__Invoke@?$TestClass@Vui512_stub_testing@ui512_Unit_Tests@@@CppUnitTestFramework@VisualStudio@Microsoft@@UEAAXP8TestClassImpl@234@EAAXXZ@Z
pdata	ENDS
;	COMDAT pdata
pdata	SEGMENT
$pdata$?dtor$0@?0??__Invoke@?$TestClass@Vui512_stub_testing@ui512_Unit_Tests@@@CppUnitTestFramework@VisualStudio@Microsoft@@UEAAXP8TestClassImpl@234@EAAXXZ@Z@4HA DD imagerel ?dtor$0@?0??__Invoke@?$TestClass@Vui512_stub_testing@ui512_Unit_Tests@@@CppUnitTestFramework@VisualStudio@Microsoft@@UEAAXP8TestClassImpl@234@EAAXXZ@Z@4HA
	DD	imagerel ?dtor$0@?0??__Invoke@?$TestClass@Vui512_stub_testing@ui512_Unit_Tests@@@CppUnitTestFramework@VisualStudio@Microsoft@@UEAAXP8TestClassImpl@234@EAAXXZ@Z@4HA+36
	DD	imagerel $unwind$?dtor$0@?0??__Invoke@?$TestClass@Vui512_stub_testing@ui512_Unit_Tests@@@CppUnitTestFramework@VisualStudio@Microsoft@@UEAAXP8TestClassImpl@234@EAAXXZ@Z@4HA
pdata	ENDS
;	COMDAT pdata
pdata	SEGMENT
$pdata$?__GetTestClassInfo@?$TestClass@Vui512_stub_testing@ui512_Unit_Tests@@@CppUnitTestFramework@VisualStudio@Microsoft@@SAPEBUTestClassInfo@234@XZ DD imagerel $LN3
	DD	imagerel $LN3+45
	DD	imagerel $unwind$?__GetTestClassInfo@?$TestClass@Vui512_stub_testing@ui512_Unit_Tests@@@CppUnitTestFramework@VisualStudio@Microsoft@@SAPEBUTestClassInfo@234@XZ
pdata	ENDS
;	COMDAT pdata
pdata	SEGMENT
$pdata$?__GetTestVersion@?$TestClass@Vui512_stub_testing@ui512_Unit_Tests@@@CppUnitTestFramework@VisualStudio@Microsoft@@SAPEBUTestDataVersion@234@XZ DD imagerel $LN3
	DD	imagerel $LN3+45
	DD	imagerel $unwind$?__GetTestVersion@?$TestClass@Vui512_stub_testing@ui512_Unit_Tests@@@CppUnitTestFramework@VisualStudio@Microsoft@@SAPEBUTestDataVersion@234@XZ
pdata	ENDS
;	COMDAT pdata
pdata	SEGMENT
$pdata$??0?$TestClass@Vui512_stub_testing@ui512_Unit_Tests@@@CppUnitTestFramework@VisualStudio@Microsoft@@QEAA@XZ DD imagerel $LN4
	DD	imagerel $LN4+66
	DD	imagerel $unwind$??0?$TestClass@Vui512_stub_testing@ui512_Unit_Tests@@@CppUnitTestFramework@VisualStudio@Microsoft@@QEAA@XZ
pdata	ENDS
;	COMDAT pdata
pdata	SEGMENT
$pdata$??_G?$TestClass@Vui512_stub_testing@ui512_Unit_Tests@@@CppUnitTestFramework@VisualStudio@Microsoft@@UEAAPEAXI@Z DD imagerel $LN4
	DD	imagerel $LN4+84
	DD	imagerel $unwind$??_G?$TestClass@Vui512_stub_testing@ui512_Unit_Tests@@@CppUnitTestFramework@VisualStudio@Microsoft@@UEAAPEAXI@Z
pdata	ENDS
;	COMDAT pdata
pdata	SEGMENT
$pdata$?__GetTestMethodInfo_ui512_01@ui512_stub_testing@ui512_Unit_Tests@@CAPEBUMemberMethodInfo@CppUnitTestFramework@VisualStudio@Microsoft@@XZ DD imagerel $LN3
	DD	imagerel $LN3+71
	DD	imagerel $unwind$?__GetTestMethodInfo_ui512_01@ui512_stub_testing@ui512_Unit_Tests@@CAPEBUMemberMethodInfo@CppUnitTestFramework@VisualStudio@Microsoft@@XZ
pdata	ENDS
;	COMDAT pdata
pdata	SEGMENT
$pdata$?ui512_01@ui512_stub_testing@ui512_Unit_Tests@@AEAAXXZ DD imagerel $LN6
	DD	imagerel $LN6+280
	DD	imagerel $unwind$?ui512_01@ui512_stub_testing@ui512_Unit_Tests@@AEAAXXZ
pdata	ENDS
;	COMDAT pdata
pdata	SEGMENT
$pdata$?dtor$0@?0??ui512_01@ui512_stub_testing@ui512_Unit_Tests@@AEAAXXZ@4HA DD imagerel ?dtor$0@?0??ui512_01@ui512_stub_testing@ui512_Unit_Tests@@AEAAXXZ@4HA
	DD	imagerel ?dtor$0@?0??ui512_01@ui512_stub_testing@ui512_Unit_Tests@@AEAAXXZ@4HA+39
	DD	imagerel $unwind$?dtor$0@?0??ui512_01@ui512_stub_testing@ui512_Unit_Tests@@AEAAXXZ@4HA
pdata	ENDS
;	COMDAT pdata
pdata	SEGMENT
$pdata$?dtor$1@?0??ui512_01@ui512_stub_testing@ui512_Unit_Tests@@AEAAXXZ@4HA DD imagerel ?dtor$1@?0??ui512_01@ui512_stub_testing@ui512_Unit_Tests@@AEAAXXZ@4HA
	DD	imagerel ?dtor$1@?0??ui512_01@ui512_stub_testing@ui512_Unit_Tests@@AEAAXXZ@4HA+39
	DD	imagerel $unwind$?dtor$1@?0??ui512_01@ui512_stub_testing@ui512_Unit_Tests@@AEAAXXZ@4HA
pdata	ENDS
;	COMDAT pdata
pdata	SEGMENT
$pdata$?dtor$2@?0??ui512_01@ui512_stub_testing@ui512_Unit_Tests@@AEAAXXZ@4HA DD imagerel ?dtor$2@?0??ui512_01@ui512_stub_testing@ui512_Unit_Tests@@AEAAXXZ@4HA
	DD	imagerel ?dtor$2@?0??ui512_01@ui512_stub_testing@ui512_Unit_Tests@@AEAAXXZ@4HA+36
	DD	imagerel $unwind$?dtor$2@?0??ui512_01@ui512_stub_testing@ui512_Unit_Tests@@AEAAXXZ@4HA
pdata	ENDS
;	COMDAT pdata
pdata	SEGMENT
$pdata$??0ui512_stub_testing@ui512_Unit_Tests@@QEAA@XZ DD imagerel $LN4
	DD	imagerel $LN4+66
	DD	imagerel $unwind$??0ui512_stub_testing@ui512_Unit_Tests@@QEAA@XZ
pdata	ENDS
;	COMDAT pdata
pdata	SEGMENT
$pdata$??1ui512_stub_testing@ui512_Unit_Tests@@UEAA@XZ DD imagerel $LN4
	DD	imagerel $LN4+42
	DD	imagerel $unwind$??1ui512_stub_testing@ui512_Unit_Tests@@UEAA@XZ
pdata	ENDS
;	COMDAT pdata
pdata	SEGMENT
$pdata$??_Gui512_stub_testing@ui512_Unit_Tests@@UEAAPEAXI@Z DD imagerel $LN4
	DD	imagerel $LN4+84
	DD	imagerel $unwind$??_Gui512_stub_testing@ui512_Unit_Tests@@UEAAPEAXI@Z
pdata	ENDS
;	COMDAT pdata
pdata	SEGMENT
$pdata$??$_Convert_size@_K_K@std@@YA_K_K@Z DD imagerel $LN4
	DD	imagerel $LN4+49
	DD	imagerel $unwind$??$_Convert_size@_K_K@std@@YA_K_K@Z
pdata	ENDS
;	COMDAT pdata
pdata	SEGMENT
$pdata$??$_Construct@$00PEBD@?$basic_string@DU?$char_traits@D@std@@V?$allocator@D@2@@std@@AEAAXQEBD_K@Z DD imagerel $LN7
	DD	imagerel $LN7+556
	DD	imagerel $unwind$??$_Construct@$00PEBD@?$basic_string@DU?$char_traits@D@std@@V?$allocator@D@2@@std@@AEAAXQEBD_K@Z
pdata	ENDS
;	COMDAT pdata
pdata	SEGMENT
$pdata$?dtor$0@?0???$_Construct@$00PEBD@?$basic_string@DU?$char_traits@D@std@@V?$allocator@D@2@@std@@AEAAXQEBD_K@Z@4HA DD imagerel ?dtor$0@?0???$_Construct@$00PEBD@?$basic_string@DU?$char_traits@D@std@@V?$allocator@D@2@@std@@AEAAXQEBD_K@Z@4HA
	DD	imagerel ?dtor$0@?0???$_Construct@$00PEBD@?$basic_string@DU?$char_traits@D@std@@V?$allocator@D@2@@std@@AEAAXQEBD_K@Z@4HA+36
	DD	imagerel $unwind$?dtor$0@?0???$_Construct@$00PEBD@?$basic_string@DU?$char_traits@D@std@@V?$allocator@D@2@@std@@AEAAXQEBD_K@Z@4HA
pdata	ENDS
;	COMDAT pdata
pdata	SEGMENT
$pdata$?deallocate@?$allocator@U_Container_proxy@std@@@std@@QEAAXQEAU_Container_proxy@2@_K@Z DD imagerel $LN6
	DD	imagerel $LN6+162
	DD	imagerel $unwind$?deallocate@?$allocator@U_Container_proxy@std@@@std@@QEAAXQEAU_Container_proxy@2@_K@Z
pdata	ENDS
;	COMDAT pdata
pdata	SEGMENT
$pdata$?allocate@?$allocator@U_Container_proxy@std@@@std@@QEAAPEAU_Container_proxy@2@_K@Z DD imagerel $LN3
	DD	imagerel $LN3+67
	DD	imagerel $unwind$?allocate@?$allocator@U_Container_proxy@std@@@std@@QEAAPEAU_Container_proxy@2@_K@Z
pdata	ENDS
;	COMDAT pdata
pdata	SEGMENT
$pdata$??$_Delete_plain_internal@V?$allocator@U_Container_proxy@std@@@std@@@std@@YAXAEAV?$allocator@U_Container_proxy@std@@@0@QEAU_Container_proxy@0@@Z DD imagerel $LN4
	DD	imagerel $LN4+67
	DD	imagerel $unwind$??$_Delete_plain_internal@V?$allocator@U_Container_proxy@std@@@std@@@std@@YAXAEAV?$allocator@U_Container_proxy@std@@@0@QEAU_Container_proxy@0@@Z
pdata	ENDS
;	COMDAT pdata
pdata	SEGMENT
$pdata$??$_Alloc_proxy@V?$allocator@U_Container_proxy@std@@@std@@@_Container_base12@std@@QEAAX$$QEAV?$allocator@U_Container_proxy@std@@@1@@Z DD imagerel $LN3
	DD	imagerel $LN3+135
	DD	imagerel $unwind$??$_Alloc_proxy@V?$allocator@U_Container_proxy@std@@@std@@@_Container_base12@std@@QEAAX$$QEAV?$allocator@U_Container_proxy@std@@@1@@Z
pdata	ENDS
;	COMDAT pdata
pdata	SEGMENT
$pdata$??$_Append@D@?$basic_string@DU?$char_traits@D@std@@V?$allocator@D@2@@std@@AEAAAEAV01@QEBD_K@Z DD imagerel $LN4
	DD	imagerel $LN4+287
	DD	imagerel $unwind$??$_Append@D@?$basic_string@DU?$char_traits@D@std@@V?$allocator@D@2@@std@@AEAAAEAV01@QEBD_K@Z
pdata	ENDS
;	COMDAT pdata
pdata	SEGMENT
$pdata$??$_Get_proxy_allocator@V?$allocator@D@std@@@std@@YA?AV?$allocator@U_Container_proxy@std@@@0@AEBV?$allocator@D@0@@Z DD imagerel $LN4
	DD	imagerel $LN4+74
	DD	imagerel $unwind$??$_Get_proxy_allocator@V?$allocator@D@std@@@std@@YA?AV?$allocator@U_Container_proxy@std@@@0@AEBV?$allocator@D@0@@Z
pdata	ENDS
;	COMDAT pdata
pdata	SEGMENT
$pdata$??$?0D@?$allocator@U_Container_proxy@std@@@std@@QEAA@AEBV?$allocator@D@1@@Z DD imagerel $LN4
	DD	imagerel $LN4+54
	DD	imagerel $unwind$??$?0D@?$allocator@U_Container_proxy@std@@@std@@QEAA@AEBV?$allocator@D@1@@Z
pdata	ENDS
;	COMDAT pdata
pdata	SEGMENT
$pdata$??$?0V?$allocator@D@std@@$$V@?$_Compressed_pair@V?$allocator@D@std@@V?$_String_val@U?$_Simple_types@D@std@@@2@$00@std@@QEAA@U_One_then_variadic_args_t@1@$$QEAV?$allocator@D@1@@Z DD imagerel $LN4
	DD	imagerel $LN4+74
	DD	imagerel $unwind$??$?0V?$allocator@D@std@@$$V@?$_Compressed_pair@V?$allocator@D@std@@V?$_String_val@U?$_Simple_types@D@std@@@2@$00@std@@QEAA@U_One_then_variadic_args_t@1@$$QEAV?$allocator@D@1@@Z
pdata	ENDS
;	COMDAT pdata
pdata	SEGMENT
$pdata$??$?0$$V@?$_Compressed_pair@V?$allocator@D@std@@V?$_String_val@U?$_Simple_types@D@std@@@2@$00@std@@QEAA@U_Zero_then_variadic_args_t@1@@Z DD imagerel $LN4
	DD	imagerel $LN4+82
	DD	imagerel $unwind$??$?0$$V@?$_Compressed_pair@V?$allocator@D@std@@V?$_String_val@U?$_Simple_types@D@std@@@2@$00@std@@QEAA@U_Zero_then_variadic_args_t@1@@Z
pdata	ENDS
;	COMDAT pdata
pdata	SEGMENT
$pdata$??$_Allocate_at_least_helper@V?$allocator@D@std@@@std@@YAPEADAEAV?$allocator@D@0@AEA_K@Z DD imagerel $LN3
	DD	imagerel $LN3+69
	DD	imagerel $unwind$??$_Allocate_at_least_helper@V?$allocator@D@std@@@std@@YAPEADAEAV?$allocator@D@0@AEA_K@Z
pdata	ENDS
;	COMDAT pdata
pdata	SEGMENT
$pdata$??$_Unfancy@D@std@@YAPEADPEAD@Z DD imagerel $LN4
	DD	imagerel $LN4+49
	DD	imagerel $unwind$??$_Unfancy@D@std@@YAPEADPEAD@Z
pdata	ENDS
;	COMDAT pdata
pdata	SEGMENT
$pdata$??0?$_Container_proxy_ptr12@V?$allocator@U_Container_proxy@std@@@std@@@std@@QEAA@AEAV?$allocator@U_Container_proxy@std@@@1@AEAU_Container_base12@1@@Z DD imagerel $LN3
	DD	imagerel $LN3+187
	DD	imagerel $unwind$??0?$_Container_proxy_ptr12@V?$allocator@U_Container_proxy@std@@@std@@@std@@QEAA@AEAV?$allocator@U_Container_proxy@std@@@1@AEAU_Container_base12@1@@Z
pdata	ENDS
;	COMDAT pdata
pdata	SEGMENT
$pdata$??1?$_Container_proxy_ptr12@V?$allocator@U_Container_proxy@std@@@std@@@std@@QEAA@XZ DD imagerel $LN5
	DD	imagerel $LN5+82
	DD	imagerel $unwind$??1?$_Container_proxy_ptr12@V?$allocator@U_Container_proxy@std@@@std@@@std@@QEAA@XZ
pdata	ENDS
;	COMDAT pdata
pdata	SEGMENT
$pdata$??$_Traits_copy_batch@U?$char_traits@D@std@@D@std@@YAXQEADQEBD_K@Z DD imagerel $LN4
	DD	imagerel $LN4+79
	DD	imagerel $unwind$??$_Traits_copy_batch@U?$char_traits@D@std@@D@std@@YAXQEADQEBD_K@Z
pdata	ENDS
;	COMDAT pdata
pdata	SEGMENT
$pdata$??$_Allocate_for_capacity@$0A@@?$basic_string@DU?$char_traits@D@std@@V?$allocator@D@2@@std@@CAPEADAEAV?$allocator@D@1@AEA_K@Z DD imagerel $LN7
	DD	imagerel $LN7+215
	DD	imagerel $unwind$??$_Allocate_for_capacity@$0A@@?$basic_string@DU?$char_traits@D@std@@V?$allocator@D@2@@std@@CAPEADAEAV?$allocator@D@1@AEA_K@Z
pdata	ENDS
;	COMDAT pdata
pdata	SEGMENT
$pdata$??$construct_at@D$$V@std@@YAPEADQEAD@Z DD imagerel $LN4
	DD	imagerel $LN4+104
	DD	imagerel $unwind$??$construct_at@D$$V@std@@YAPEADQEAD@Z
pdata	ENDS
;	COMDAT pdata
pdata	SEGMENT
$pdata$??$_Construct_in_place@PEADAEBQEAD@std@@YAXAEAPEADAEBQEAD@Z DD imagerel $LN6
	DD	imagerel $LN6+141
	DD	imagerel $unwind$??$_Construct_in_place@PEADAEBQEAD@std@@YAXAEAPEADAEBQEAD@Z
pdata	ENDS
;	COMDAT pdata
pdata	SEGMENT
$pdata$??$_Deallocate_plain@V?$allocator@U_Container_proxy@std@@@std@@@std@@YAXAEAV?$allocator@U_Container_proxy@std@@@0@QEAU_Container_proxy@0@@Z DD imagerel $LN4
	DD	imagerel $LN4+73
	DD	imagerel $unwind$??$_Deallocate_plain@V?$allocator@U_Container_proxy@std@@@std@@@std@@YAXAEAV?$allocator@U_Container_proxy@std@@@0@QEAU_Container_proxy@0@@Z
pdata	ENDS
;	COMDAT pdata
pdata	SEGMENT
$pdata$??$_Unfancy@U_Container_proxy@std@@@std@@YAPEAU_Container_proxy@0@PEAU10@@Z DD imagerel $LN4
	DD	imagerel $LN4+49
	DD	imagerel $unwind$??$_Unfancy@U_Container_proxy@std@@@std@@YAPEAU_Container_proxy@0@PEAU10@@Z
pdata	ENDS
;	COMDAT pdata
pdata	SEGMENT
$pdata$??$_Traits_move_batch@U?$char_traits@D@std@@D@std@@YAXQEADQEBD_K@Z DD imagerel $LN4
	DD	imagerel $LN4+79
	DD	imagerel $unwind$??$_Traits_move_batch@U?$char_traits@D@std@@D@std@@YAXQEADQEBD_K@Z
pdata	ENDS
;	COMDAT pdata
pdata	SEGMENT
$pdata$??R<lambda_1>@?1???$_Append@D@?$basic_string@DU?$char_traits@D@std@@V?$allocator@D@2@@std@@AEAAAEAV12@QEBD_K@Z@SA@QEAD0101@Z DD imagerel $LN3
	DD	imagerel $LN3+183
	DD	imagerel $unwind$??R<lambda_1>@?1???$_Append@D@?$basic_string@DU?$char_traits@D@std@@V?$allocator@D@2@@std@@AEAAAEAV12@QEBD_K@Z@SA@QEAD0101@Z
pdata	ENDS
;	COMDAT pdata
pdata	SEGMENT
$pdata$??$_Reallocate_grow_by@V<lambda_1>@?1???$_Append@D@?$basic_string@DU?$char_traits@D@std@@V?$allocator@D@2@@std@@AEAAAEAV23@QEBD_K@Z@PEBD_K@?$basic_string@DU?$char_traits@D@std@@V?$allocator@D@2@@std@@AEAAAEAV01@_KV<lambda_1>@?1???$_Append@D@01@AEAAAEAV01@QEBD0@Z@PEBD_K@Z DD imagerel $LN6
	DD	imagerel $LN6+539
	DD	imagerel $unwind$??$_Reallocate_grow_by@V<lambda_1>@?1???$_Append@D@?$basic_string@DU?$char_traits@D@std@@V?$allocator@D@2@@std@@AEAAAEAV23@QEBD_K@Z@PEBD_K@?$basic_string@DU?$char_traits@D@std@@V?$allocator@D@2@@std@@AEAAAEAV01@_KV<lambda_1>@?1???$_Append@D@01@AEAAAEAV01@QEBD0@Z@PEBD_K@Z
pdata	ENDS
;	COMDAT pdata
pdata	SEGMENT
$pdata$??$addressof@V?$_String_val@U?$_Simple_types@D@std@@@std@@@std@@YAPEAV?$_String_val@U?$_Simple_types@D@std@@@0@AEAV10@@Z DD imagerel $LN4
	DD	imagerel $LN4+49
	DD	imagerel $unwind$??$addressof@V?$_String_val@U?$_Simple_types@D@std@@@std@@@std@@YAPEAV?$_String_val@U?$_Simple_types@D@std@@@0@AEAV10@@Z
pdata	ENDS
;	COMDAT pdata
pdata	SEGMENT
$pdata$??$_Construct_in_place@PEADAEAPEAD@std@@YAXAEAPEAD0@Z DD imagerel $LN6
	DD	imagerel $LN6+141
	DD	imagerel $unwind$??$_Construct_in_place@PEADAEAPEAD@std@@YAXAEAPEAD0@Z
pdata	ENDS
;	COMDAT pdata
pdata	SEGMENT
$pdata$??$_Allocate@$0BA@U_Default_allocate_traits@std@@@std@@YAPEAX_K@Z DD imagerel $LN6
	DD	imagerel $LN6+121
	DD	imagerel $unwind$??$_Allocate@$0BA@U_Default_allocate_traits@std@@@std@@YAPEAX_K@Z
pdata	ENDS
;	COMDAT pdata
pdata	SEGMENT
$pdata$??$_Deallocate@$0BA@@std@@YAXPEAX_K@Z DD imagerel $LN6
	DD	imagerel $LN6+127
	DD	imagerel $unwind$??$_Deallocate@$0BA@@std@@YAXPEAX_K@Z
pdata	ENDS
;	COMDAT pdata
pdata	SEGMENT
$pdata$??$_Get_size_of_n@$00@std@@YA_K_K@Z DD imagerel $LN3
	DD	imagerel $LN3+53
	DD	imagerel $unwind$??$_Get_size_of_n@$00@std@@YA_K_K@Z
pdata	ENDS
;	COMDAT pdata
pdata	SEGMENT
$pdata$??$addressof@U_Container_proxy@std@@@std@@YAPEAU_Container_proxy@0@AEAU10@@Z DD imagerel $LN4
	DD	imagerel $LN4+49
	DD	imagerel $unwind$??$addressof@U_Container_proxy@std@@@std@@YAPEAU_Container_proxy@0@AEAU10@@Z
pdata	ENDS
;	COMDAT pdata
pdata	SEGMENT
$pdata$??$construct_at@U_Container_proxy@std@@PEAU_Container_base12@2@@std@@YAPEAU_Container_proxy@0@QEAU10@$$QEAPEAU_Container_base12@0@@Z DD imagerel $LN4
	DD	imagerel $LN4+93
	DD	imagerel $unwind$??$construct_at@U_Container_proxy@std@@PEAU_Container_base12@2@@std@@YAPEAU_Container_proxy@0@QEAU10@$$QEAPEAU_Container_base12@0@@Z
pdata	ENDS
;	COMDAT pdata
pdata	SEGMENT
$pdata$??$addressof@PEAD@std@@YAPEAPEADAEAPEAD@Z DD imagerel $LN4
	DD	imagerel $LN4+49
	DD	imagerel $unwind$??$addressof@PEAD@std@@YAPEAPEADAEAPEAD@Z
pdata	ENDS
;	COMDAT pdata
pdata	SEGMENT
$pdata$??$construct_at@PEADAEBQEAD@std@@YAPEAPEADQEAPEADAEBQEAD@Z DD imagerel $LN4
	DD	imagerel $LN4+98
	DD	imagerel $unwind$??$construct_at@PEADAEBQEAD@std@@YAPEAPEADQEAPEADAEBQEAD@Z
pdata	ENDS
;	COMDAT pdata
pdata	SEGMENT
$pdata$?deallocate@?$_Default_allocator_traits@V?$allocator@U_Container_proxy@std@@@std@@@std@@SAXAEAV?$allocator@U_Container_proxy@std@@@2@QEAU_Container_proxy@2@_K@Z DD imagerel $LN6
	DD	imagerel $LN6+117
	DD	imagerel $unwind$?deallocate@?$_Default_allocator_traits@V?$allocator@U_Container_proxy@std@@@std@@@std@@SAXAEAV?$allocator@U_Container_proxy@std@@@2@QEAU_Container_proxy@2@_K@Z
pdata	ENDS
;	COMDAT pdata
pdata	SEGMENT
$pdata$??$construct_at@PEADAEAPEAD@std@@YAPEAPEADQEAPEADAEAPEAD@Z DD imagerel $LN4
	DD	imagerel $LN4+98
	DD	imagerel $unwind$??$construct_at@PEADAEAPEAD@std@@YAPEAPEADQEAPEADAEAPEAD@Z
pdata	ENDS
;	COMDAT pdata
pdata	SEGMENT
$pdata$??$_Allocate_manually_vector_aligned@U_Default_allocate_traits@std@@@std@@YAPEAX_K@Z DD imagerel $LN6
	DD	imagerel $LN6+230
	DD	imagerel $unwind$??$_Allocate_manually_vector_aligned@U_Default_allocate_traits@std@@@std@@YAPEAX_K@Z
pdata	ENDS
;	COMDAT pdata
pdata	SEGMENT
$pdata$??$_Get_size_of_n@$0BA@@std@@YA_K_K@Z DD imagerel $LN4
	DD	imagerel $LN4+93
	DD	imagerel $unwind$??$_Get_size_of_n@$0BA@@std@@YA_K_K@Z
pdata	ENDS
;	COMDAT pdata
pdata	SEGMENT
$pdata$??$_Destroy_in_place@PEAD@std@@YAXAEAPEAD@Z DD imagerel $LN4
	DD	imagerel $LN4+42
	DD	imagerel $unwind$??$_Destroy_in_place@PEAD@std@@YAXAEAPEAD@Z
pdata	ENDS
;	COMDAT rtc$TMZ
rtc$TMZ	SEGMENT
_RTC_Shutdown.rtc$TMZ DQ FLAT:_RTC_Shutdown
rtc$TMZ	ENDS
;	COMDAT rtc$IMZ
rtc$IMZ	SEGMENT
_RTC_InitBase.rtc$IMZ DQ FLAT:_RTC_InitBase
rtc$IMZ	ENDS
;	COMDAT ??_R4?$TestClass@Vui512_stub_testing@ui512_Unit_Tests@@@CppUnitTestFramework@VisualStudio@Microsoft@@6B@
rdata$r	SEGMENT
??_R4?$TestClass@Vui512_stub_testing@ui512_Unit_Tests@@@CppUnitTestFramework@VisualStudio@Microsoft@@6B@ DD 01H ; Microsoft::VisualStudio::CppUnitTestFramework::TestClass<ui512_Unit_Tests::ui512_stub_testing>::`RTTI Complete Object Locator'
	DD	00H
	DD	00H
	DD	imagerel ??_R0?AV?$TestClass@Vui512_stub_testing@ui512_Unit_Tests@@@CppUnitTestFramework@VisualStudio@Microsoft@@@8
	DD	imagerel ??_R3?$TestClass@Vui512_stub_testing@ui512_Unit_Tests@@@CppUnitTestFramework@VisualStudio@Microsoft@@8
	DD	imagerel ??_R4?$TestClass@Vui512_stub_testing@ui512_Unit_Tests@@@CppUnitTestFramework@VisualStudio@Microsoft@@6B@
rdata$r	ENDS
;	COMDAT ??_R2?$TestClass@Vui512_stub_testing@ui512_Unit_Tests@@@CppUnitTestFramework@VisualStudio@Microsoft@@8
rdata$r	SEGMENT
??_R2?$TestClass@Vui512_stub_testing@ui512_Unit_Tests@@@CppUnitTestFramework@VisualStudio@Microsoft@@8 DD imagerel ??_R1A@?0A@EA@?$TestClass@Vui512_stub_testing@ui512_Unit_Tests@@@CppUnitTestFramework@VisualStudio@Microsoft@@8 ; Microsoft::VisualStudio::CppUnitTestFramework::TestClass<ui512_Unit_Tests::ui512_stub_testing>::`RTTI Base Class Array'
	DD	imagerel ??_R1A@?0A@EA@TestClassImpl@CppUnitTestFramework@VisualStudio@Microsoft@@8
	ORG $+3
rdata$r	ENDS
;	COMDAT ??_R3?$TestClass@Vui512_stub_testing@ui512_Unit_Tests@@@CppUnitTestFramework@VisualStudio@Microsoft@@8
rdata$r	SEGMENT
??_R3?$TestClass@Vui512_stub_testing@ui512_Unit_Tests@@@CppUnitTestFramework@VisualStudio@Microsoft@@8 DD 00H ; Microsoft::VisualStudio::CppUnitTestFramework::TestClass<ui512_Unit_Tests::ui512_stub_testing>::`RTTI Class Hierarchy Descriptor'
	DD	00H
	DD	02H
	DD	imagerel ??_R2?$TestClass@Vui512_stub_testing@ui512_Unit_Tests@@@CppUnitTestFramework@VisualStudio@Microsoft@@8
rdata$r	ENDS
;	COMDAT ??_R0?AV?$TestClass@Vui512_stub_testing@ui512_Unit_Tests@@@CppUnitTestFramework@VisualStudio@Microsoft@@@8
data$rs	SEGMENT
??_R0?AV?$TestClass@Vui512_stub_testing@ui512_Unit_Tests@@@CppUnitTestFramework@VisualStudio@Microsoft@@@8 DQ FLAT:??_7type_info@@6B@ ; Microsoft::VisualStudio::CppUnitTestFramework::TestClass<ui512_Unit_Tests::ui512_stub_testing> `RTTI Type Descriptor'
	DQ	0000000000000000H
	DB	'.?AV?$TestClass@Vui512_stub_testing@ui512_Unit_Tests@@@C'
	DB	'ppUnitTestFramework@VisualStudio@Microsoft@@', 00H
data$rs	ENDS
;	COMDAT ??_R1A@?0A@EA@?$TestClass@Vui512_stub_testing@ui512_Unit_Tests@@@CppUnitTestFramework@VisualStudio@Microsoft@@8
rdata$r	SEGMENT
??_R1A@?0A@EA@?$TestClass@Vui512_stub_testing@ui512_Unit_Tests@@@CppUnitTestFramework@VisualStudio@Microsoft@@8 DD imagerel ??_R0?AV?$TestClass@Vui512_stub_testing@ui512_Unit_Tests@@@CppUnitTestFramework@VisualStudio@Microsoft@@@8 ; Microsoft::VisualStudio::CppUnitTestFramework::TestClass<ui512_Unit_Tests::ui512_stub_testing>::`RTTI Base Class Descriptor at (0,-1,0,64)'
	DD	01H
	DD	00H
	DD	0ffffffffH
	DD	00H
	DD	040H
	DD	imagerel ??_R3?$TestClass@Vui512_stub_testing@ui512_Unit_Tests@@@CppUnitTestFramework@VisualStudio@Microsoft@@8
rdata$r	ENDS
;	COMDAT ??_R1A@?0A@EA@ui512_stub_testing@ui512_Unit_Tests@@8
rdata$r	SEGMENT
??_R1A@?0A@EA@ui512_stub_testing@ui512_Unit_Tests@@8 DD imagerel ??_R0?AVui512_stub_testing@ui512_Unit_Tests@@@8 ; ui512_Unit_Tests::ui512_stub_testing::`RTTI Base Class Descriptor at (0,-1,0,64)'
	DD	02H
	DD	00H
	DD	0ffffffffH
	DD	00H
	DD	040H
	DD	imagerel ??_R3ui512_stub_testing@ui512_Unit_Tests@@8
rdata$r	ENDS
;	COMDAT ??_R2ui512_stub_testing@ui512_Unit_Tests@@8
rdata$r	SEGMENT
??_R2ui512_stub_testing@ui512_Unit_Tests@@8 DD imagerel ??_R1A@?0A@EA@ui512_stub_testing@ui512_Unit_Tests@@8 ; ui512_Unit_Tests::ui512_stub_testing::`RTTI Base Class Array'
	DD	imagerel ??_R1A@?0A@EA@?$TestClass@Vui512_stub_testing@ui512_Unit_Tests@@@CppUnitTestFramework@VisualStudio@Microsoft@@8
	DD	imagerel ??_R1A@?0A@EA@TestClassImpl@CppUnitTestFramework@VisualStudio@Microsoft@@8
	ORG $+3
rdata$r	ENDS
;	COMDAT ??_R3ui512_stub_testing@ui512_Unit_Tests@@8
rdata$r	SEGMENT
??_R3ui512_stub_testing@ui512_Unit_Tests@@8 DD 00H	; ui512_Unit_Tests::ui512_stub_testing::`RTTI Class Hierarchy Descriptor'
	DD	00H
	DD	03H
	DD	imagerel ??_R2ui512_stub_testing@ui512_Unit_Tests@@8
rdata$r	ENDS
;	COMDAT ??_R0?AVui512_stub_testing@ui512_Unit_Tests@@@8
data$rs	SEGMENT
??_R0?AVui512_stub_testing@ui512_Unit_Tests@@@8 DQ FLAT:??_7type_info@@6B@ ; ui512_Unit_Tests::ui512_stub_testing `RTTI Type Descriptor'
	DQ	0000000000000000H
	DB	'.?AVui512_stub_testing@ui512_Unit_Tests@@', 00H
data$rs	ENDS
;	COMDAT ??_R4ui512_stub_testing@ui512_Unit_Tests@@6B@
rdata$r	SEGMENT
??_R4ui512_stub_testing@ui512_Unit_Tests@@6B@ DD 01H	; ui512_Unit_Tests::ui512_stub_testing::`RTTI Complete Object Locator'
	DD	00H
	DD	00H
	DD	imagerel ??_R0?AVui512_stub_testing@ui512_Unit_Tests@@@8
	DD	imagerel ??_R3ui512_stub_testing@ui512_Unit_Tests@@8
	DD	imagerel ??_R4ui512_stub_testing@ui512_Unit_Tests@@6B@
rdata$r	ENDS
;	COMDAT ??_R1A@?0A@EA@TestClassImpl@CppUnitTestFramework@VisualStudio@Microsoft@@8
rdata$r	SEGMENT
??_R1A@?0A@EA@TestClassImpl@CppUnitTestFramework@VisualStudio@Microsoft@@8 DD imagerel ??_R0?AVTestClassImpl@CppUnitTestFramework@VisualStudio@Microsoft@@@8 ; Microsoft::VisualStudio::CppUnitTestFramework::TestClassImpl::`RTTI Base Class Descriptor at (0,-1,0,64)'
	DD	00H
	DD	00H
	DD	0ffffffffH
	DD	00H
	DD	040H
	DD	imagerel ??_R3TestClassImpl@CppUnitTestFramework@VisualStudio@Microsoft@@8
rdata$r	ENDS
;	COMDAT ??_R2TestClassImpl@CppUnitTestFramework@VisualStudio@Microsoft@@8
rdata$r	SEGMENT
??_R2TestClassImpl@CppUnitTestFramework@VisualStudio@Microsoft@@8 DD imagerel ??_R1A@?0A@EA@TestClassImpl@CppUnitTestFramework@VisualStudio@Microsoft@@8 ; Microsoft::VisualStudio::CppUnitTestFramework::TestClassImpl::`RTTI Base Class Array'
	ORG $+3
rdata$r	ENDS
;	COMDAT ??_R3TestClassImpl@CppUnitTestFramework@VisualStudio@Microsoft@@8
rdata$r	SEGMENT
??_R3TestClassImpl@CppUnitTestFramework@VisualStudio@Microsoft@@8 DD 00H ; Microsoft::VisualStudio::CppUnitTestFramework::TestClassImpl::`RTTI Class Hierarchy Descriptor'
	DD	00H
	DD	01H
	DD	imagerel ??_R2TestClassImpl@CppUnitTestFramework@VisualStudio@Microsoft@@8
rdata$r	ENDS
;	COMDAT ??_R0?AVTestClassImpl@CppUnitTestFramework@VisualStudio@Microsoft@@@8
data$rs	SEGMENT
??_R0?AVTestClassImpl@CppUnitTestFramework@VisualStudio@Microsoft@@@8 DQ FLAT:??_7type_info@@6B@ ; Microsoft::VisualStudio::CppUnitTestFramework::TestClassImpl `RTTI Type Descriptor'
	DQ	0000000000000000H
	DB	'.?AVTestClassImpl@CppUnitTestFramework@VisualStudio@Micr'
	DB	'osoft@@', 00H
data$rs	ENDS
;	COMDAT ??_R4TestClassImpl@CppUnitTestFramework@VisualStudio@Microsoft@@6B@
rdata$r	SEGMENT
??_R4TestClassImpl@CppUnitTestFramework@VisualStudio@Microsoft@@6B@ DD 01H ; Microsoft::VisualStudio::CppUnitTestFramework::TestClassImpl::`RTTI Complete Object Locator'
	DD	00H
	DD	00H
	DD	imagerel ??_R0?AVTestClassImpl@CppUnitTestFramework@VisualStudio@Microsoft@@@8
	DD	imagerel ??_R3TestClassImpl@CppUnitTestFramework@VisualStudio@Microsoft@@8
	DD	imagerel ??_R4TestClassImpl@CppUnitTestFramework@VisualStudio@Microsoft@@6B@
rdata$r	ENDS
;	COMDAT ??_R4bad_alloc@std@@6B@
rdata$r	SEGMENT
??_R4bad_alloc@std@@6B@ DD 01H				; std::bad_alloc::`RTTI Complete Object Locator'
	DD	00H
	DD	00H
	DD	imagerel ??_R0?AVbad_alloc@std@@@8
	DD	imagerel ??_R3bad_alloc@std@@8
	DD	imagerel ??_R4bad_alloc@std@@6B@
rdata$r	ENDS
;	COMDAT ??_R2bad_alloc@std@@8
rdata$r	SEGMENT
??_R2bad_alloc@std@@8 DD imagerel ??_R1A@?0A@EA@bad_alloc@std@@8 ; std::bad_alloc::`RTTI Base Class Array'
	DD	imagerel ??_R1A@?0A@EA@exception@std@@8
	ORG $+3
rdata$r	ENDS
;	COMDAT ??_R3bad_alloc@std@@8
rdata$r	SEGMENT
??_R3bad_alloc@std@@8 DD 00H				; std::bad_alloc::`RTTI Class Hierarchy Descriptor'
	DD	00H
	DD	02H
	DD	imagerel ??_R2bad_alloc@std@@8
rdata$r	ENDS
;	COMDAT ??_R1A@?0A@EA@bad_alloc@std@@8
rdata$r	SEGMENT
??_R1A@?0A@EA@bad_alloc@std@@8 DD imagerel ??_R0?AVbad_alloc@std@@@8 ; std::bad_alloc::`RTTI Base Class Descriptor at (0,-1,0,64)'
	DD	01H
	DD	00H
	DD	0ffffffffH
	DD	00H
	DD	040H
	DD	imagerel ??_R3bad_alloc@std@@8
rdata$r	ENDS
;	COMDAT ??_R1A@?0A@EA@bad_array_new_length@std@@8
rdata$r	SEGMENT
??_R1A@?0A@EA@bad_array_new_length@std@@8 DD imagerel ??_R0?AVbad_array_new_length@std@@@8 ; std::bad_array_new_length::`RTTI Base Class Descriptor at (0,-1,0,64)'
	DD	02H
	DD	00H
	DD	0ffffffffH
	DD	00H
	DD	040H
	DD	imagerel ??_R3bad_array_new_length@std@@8
rdata$r	ENDS
;	COMDAT ??_R2bad_array_new_length@std@@8
rdata$r	SEGMENT
??_R2bad_array_new_length@std@@8 DD imagerel ??_R1A@?0A@EA@bad_array_new_length@std@@8 ; std::bad_array_new_length::`RTTI Base Class Array'
	DD	imagerel ??_R1A@?0A@EA@bad_alloc@std@@8
	DD	imagerel ??_R1A@?0A@EA@exception@std@@8
	ORG $+3
rdata$r	ENDS
;	COMDAT ??_R3bad_array_new_length@std@@8
rdata$r	SEGMENT
??_R3bad_array_new_length@std@@8 DD 00H			; std::bad_array_new_length::`RTTI Class Hierarchy Descriptor'
	DD	00H
	DD	03H
	DD	imagerel ??_R2bad_array_new_length@std@@8
rdata$r	ENDS
;	COMDAT ??_R4bad_array_new_length@std@@6B@
rdata$r	SEGMENT
??_R4bad_array_new_length@std@@6B@ DD 01H		; std::bad_array_new_length::`RTTI Complete Object Locator'
	DD	00H
	DD	00H
	DD	imagerel ??_R0?AVbad_array_new_length@std@@@8
	DD	imagerel ??_R3bad_array_new_length@std@@8
	DD	imagerel ??_R4bad_array_new_length@std@@6B@
rdata$r	ENDS
;	COMDAT ??_R1A@?0A@EA@exception@std@@8
rdata$r	SEGMENT
??_R1A@?0A@EA@exception@std@@8 DD imagerel ??_R0?AVexception@std@@@8 ; std::exception::`RTTI Base Class Descriptor at (0,-1,0,64)'
	DD	00H
	DD	00H
	DD	0ffffffffH
	DD	00H
	DD	040H
	DD	imagerel ??_R3exception@std@@8
rdata$r	ENDS
;	COMDAT ??_R2exception@std@@8
rdata$r	SEGMENT
??_R2exception@std@@8 DD imagerel ??_R1A@?0A@EA@exception@std@@8 ; std::exception::`RTTI Base Class Array'
	ORG $+3
rdata$r	ENDS
;	COMDAT ??_R3exception@std@@8
rdata$r	SEGMENT
??_R3exception@std@@8 DD 00H				; std::exception::`RTTI Class Hierarchy Descriptor'
	DD	00H
	DD	01H
	DD	imagerel ??_R2exception@std@@8
rdata$r	ENDS
;	COMDAT ??_R4exception@std@@6B@
rdata$r	SEGMENT
??_R4exception@std@@6B@ DD 01H				; std::exception::`RTTI Complete Object Locator'
	DD	00H
	DD	00H
	DD	imagerel ??_R0?AVexception@std@@@8
	DD	imagerel ??_R3exception@std@@8
	DD	imagerel ??_R4exception@std@@6B@
rdata$r	ENDS
;	COMDAT ??_C@_0DG@KGHKKGBC@null?5pointer?5cannot?5point?5to?5a?5@
CONST	SEGMENT
??_C@_0DG@KGHKKGBC@null?5pointer?5cannot?5point?5to?5a?5@ DB 'null pointe'
	DB	'r cannot point to a block of non-zero size', 00H ; `string'
CONST	ENDS
;	COMDAT ?s_Info@?1??__GetTestClassInfo@?$TestClass@Vui512_stub_testing@ui512_Unit_Tests@@@CppUnitTestFramework@VisualStudio@Microsoft@@SAPEBUTestClassInfo@345@XZ@4U6345@B
CONST	SEGMENT
?s_Info@?1??__GetTestClassInfo@?$TestClass@Vui512_stub_testing@ui512_Unit_Tests@@@CppUnitTestFramework@VisualStudio@Microsoft@@SAPEBUTestClassInfo@345@XZ@4U6345@B DQ FLAT:?__New@?$TestClass@Vui512_stub_testing@ui512_Unit_Tests@@@CppUnitTestFramework@VisualStudio@Microsoft@@SAPEAVTestClassImpl@234@XZ ; `Microsoft::VisualStudio::CppUnitTestFramework::TestClass<ui512_Unit_Tests::ui512_stub_testing>::__GetTestClassInfo'::`2'::s_Info
	DQ	FLAT:?__Delete@?$TestClass@Vui512_stub_testing@ui512_Unit_Tests@@@CppUnitTestFramework@VisualStudio@Microsoft@@SAXPEAVTestClassImpl@234@@Z
	DQ	FLAT:?s_Metadata@?1??__GetTestClassInfo@?$TestClass@Vui512_stub_testing@ui512_Unit_Tests@@@CppUnitTestFramework@VisualStudio@Microsoft@@SAPEBUTestClassInfo@345@XZ@4UClassMetadata@345@B
CONST	ENDS
;	COMDAT ??_C@_0IP@PLDHKPPA@?$DP__GetTestClassInfo?$EA?$DP$TestClass@
CONST	SEGMENT
??_C@_0IP@PLDHKPPA@?$DP__GetTestClassInfo?$EA?$DP$TestClass@ DB '?__GetTe'
	DB	'stClassInfo@?$TestClass@Vui512_stub_testing@ui512_Unit_Tests@'
	DB	'@@CppUnitTestFramework@VisualStudio@Microsoft@@SAPEBUTestClas'
	DB	'sInfo@234@XZ', 00H				; `string'
CONST	ENDS
;	COMDAT ??_C@_0HJ@BADDJBGA@Microsoft?3?3VisualStudio?3?3CppUni@
CONST	SEGMENT
??_C@_0HJ@BADDJBGA@Microsoft?3?3VisualStudio?3?3CppUni@ DB 'Microsoft::Vi'
	DB	'sualStudio::CppUnitTestFramework::TestClass<class ui512_Unit_'
	DB	'Tests::ui512_stub_testing>::__GetTestClassInfo', 00H ; `string'
CONST	ENDS
;	COMDAT ??_C@_1BM@OILAKHEN@?$AAT?$AAe?$AAs?$AAt?$AAC?$AAl?$AAa?$AAs?$AAs?$AAI?$AAn?$AAf?$AAo@
CONST	SEGMENT
??_C@_1BM@OILAKHEN@?$AAT?$AAe?$AAs?$AAt?$AAC?$AAl?$AAa?$AAs?$AAs?$AAI?$AAn?$AAf?$AAo@ DB 'T'
	DB	00H, 'e', 00H, 's', 00H, 't', 00H, 'C', 00H, 'l', 00H, 'a', 00H
	DB	's', 00H, 's', 00H, 'I', 00H, 'n', 00H, 'f', 00H, 'o', 00H, 00H
	DB	00H						; `string'
CONST	ENDS
;	COMDAT ?s_Metadata@?1??__GetTestClassInfo@?$TestClass@Vui512_stub_testing@ui512_Unit_Tests@@@CppUnitTestFramework@VisualStudio@Microsoft@@SAPEBUTestClassInfo@345@XZ@4UClassMetadata@345@B
testdata$_A_class	SEGMENT
?s_Metadata@?1??__GetTestClassInfo@?$TestClass@Vui512_stub_testing@ui512_Unit_Tests@@@CppUnitTestFramework@VisualStudio@Microsoft@@SAPEBUTestClassInfo@345@XZ@4UClassMetadata@345@B DQ FLAT:??_C@_1BM@OILAKHEN@?$AAT?$AAe?$AAs?$AAt?$AAC?$AAl?$AAa?$AAs?$AAs?$AAI?$AAn?$AAf?$AAo@ ; `Microsoft::VisualStudio::CppUnitTestFramework::TestClass<ui512_Unit_Tests::ui512_stub_testing>::__GetTestClassInfo'::`2'::s_Metadata
	DQ	FLAT:??_C@_0HJ@BADDJBGA@Microsoft?3?3VisualStudio?3?3CppUni@
	DQ	FLAT:??_C@_0IP@PLDHKPPA@?$DP__GetTestClassInfo?$EA?$DP$TestClass@
testdata$_A_class	ENDS
;	COMDAT ?s_version@?1??__GetTestVersion@?$TestClass@Vui512_stub_testing@ui512_Unit_Tests@@@CppUnitTestFramework@VisualStudio@Microsoft@@SAPEBUTestDataVersion@345@XZ@4U6345@A
testvers$	SEGMENT
?s_version@?1??__GetTestVersion@?$TestClass@Vui512_stub_testing@ui512_Unit_Tests@@@CppUnitTestFramework@VisualStudio@Microsoft@@SAPEBUTestDataVersion@345@XZ@4U6345@A DD 0b000000H ; `Microsoft::VisualStudio::CppUnitTestFramework::TestClass<ui512_Unit_Tests::ui512_stub_testing>::__GetTestVersion'::`2'::s_version
testvers$	ENDS
;	COMDAT ??_C@_1BK@MHIKGOKE@?$AA?3?$AAA?$AAM?$AA?3?$AAa?$AAm?$AA?3?$AAP?$AAM?$AA?3?$AAp?$AAm@
CONST	SEGMENT
??_C@_1BK@MHIKGOKE@?$AA?3?$AAA?$AAM?$AA?3?$AAa?$AAm?$AA?3?$AAP?$AAM?$AA?3?$AAp?$AAm@ DB ':'
	DB	00H, 'A', 00H, 'M', 00H, ':', 00H, 'a', 00H, 'm', 00H, ':', 00H
	DB	'P', 00H, 'M', 00H, ':', 00H, 'p', 00H, 'm', 00H, 00H, 00H ; `string'
CONST	ENDS
;	COMDAT ??_C@_06IHADJIOK@?$CK?$CK?$CK?7?7?7@
CONST	SEGMENT
??_C@_06IHADJIOK@?$CK?$CK?$CK?7?7?7@ DB '***', 09H, 09H, 09H, 00H ; `string'
CONST	ENDS
;	COMDAT ??_C@_0N@HABDBKBE@Stub?5Test?501@
CONST	SEGMENT
??_C@_0N@HABDBKBE@Stub?5Test?501@ DB 'Stub Test 01', 00H ; `string'
CONST	ENDS
;	COMDAT ??_C@_07LMMOHMOF@?7?7?7?$CK?$CK?$CK?6@
CONST	SEGMENT
??_C@_07LMMOHMOF@?7?7?7?$CK?$CK?$CK?6@ DB 09H, 09H, 09H, '***', 0aH, 00H ; `string'
CONST	ENDS
;	COMDAT ?s_Info@?1??__GetTestMethodInfo_ui512_01@ui512_stub_testing@ui512_Unit_Tests@@CAPEBUMemberMethodInfo@CppUnitTestFramework@VisualStudio@Microsoft@@XZ@4U4567@A
_DATA	SEGMENT
?s_Info@?1??__GetTestMethodInfo_ui512_01@ui512_stub_testing@ui512_Unit_Tests@@CAPEBUMemberMethodInfo@CppUnitTestFramework@VisualStudio@Microsoft@@XZ@4U4567@A DD 00H ; `ui512_Unit_Tests::ui512_stub_testing::__GetTestMethodInfo_ui512_01'::`2'::s_Info
	ORG $+4
	DQ	0000000000000000H
	DQ	FLAT:?s_Metadata@?1??__GetTestMethodInfo_ui512_01@ui512_stub_testing@ui512_Unit_Tests@@CAPEBUMemberMethodInfo@CppUnitTestFramework@VisualStudio@Microsoft@@XZ@4UMethodMetadata@567@B
_DATA	ENDS
;	COMDAT ??_C@_1JO@OAJKIPCJ@?$AAC?$AA?3?$AA?2?$AAU?$AAs?$AAe?$AAr?$AAs?$AA?2?$AAJ?$AAo?$AAh?$AAn?$AA?5?$AAL@
CONST	SEGMENT
??_C@_1JO@OAJKIPCJ@?$AAC?$AA?3?$AA?2?$AAU?$AAs?$AAe?$AAr?$AAs?$AA?2?$AAJ?$AAo?$AAh?$AAn?$AA?5?$AAL@ DB 'C'
	DB	00H, ':', 00H, '\', 00H, 'U', 00H, 's', 00H, 'e', 00H, 'r', 00H
	DB	's', 00H, '\', 00H, 'J', 00H, 'o', 00H, 'h', 00H, 'n', 00H, ' '
	DB	00H, 'L', 00H, 'y', 00H, 'n', 00H, 'c', 00H, 'h', 00H, '\', 00H
	DB	's', 00H, 'o', 00H, 'u', 00H, 'r', 00H, 'c', 00H, 'e', 00H, '\'
	DB	00H, 'r', 00H, 'e', 00H, 'p', 00H, 'o', 00H, 's', 00H, '\', 00H
	DB	'u', 00H, 'i', 00H, '5', 00H, '1', 00H, '2', 00H, '\', 00H, 'u'
	DB	00H, 'i', 00H, '5', 00H, '1', 00H, '2', 00H, '_', 00H, 'u', 00H
	DB	'n', 00H, 'i', 00H, 't', 00H, '_', 00H, 't', 00H, 'e', 00H, 's'
	DB	00H, 't', 00H, 's', 00H, '\', 00H, 'u', 00H, 'i', 00H, '5', 00H
	DB	'1', 00H, '2', 00H, '_', 00H, 's', 00H, 't', 00H, 'u', 00H, 'b'
	DB	00H, '_', 00H, 't', 00H, 'e', 00H, 's', 00H, 't', 00H, 'i', 00H
	DB	'n', 00H, 'g', 00H, '.', 00H, 'c', 00H, 'p', 00H, 'p', 00H, 00H
	DB	00H						; `string'
CONST	ENDS
;	COMDAT ??_C@_0IK@KAAEBMLK@?$DP__GetTestMethodInfo_ui512_01?$EAu@
CONST	SEGMENT
??_C@_0IK@KAAEBMLK@?$DP__GetTestMethodInfo_ui512_01?$EAu@ DB '?__GetTestM'
	DB	'ethodInfo_ui512_01@ui512_stub_testing@ui512_Unit_Tests@@CAPEB'
	DB	'UMemberMethodInfo@CppUnitTestFramework@VisualStudio@Microsoft'
	DB	'@@XZ', 00H					; `string'
CONST	ENDS
;	COMDAT ??_C@_0ED@MLBDPENL@ui512_Unit_Tests?3?3ui512_stub_te@
CONST	SEGMENT
??_C@_0ED@MLBDPENL@ui512_Unit_Tests?3?3ui512_stub_te@ DB 'ui512_Unit_Test'
	DB	's::ui512_stub_testing::__GetTestMethodInfo_ui512_01', 00H ; `string'
CONST	ENDS
;	COMDAT ??_C@_1BC@FNFIDNPA@?$AAu?$AAi?$AA5?$AA1?$AA2?$AA_?$AA0?$AA1@
CONST	SEGMENT
??_C@_1BC@FNFIDNPA@?$AAu?$AAi?$AA5?$AA1?$AA2?$AA_?$AA0?$AA1@ DB 'u', 00H, 'i'
	DB	00H, '5', 00H, '1', 00H, '2', 00H, '_', 00H, '0', 00H, '1', 00H
	DB	00H, 00H					; `string'
CONST	ENDS
;	COMDAT ??_C@_1BO@LIDJJEMN@?$AAT?$AAe?$AAs?$AAt?$AAM?$AAe?$AAt?$AAh?$AAo?$AAd?$AAI?$AAn?$AAf?$AAo@
CONST	SEGMENT
??_C@_1BO@LIDJJEMN@?$AAT?$AAe?$AAs?$AAt?$AAM?$AAe?$AAt?$AAh?$AAo?$AAd?$AAI?$AAn?$AAf?$AAo@ DB 'T'
	DB	00H, 'e', 00H, 's', 00H, 't', 00H, 'M', 00H, 'e', 00H, 't', 00H
	DB	'h', 00H, 'o', 00H, 'd', 00H, 'I', 00H, 'n', 00H, 'f', 00H, 'o'
	DB	00H, 00H, 00H				; `string'
CONST	ENDS
;	COMDAT ?s_Metadata@?1??__GetTestMethodInfo_ui512_01@ui512_stub_testing@ui512_Unit_Tests@@CAPEBUMemberMethodInfo@CppUnitTestFramework@VisualStudio@Microsoft@@XZ@4UMethodMetadata@567@B
testdata$_B_method	SEGMENT
?s_Metadata@?1??__GetTestMethodInfo_ui512_01@ui512_stub_testing@ui512_Unit_Tests@@CAPEBUMemberMethodInfo@CppUnitTestFramework@VisualStudio@Microsoft@@XZ@4UMethodMetadata@567@B DQ FLAT:??_C@_1BO@LIDJJEMN@?$AAT?$AAe?$AAs?$AAt?$AAM?$AAe?$AAt?$AAh?$AAo?$AAd?$AAI?$AAn?$AAf?$AAo@ ; `ui512_Unit_Tests::ui512_stub_testing::__GetTestMethodInfo_ui512_01'::`2'::s_Metadata
	DQ	FLAT:??_C@_1BC@FNFIDNPA@?$AAu?$AAi?$AA5?$AA1?$AA2?$AA_?$AA0?$AA1@
	DQ	FLAT:??_C@_0ED@MLBDPENL@ui512_Unit_Tests?3?3ui512_stub_te@
	DQ	FLAT:??_C@_0IK@KAAEBMLK@?$DP__GetTestMethodInfo_ui512_01?$EAu@
	DQ	FLAT:??_C@_1JO@OAJKIPCJ@?$AAC?$AA?3?$AA?2?$AAU?$AAs?$AAe?$AAr?$AAs?$AA?2?$AAJ?$AAo?$AAh?$AAn?$AA?5?$AAL@
	DD	01cH
	ORG $+4
testdata$_B_method	ENDS
;	COMDAT ??_7ui512_stub_testing@ui512_Unit_Tests@@6B@
CONST	SEGMENT
??_7ui512_stub_testing@ui512_Unit_Tests@@6B@ DQ FLAT:??_R4ui512_stub_testing@ui512_Unit_Tests@@6B@ ; ui512_Unit_Tests::ui512_stub_testing::`vftable'
	DQ	FLAT:??_Eui512_stub_testing@ui512_Unit_Tests@@UEAAPEAXI@Z
	DQ	FLAT:?__Invoke@?$TestClass@Vui512_stub_testing@ui512_Unit_Tests@@@CppUnitTestFramework@VisualStudio@Microsoft@@UEAAXP8TestClassImpl@234@EAAXXZ@Z
CONST	ENDS
;	COMDAT ??_7?$TestClass@Vui512_stub_testing@ui512_Unit_Tests@@@CppUnitTestFramework@VisualStudio@Microsoft@@6B@
CONST	SEGMENT
??_7?$TestClass@Vui512_stub_testing@ui512_Unit_Tests@@@CppUnitTestFramework@VisualStudio@Microsoft@@6B@ DQ FLAT:??_R4?$TestClass@Vui512_stub_testing@ui512_Unit_Tests@@@CppUnitTestFramework@VisualStudio@Microsoft@@6B@ ; Microsoft::VisualStudio::CppUnitTestFramework::TestClass<ui512_Unit_Tests::ui512_stub_testing>::`vftable'
	DQ	FLAT:??_E?$TestClass@Vui512_stub_testing@ui512_Unit_Tests@@@CppUnitTestFramework@VisualStudio@Microsoft@@UEAAPEAXI@Z
	DQ	FLAT:?__Invoke@?$TestClass@Vui512_stub_testing@ui512_Unit_Tests@@@CppUnitTestFramework@VisualStudio@Microsoft@@UEAAXP8TestClassImpl@234@EAAXXZ@Z
CONST	ENDS
;	COMDAT ??_7TestClassImpl@CppUnitTestFramework@VisualStudio@Microsoft@@6B@
CONST	SEGMENT
??_7TestClassImpl@CppUnitTestFramework@VisualStudio@Microsoft@@6B@ DQ FLAT:??_R4TestClassImpl@CppUnitTestFramework@VisualStudio@Microsoft@@6B@ ; Microsoft::VisualStudio::CppUnitTestFramework::TestClassImpl::`vftable'
	DQ	FLAT:??_ETestClassImpl@CppUnitTestFramework@VisualStudio@Microsoft@@UEAAPEAXI@Z
	DQ	FLAT:_purecall
CONST	ENDS
;	COMDAT ??_C@_0GA@FOILECPP@C?3?2Program?5Files?2Microsoft?5Visu@
CONST	SEGMENT
??_C@_0GA@FOILECPP@C?3?2Program?5Files?2Microsoft?5Visu@ DB 'C:\Program F'
	DB	'iles\Microsoft Visual Studio\18\Community\VC\Tools\MSVC\14.50'
	DB	'.35717\include\xlocnum', 00H		; `string'
CONST	ENDS
;	COMDAT ?__LINE__Var@?0??_Maklocwcs@std@@YAPEA_WPEB_W@Z@4JA
_DATA	SEGMENT
?__LINE__Var@?0??_Maklocwcs@std@@YAPEA_WPEB_W@Z@4JA DD 049H ; `std::_Maklocwcs'::`1'::__LINE__Var
_DATA	ENDS
;	COMDAT ??_C@_0BA@JFNIOLAK@string?5too?5long@
CONST	SEGMENT
??_C@_0BA@JFNIOLAK@string?5too?5long@ DB 'string too long', 00H ; `string'
CONST	ENDS
;	COMDAT ??_C@_0GA@HFAKHCPJ@C?3?2Program?5Files?2Microsoft?5Visu@
CONST	SEGMENT
??_C@_0GA@HFAKHCPJ@C?3?2Program?5Files?2Microsoft?5Visu@ DB 'C:\Program F'
	DB	'iles\Microsoft Visual Studio\18\Community\VC\Tools\MSVC\14.50'
	DB	'.35717\include\xmemory', 00H		; `string'
CONST	ENDS
;	COMDAT ??_C@_02DKCKIIND@?$CFs@
CONST	SEGMENT
??_C@_02DKCKIIND@?$CFs@ DB '%s', 00H			; `string'
CONST	ENDS
;	COMDAT ??_C@_0BB@FCMFBGOM@invalid?5argument@
CONST	SEGMENT
??_C@_0BB@FCMFBGOM@invalid?5argument@ DB 'invalid argument', 00H ; `string'
CONST	ENDS
;	COMDAT ?__LINE__Var@?0??_Adjust_manually_vector_aligned@std@@YAXAEAPEAXAEA_K@Z@4JA
_DATA	SEGMENT
?__LINE__Var@?0??_Adjust_manually_vector_aligned@std@@YAXAEAPEAXAEA_K@Z@4JA DD 0ccH ; `std::_Adjust_manually_vector_aligned'::`1'::__LINE__Var
_DATA	ENDS
;	COMDAT _CT??_R0?AVbad_alloc@std@@@8??0bad_alloc@std@@QEAA@AEBV01@@Z24
xdata$x	SEGMENT
_CT??_R0?AVbad_alloc@std@@@8??0bad_alloc@std@@QEAA@AEBV01@@Z24 DD 010H
	DD	imagerel ??_R0?AVbad_alloc@std@@@8
	DD	00H
	DD	0ffffffffH
	ORG $+4
	DD	018H
	DD	imagerel ??0bad_alloc@std@@QEAA@AEBV01@@Z
xdata$x	ENDS
;	COMDAT ??_R0?AVbad_alloc@std@@@8
data$r	SEGMENT
??_R0?AVbad_alloc@std@@@8 DQ FLAT:??_7type_info@@6B@	; std::bad_alloc `RTTI Type Descriptor'
	DQ	0000000000000000H
	DB	'.?AVbad_alloc@std@@', 00H
data$r	ENDS
;	COMDAT _CT??_R0?AVbad_array_new_length@std@@@8??0bad_array_new_length@std@@QEAA@AEBV01@@Z24
xdata$x	SEGMENT
_CT??_R0?AVbad_array_new_length@std@@@8??0bad_array_new_length@std@@QEAA@AEBV01@@Z24 DD 00H
	DD	imagerel ??_R0?AVbad_array_new_length@std@@@8
	DD	00H
	DD	0ffffffffH
	ORG $+4
	DD	018H
	DD	imagerel ??0bad_array_new_length@std@@QEAA@AEBV01@@Z
xdata$x	ENDS
;	COMDAT ??_R0?AVbad_array_new_length@std@@@8
data$r	SEGMENT
??_R0?AVbad_array_new_length@std@@@8 DQ FLAT:??_7type_info@@6B@ ; std::bad_array_new_length `RTTI Type Descriptor'
	DQ	0000000000000000H
	DB	'.?AVbad_array_new_length@std@@', 00H
data$r	ENDS
;	COMDAT _CTA3?AVbad_array_new_length@std@@
xdata$x	SEGMENT
_CTA3?AVbad_array_new_length@std@@ DD 03H
	DD	imagerel _CT??_R0?AVbad_array_new_length@std@@@8??0bad_array_new_length@std@@QEAA@AEBV01@@Z24
	DD	imagerel _CT??_R0?AVbad_alloc@std@@@8??0bad_alloc@std@@QEAA@AEBV01@@Z24
	DD	imagerel _CT??_R0?AVexception@std@@@8??0exception@std@@QEAA@AEBV01@@Z24
xdata$x	ENDS
;	COMDAT _TI3?AVbad_array_new_length@std@@
xdata$x	SEGMENT
_TI3?AVbad_array_new_length@std@@ DD 00H
	DD	imagerel ??1bad_array_new_length@std@@UEAA@XZ
	DD	00H
	DD	imagerel _CTA3?AVbad_array_new_length@std@@
xdata$x	ENDS
;	COMDAT _CT??_R0?AVexception@std@@@8??0exception@std@@QEAA@AEBV01@@Z24
xdata$x	SEGMENT
_CT??_R0?AVexception@std@@@8??0exception@std@@QEAA@AEBV01@@Z24 DD 00H
	DD	imagerel ??_R0?AVexception@std@@@8
	DD	00H
	DD	0ffffffffH
	ORG $+4
	DD	018H
	DD	imagerel ??0exception@std@@QEAA@AEBV01@@Z
xdata$x	ENDS
;	COMDAT ??_R0?AVexception@std@@@8
data$r	SEGMENT
??_R0?AVexception@std@@@8 DQ FLAT:??_7type_info@@6B@	; std::exception `RTTI Type Descriptor'
	DQ	0000000000000000H
	DB	'.?AVexception@std@@', 00H
data$r	ENDS
;	COMDAT ??_C@_0BF@KINCDENJ@bad?5array?5new?5length@
CONST	SEGMENT
??_C@_0BF@KINCDENJ@bad?5array?5new?5length@ DB 'bad array new length', 00H ; `string'
CONST	ENDS
;	COMDAT ??_7bad_array_new_length@std@@6B@
CONST	SEGMENT
??_7bad_array_new_length@std@@6B@ DQ FLAT:??_R4bad_array_new_length@std@@6B@ ; std::bad_array_new_length::`vftable'
	DQ	FLAT:??_Ebad_array_new_length@std@@UEAAPEAXI@Z
	DQ	FLAT:?what@exception@std@@UEBAPEBDXZ
CONST	ENDS
;	COMDAT ??_7bad_alloc@std@@6B@
CONST	SEGMENT
??_7bad_alloc@std@@6B@ DQ FLAT:??_R4bad_alloc@std@@6B@	; std::bad_alloc::`vftable'
	DQ	FLAT:??_Ebad_alloc@std@@UEAAPEAXI@Z
	DQ	FLAT:?what@exception@std@@UEBAPEBDXZ
CONST	ENDS
;	COMDAT ??_C@_0BC@EOODALEL@Unknown?5exception@
CONST	SEGMENT
??_C@_0BC@EOODALEL@Unknown?5exception@ DB 'Unknown exception', 00H ; `string'
CONST	ENDS
;	COMDAT ??_7exception@std@@6B@
CONST	SEGMENT
??_7exception@std@@6B@ DQ FLAT:??_R4exception@std@@6B@	; std::exception::`vftable'
	DQ	FLAT:??_Eexception@std@@UEAAPEAXI@Z
	DQ	FLAT:?what@exception@std@@UEBAPEBDXZ
CONST	ENDS
;	COMDAT xdata
xdata	SEGMENT
$unwind$??$_Destroy_in_place@PEAD@std@@YAXAEAPEAD@Z DD 025051301H
	DD	010e2313H
	DD	07007001dH
	DD	05006H
xdata	ENDS
;	COMDAT xdata
xdata	SEGMENT
$unwind$??$_Get_size_of_n@$0BA@@std@@YA_K_K@Z DD 025051301H
	DD	010e2313H
	DD	070070025H
	DD	05006H
xdata	ENDS
;	COMDAT xdata
xdata	SEGMENT
$unwind$??$_Allocate_manually_vector_aligned@U_Default_allocate_traits@std@@@std@@YAPEAX_K@Z DD 035051301H
	DD	010e3313H
	DD	07007002bH
	DD	05006H
xdata	ENDS
;	COMDAT xdata
xdata	SEGMENT
$unwind$??$construct_at@PEADAEAPEAD@std@@YAPEAPEADQEAPEADAEAPEAD@Z DD 025051801H
	DD	01132318H
	DD	0700c0021H
	DD	0500bH
xdata	ENDS
;	COMDAT xdata
xdata	SEGMENT
$unwind$?deallocate@?$_Default_allocator_traits@V?$allocator@U_Container_proxy@std@@@std@@@std@@SAXAEAV?$allocator@U_Container_proxy@std@@@2@QEAU_Container_proxy@2@_K@Z DD 025051d01H
	DD	0118231dH
	DD	07011001dH
	DD	05010H
xdata	ENDS
;	COMDAT xdata
xdata	SEGMENT
$unwind$??$construct_at@PEADAEBQEAD@std@@YAPEAPEADQEAPEADAEBQEAD@Z DD 025051801H
	DD	01132318H
	DD	0700c0021H
	DD	0500bH
xdata	ENDS
;	COMDAT xdata
xdata	SEGMENT
$unwind$??$addressof@PEAD@std@@YAPEAPEADAEAPEAD@Z DD 025051301H
	DD	010e2313H
	DD	07007001dH
	DD	05006H
xdata	ENDS
;	COMDAT xdata
xdata	SEGMENT
$unwind$??$construct_at@U_Container_proxy@std@@PEAU_Container_base12@2@@std@@YAPEAU_Container_proxy@0@QEAU10@$$QEAPEAU_Container_base12@0@@Z DD 025051801H
	DD	01132318H
	DD	0700c0021H
	DD	0500bH
xdata	ENDS
;	COMDAT xdata
xdata	SEGMENT
$unwind$??$addressof@U_Container_proxy@std@@@std@@YAPEAU_Container_proxy@0@AEAU10@@Z DD 025051301H
	DD	010e2313H
	DD	07007001dH
	DD	05006H
xdata	ENDS
;	COMDAT xdata
xdata	SEGMENT
$unwind$??$_Get_size_of_n@$00@std@@YA_K_K@Z DD 025051301H
	DD	010e2313H
	DD	070070021H
	DD	05006H
xdata	ENDS
;	COMDAT xdata
xdata	SEGMENT
$ip2state$??$_Deallocate@$0BA@@std@@YAXPEAX_K@Z DB 02H
	DB	00H
	DB	00H
xdata	ENDS
;	COMDAT xdata
xdata	SEGMENT
$cppxdata$??$_Deallocate@$0BA@@std@@YAXPEAX_K@Z DB 060H
	DD	imagerel $ip2state$??$_Deallocate@$0BA@@std@@YAXPEAX_K@Z
xdata	ENDS
;	COMDAT xdata
xdata	SEGMENT
$unwind$??$_Deallocate@$0BA@@std@@YAXPEAX_K@Z DD 025051819H
	DD	01132318H
	DD	0700c001dH
	DD	0500bH
	DD	imagerel __CxxFrameHandler4
	DD	imagerel $cppxdata$??$_Deallocate@$0BA@@std@@YAXPEAX_K@Z
xdata	ENDS
;	COMDAT xdata
xdata	SEGMENT
$unwind$??$_Allocate@$0BA@U_Default_allocate_traits@std@@@std@@YAPEAX_K@Z DD 025051301H
	DD	010e2313H
	DD	07007001dH
	DD	05006H
xdata	ENDS
;	COMDAT xdata
xdata	SEGMENT
$unwind$??$_Construct_in_place@PEADAEAPEAD@std@@YAXAEAPEAD0@Z DD 025051801H
	DD	01132318H
	DD	0700c0021H
	DD	0500bH
xdata	ENDS
;	COMDAT xdata
xdata	SEGMENT
$unwind$??$addressof@V?$_String_val@U?$_Simple_types@D@std@@@std@@@std@@YAPEAV?$_String_val@U?$_Simple_types@D@std@@@0@AEAV10@@Z DD 025051301H
	DD	010e2313H
	DD	07007001dH
	DD	05006H
xdata	ENDS
;	COMDAT voltbl
voltbl	SEGMENT
_volmd	DW	045H
	DW	0202H
voltbl	ENDS
;	COMDAT xdata
xdata	SEGMENT
$unwind$??$_Reallocate_grow_by@V<lambda_1>@?1???$_Append@D@?$basic_string@DU?$char_traits@D@std@@V?$allocator@D@2@@std@@AEAAAEAV23@QEBD_K@Z@PEBD_K@?$basic_string@DU?$char_traits@D@std@@V?$allocator@D@2@@std@@AEAAAEAV01@_KV<lambda_1>@?1???$_Append@D@01@AEAAAEAV01@QEBD0@Z@PEBD_K@Z DD 035054c19H
	DD	011d3322H
	DD	070160043H
	DD	05015H
	DD	imagerel __GSHandlerCheck
	DD	0208H
xdata	ENDS
;	COMDAT CONST
CONST	SEGMENT
??$_Reallocate_grow_by@V<lambda_1>@?1???$_Append@D@?$basic_string@DU?$char_traits@D@std@@V?$allocator@D@2@@std@@AEAAAEAV23@QEBD_K@Z@PEBD_K@?$basic_string@DU?$char_traits@D@std@@V?$allocator@D@2@@std@@AEAAAEAV01@_KV<lambda_1>@?1???$_Append@D@01@AEAAAEAV01@QEBD0@Z@PEBD_K@Z$rtcName$0 DB 05fH ; std::basic_string<char,std::char_traits<char>,std::allocator<char> >::_Reallocate_grow_by<`std::basic_string<char,std::char_traits<char>,std::allocator<char> >::_Append<char>'::`2'::<lambda_1>,char const *,unsigned __int64>
	DB	04eH
	DB	065H
	DB	077H
	DB	05fH
	DB	063H
	DB	061H
	DB	070H
	DB	061H
	DB	063H
	DB	069H
	DB	074H
	DB	079H
	DB	00H
	ORG $+2
??$_Reallocate_grow_by@V<lambda_1>@?1???$_Append@D@?$basic_string@DU?$char_traits@D@std@@V?$allocator@D@2@@std@@AEAAAEAV23@QEBD_K@Z@PEBD_K@?$basic_string@DU?$char_traits@D@std@@V?$allocator@D@2@@std@@AEAAAEAV01@_KV<lambda_1>@?1???$_Append@D@01@AEAAAEAV01@QEBD0@Z@PEBD_K@Z$rtcName$1 DB 05fH ; std::basic_string<char,std::char_traits<char>,std::allocator<char> >::_Reallocate_grow_by<`std::basic_string<char,std::char_traits<char>,std::allocator<char> >::_Append<char>'::`2'::<lambda_1>,char const *,unsigned __int64>
	DB	04eH
	DB	065H
	DB	077H
	DB	05fH
	DB	070H
	DB	074H
	DB	072H
	DB	00H
	ORG $+7
??$_Reallocate_grow_by@V<lambda_1>@?1???$_Append@D@?$basic_string@DU?$char_traits@D@std@@V?$allocator@D@2@@std@@AEAAAEAV23@QEBD_K@Z@PEBD_K@?$basic_string@DU?$char_traits@D@std@@V?$allocator@D@2@@std@@AEAAAEAV01@_KV<lambda_1>@?1???$_Append@D@01@AEAAAEAV01@QEBD0@Z@PEBD_K@Z$rtcVarDesc DD 0f8H ; std::basic_string<char,std::char_traits<char>,std::allocator<char> >::_Reallocate_grow_by<`std::basic_string<char,std::char_traits<char>,std::allocator<char> >::_Append<char>'::`2'::<lambda_1>,char const *,unsigned __int64>
	DD	08H
	DQ	FLAT:??$_Reallocate_grow_by@V<lambda_1>@?1???$_Append@D@?$basic_string@DU?$char_traits@D@std@@V?$allocator@D@2@@std@@AEAAAEAV23@QEBD_K@Z@PEBD_K@?$basic_string@DU?$char_traits@D@std@@V?$allocator@D@2@@std@@AEAAAEAV01@_KV<lambda_1>@?1???$_Append@D@01@AEAAAEAV01@QEBD0@Z@PEBD_K@Z$rtcName$1
	DD	0b8H
	DD	08H
	DQ	FLAT:??$_Reallocate_grow_by@V<lambda_1>@?1???$_Append@D@?$basic_string@DU?$char_traits@D@std@@V?$allocator@D@2@@std@@AEAAAEAV23@QEBD_K@Z@PEBD_K@?$basic_string@DU?$char_traits@D@std@@V?$allocator@D@2@@std@@AEAAAEAV01@_KV<lambda_1>@?1???$_Append@D@01@AEAAAEAV01@QEBD0@Z@PEBD_K@Z$rtcName$0
	ORG $+96
??$_Reallocate_grow_by@V<lambda_1>@?1???$_Append@D@?$basic_string@DU?$char_traits@D@std@@V?$allocator@D@2@@std@@AEAAAEAV23@QEBD_K@Z@PEBD_K@?$basic_string@DU?$char_traits@D@std@@V?$allocator@D@2@@std@@AEAAAEAV01@_KV<lambda_1>@?1???$_Append@D@01@AEAAAEAV01@QEBD0@Z@PEBD_K@Z$rtcFrameData DD 02H ; std::basic_string<char,std::char_traits<char>,std::allocator<char> >::_Reallocate_grow_by<`std::basic_string<char,std::char_traits<char>,std::allocator<char> >::_Append<char>'::`2'::<lambda_1>,char const *,unsigned __int64>
	DD	00H
	DQ	FLAT:??$_Reallocate_grow_by@V<lambda_1>@?1???$_Append@D@?$basic_string@DU?$char_traits@D@std@@V?$allocator@D@2@@std@@AEAAAEAV23@QEBD_K@Z@PEBD_K@?$basic_string@DU?$char_traits@D@std@@V?$allocator@D@2@@std@@AEAAAEAV01@_KV<lambda_1>@?1???$_Append@D@01@AEAAAEAV01@QEBD0@Z@PEBD_K@Z$rtcVarDesc
CONST	ENDS
;	COMDAT xdata
xdata	SEGMENT
$unwind$??R<lambda_1>@?1???$_Append@D@?$basic_string@DU?$char_traits@D@std@@V?$allocator@D@2@@std@@AEAAAEAV12@QEBD_K@Z@SA@QEAD0101@Z DD 025052201H
	DD	011d2322H
	DD	070160021H
	DD	05015H
xdata	ENDS
;	COMDAT xdata
xdata	SEGMENT
$unwind$??$_Traits_move_batch@U?$char_traits@D@std@@D@std@@YAXQEADQEBD_K@Z DD 025051d01H
	DD	0118231dH
	DD	07011001dH
	DD	05010H
xdata	ENDS
;	COMDAT xdata
xdata	SEGMENT
$unwind$??$_Unfancy@U_Container_proxy@std@@@std@@YAPEAU_Container_proxy@0@PEAU10@@Z DD 025051301H
	DD	010e2313H
	DD	07007001dH
	DD	05006H
xdata	ENDS
;	COMDAT xdata
xdata	SEGMENT
$unwind$??$_Deallocate_plain@V?$allocator@U_Container_proxy@std@@@std@@@std@@YAXAEAV?$allocator@U_Container_proxy@std@@@0@QEAU_Container_proxy@0@@Z DD 025051801H
	DD	01132318H
	DD	0700c001dH
	DD	0500bH
xdata	ENDS
;	COMDAT xdata
xdata	SEGMENT
$unwind$??$_Construct_in_place@PEADAEBQEAD@std@@YAXAEAPEADAEBQEAD@Z DD 025051801H
	DD	01132318H
	DD	0700c0021H
	DD	0500bH
xdata	ENDS
;	COMDAT xdata
xdata	SEGMENT
$unwind$??$construct_at@D$$V@std@@YAPEADQEAD@Z DD 025051301H
	DD	010e2313H
	DD	070070025H
	DD	05006H
xdata	ENDS
;	COMDAT xdata
xdata	SEGMENT
$unwind$??$_Allocate_for_capacity@$0A@@?$basic_string@DU?$char_traits@D@std@@V?$allocator@D@2@@std@@CAPEADAEAV?$allocator@D@1@AEA_K@Z DD 025051801H
	DD	01132318H
	DD	0700c0029H
	DD	0500bH
xdata	ENDS
;	COMDAT xdata
xdata	SEGMENT
$unwind$??$_Traits_copy_batch@U?$char_traits@D@std@@D@std@@YAXQEADQEBD_K@Z DD 025051d01H
	DD	0118231dH
	DD	07011001dH
	DD	05010H
xdata	ENDS
;	COMDAT xdata
xdata	SEGMENT
$unwind$??1?$_Container_proxy_ptr12@V?$allocator@U_Container_proxy@std@@@std@@@std@@QEAA@XZ DD 025051301H
	DD	010e2313H
	DD	07007001dH
	DD	05006H
xdata	ENDS
;	COMDAT xdata
xdata	SEGMENT
$unwind$??0?$_Container_proxy_ptr12@V?$allocator@U_Container_proxy@std@@@std@@@std@@QEAA@AEAV?$allocator@U_Container_proxy@std@@@1@AEAU_Container_base12@1@@Z DD 025051d01H
	DD	0118231dH
	DD	070110021H
	DD	05010H
xdata	ENDS
;	COMDAT xdata
xdata	SEGMENT
$unwind$??$_Unfancy@D@std@@YAPEADPEAD@Z DD 025051301H
	DD	010e2313H
	DD	07007001dH
	DD	05006H
xdata	ENDS
;	COMDAT xdata
xdata	SEGMENT
$unwind$??$_Allocate_at_least_helper@V?$allocator@D@std@@@std@@YAPEADAEAV?$allocator@D@0@AEA_K@Z DD 025051801H
	DD	01132318H
	DD	0700c001dH
	DD	0500bH
xdata	ENDS
;	COMDAT xdata
xdata	SEGMENT
$unwind$??$?0$$V@?$_Compressed_pair@V?$allocator@D@std@@V?$_String_val@U?$_Simple_types@D@std@@@2@$00@std@@QEAA@U_Zero_then_variadic_args_t@1@@Z DD 025051701H
	DD	01122317H
	DD	0700b001dH
	DD	0500aH
xdata	ENDS
;	COMDAT xdata
xdata	SEGMENT
$unwind$??$?0V?$allocator@D@std@@$$V@?$_Compressed_pair@V?$allocator@D@std@@V?$_String_val@U?$_Simple_types@D@std@@@2@$00@std@@QEAA@U_One_then_variadic_args_t@1@$$QEAV?$allocator@D@1@@Z DD 025051c01H
	DD	0117231cH
	DD	07010001dH
	DD	0500fH
xdata	ENDS
;	COMDAT xdata
xdata	SEGMENT
$unwind$??$?0D@?$allocator@U_Container_proxy@std@@@std@@QEAA@AEBV?$allocator@D@1@@Z DD 025051801H
	DD	01132318H
	DD	0700c001dH
	DD	0500bH
xdata	ENDS
;	COMDAT xdata
xdata	SEGMENT
$unwind$??$_Get_proxy_allocator@V?$allocator@D@std@@@std@@YA?AV?$allocator@U_Container_proxy@std@@@0@AEBV?$allocator@D@0@@Z DD 025051801H
	DD	01132318H
	DD	0700c001dH
	DD	0500bH
xdata	ENDS
;	COMDAT xdata
xdata	SEGMENT
$unwind$??$_Append@D@?$basic_string@DU?$char_traits@D@std@@V?$allocator@D@2@@std@@AEAAAEAV01@QEBD_K@Z DD 035051d01H
	DD	0118331dH
	DD	07011002fH
	DD	05010H
xdata	ENDS
;	COMDAT xdata
xdata	SEGMENT
$unwind$??$_Alloc_proxy@V?$allocator@U_Container_proxy@std@@@std@@@_Container_base12@std@@QEAAX$$QEAV?$allocator@U_Container_proxy@std@@@1@@Z DD 025051801H
	DD	01132318H
	DD	0700c0025H
	DD	0500bH
xdata	ENDS
;	COMDAT xdata
xdata	SEGMENT
$unwind$??$_Delete_plain_internal@V?$allocator@U_Container_proxy@std@@@std@@@std@@YAXAEAV?$allocator@U_Container_proxy@std@@@0@QEAU_Container_proxy@0@@Z DD 025051801H
	DD	01132318H
	DD	0700c001dH
	DD	0500bH
xdata	ENDS
;	COMDAT xdata
xdata	SEGMENT
$unwind$?allocate@?$allocator@U_Container_proxy@std@@@std@@QEAAPEAU_Container_proxy@2@_K@Z DD 025051801H
	DD	01132318H
	DD	0700c001dH
	DD	0500bH
xdata	ENDS
;	COMDAT xdata
xdata	SEGMENT
$unwind$?deallocate@?$allocator@U_Container_proxy@std@@@std@@QEAAXQEAU_Container_proxy@2@_K@Z DD 035051d01H
	DD	0118331dH
	DD	07011001fH
	DD	05010H
xdata	ENDS
;	COMDAT voltbl
voltbl	SEGMENT
_volmd	DB	00H
	DB	05H
voltbl	ENDS
;	COMDAT voltbl
voltbl	SEGMENT
_volmd	DW	040H
	DW	0213H
voltbl	ENDS
;	COMDAT xdata
xdata	SEGMENT
$unwind$?dtor$0@?0???$_Construct@$00PEBD@?$basic_string@DU?$char_traits@D@std@@V?$allocator@D@2@@std@@AEAAXQEBD_K@Z@4HA DD 031001H
	DD	0700c4210H
	DD	0500bH
xdata	ENDS
;	COMDAT xdata
xdata	SEGMENT
$ip2state$??$_Construct@$00PEBD@?$basic_string@DU?$char_traits@D@std@@V?$allocator@D@2@@std@@AEAAXQEBD_K@Z DB 0aH
	DB	00H
	DB	00H
	DB	0a9H, 02H
	DB	02H
	DB	0eaH
	DB	00H
	DB	01eH
	DB	02H
	DB	'-', 03H
	DB	00H
xdata	ENDS
;	COMDAT xdata
xdata	SEGMENT
$stateUnwindMap$??$_Construct@$00PEBD@?$basic_string@DU?$char_traits@D@std@@V?$allocator@D@2@@std@@AEAAXQEBD_K@Z DB 02H
	DB	0eH
	DD	imagerel ?dtor$0@?0???$_Construct@$00PEBD@?$basic_string@DU?$char_traits@D@std@@V?$allocator@D@2@@std@@AEAAXQEBD_K@Z@4HA
xdata	ENDS
;	COMDAT xdata
xdata	SEGMENT
$cppxdata$??$_Construct@$00PEBD@?$basic_string@DU?$char_traits@D@std@@V?$allocator@D@2@@std@@AEAAXQEBD_K@Z DB 028H
	DD	imagerel $stateUnwindMap$??$_Construct@$00PEBD@?$basic_string@DU?$char_traits@D@std@@V?$allocator@D@2@@std@@AEAAXQEBD_K@Z
	DD	imagerel $ip2state$??$_Construct@$00PEBD@?$basic_string@DU?$char_traits@D@std@@V?$allocator@D@2@@std@@AEAAXQEBD_K@Z
xdata	ENDS
;	COMDAT xdata
xdata	SEGMENT
$unwind$??$_Construct@$00PEBD@?$basic_string@DU?$char_traits@D@std@@V?$allocator@D@2@@std@@AEAAXQEBD_K@Z DD 025054719H
	DD	0118231dH
	DD	07011003fH
	DD	05010H
	DD	imagerel __GSHandlerCheck_EH4
	DD	imagerel $cppxdata$??$_Construct@$00PEBD@?$basic_string@DU?$char_traits@D@std@@V?$allocator@D@2@@std@@AEAAXQEBD_K@Z
	DD	01eaH
xdata	ENDS
;	COMDAT CONST
CONST	SEGMENT
??$_Construct@$00PEBD@?$basic_string@DU?$char_traits@D@std@@V?$allocator@D@2@@std@@AEAAXQEBD_K@Z$rtcName$0 DB 05fH ; std::basic_string<char,std::char_traits<char>,std::allocator<char> >::_Construct<1,char const *>
	DB	041H
	DB	06cH
	DB	070H
	DB	072H
	DB	06fH
	DB	078H
	DB	079H
	DB	00H
	ORG $+3
??$_Construct@$00PEBD@?$basic_string@DU?$char_traits@D@std@@V?$allocator@D@2@@std@@AEAAXQEBD_K@Z$rtcName$1 DB 05fH ; std::basic_string<char,std::char_traits<char>,std::allocator<char> >::_Construct<1,char const *>
	DB	050H
	DB	072H
	DB	06fH
	DB	078H
	DB	079H
	DB	00H
	ORG $+5
??$_Construct@$00PEBD@?$basic_string@DU?$char_traits@D@std@@V?$allocator@D@2@@std@@AEAAXQEBD_K@Z$rtcName$2 DB 05fH ; std::basic_string<char,std::char_traits<char>,std::allocator<char> >::_Construct<1,char const *>
	DB	04eH
	DB	065H
	DB	077H
	DB	05fH
	DB	063H
	DB	061H
	DB	070H
	DB	061H
	DB	063H
	DB	069H
	DB	074H
	DB	079H
	DB	00H
	ORG $+2
??$_Construct@$00PEBD@?$basic_string@DU?$char_traits@D@std@@V?$allocator@D@2@@std@@AEAAXQEBD_K@Z$rtcName$3 DB 05fH ; std::basic_string<char,std::char_traits<char>,std::allocator<char> >::_Construct<1,char const *>
	DB	04eH
	DB	065H
	DB	077H
	DB	05fH
	DB	070H
	DB	074H
	DB	072H
	DB	00H
	ORG $+15
??$_Construct@$00PEBD@?$basic_string@DU?$char_traits@D@std@@V?$allocator@D@2@@std@@AEAAXQEBD_K@Z$rtcVarDesc DD 0d8H ; std::basic_string<char,std::char_traits<char>,std::allocator<char> >::_Construct<1,char const *>
	DD	08H
	DQ	FLAT:??$_Construct@$00PEBD@?$basic_string@DU?$char_traits@D@std@@V?$allocator@D@2@@std@@AEAAXQEBD_K@Z$rtcName$3
	DD	0b8H
	DD	08H
	DQ	FLAT:??$_Construct@$00PEBD@?$basic_string@DU?$char_traits@D@std@@V?$allocator@D@2@@std@@AEAAXQEBD_K@Z$rtcName$2
	DD	088H
	DD	010H
	DQ	FLAT:??$_Construct@$00PEBD@?$basic_string@DU?$char_traits@D@std@@V?$allocator@D@2@@std@@AEAAXQEBD_K@Z$rtcName$1
	DD	064H
	DD	01H
	DQ	FLAT:??$_Construct@$00PEBD@?$basic_string@DU?$char_traits@D@std@@V?$allocator@D@2@@std@@AEAAXQEBD_K@Z$rtcName$0
	ORG $+192
??$_Construct@$00PEBD@?$basic_string@DU?$char_traits@D@std@@V?$allocator@D@2@@std@@AEAAXQEBD_K@Z$rtcFrameData DD 04H ; std::basic_string<char,std::char_traits<char>,std::allocator<char> >::_Construct<1,char const *>
	DD	00H
	DQ	FLAT:??$_Construct@$00PEBD@?$basic_string@DU?$char_traits@D@std@@V?$allocator@D@2@@std@@AEAAXQEBD_K@Z$rtcVarDesc
CONST	ENDS
;	COMDAT xdata
xdata	SEGMENT
$unwind$??$_Convert_size@_K_K@std@@YA_K_K@Z DD 025051301H
	DD	010e2313H
	DD	07007001dH
	DD	05006H
xdata	ENDS
;	COMDAT xdata
xdata	SEGMENT
$unwind$??_Gui512_stub_testing@ui512_Unit_Tests@@UEAAPEAXI@Z DD 025051701H
	DD	01122317H
	DD	0700b001dH
	DD	0500aH
xdata	ENDS
;	COMDAT xdata
xdata	SEGMENT
$unwind$??1ui512_stub_testing@ui512_Unit_Tests@@UEAA@XZ DD 025051301H
	DD	010e2313H
	DD	07007001dH
	DD	05006H
xdata	ENDS
;	COMDAT xdata
xdata	SEGMENT
$unwind$??0ui512_stub_testing@ui512_Unit_Tests@@QEAA@XZ DD 025051301H
	DD	010e2313H
	DD	07007001dH
	DD	05006H
xdata	ENDS
;	COMDAT voltbl
voltbl	SEGMENT
_volmd	DB	00H
	DB	05H
voltbl	ENDS
;	COMDAT voltbl
voltbl	SEGMENT
_volmd	DB	00H
	DB	05H
voltbl	ENDS
;	COMDAT voltbl
voltbl	SEGMENT
_volmd	DB	00H
	DB	05H
voltbl	ENDS
;	COMDAT voltbl
voltbl	SEGMENT
_volmd	DW	036H
	DW	0ffH
voltbl	ENDS
;	COMDAT xdata
xdata	SEGMENT
$unwind$?dtor$2@?0??ui512_01@ui512_stub_testing@ui512_Unit_Tests@@AEAAXXZ@4HA DD 031001H
	DD	0700c4210H
	DD	0500bH
xdata	ENDS
;	COMDAT xdata
xdata	SEGMENT
$unwind$?dtor$1@?0??ui512_01@ui512_stub_testing@ui512_Unit_Tests@@AEAAXXZ@4HA DD 031001H
	DD	0700c4210H
	DD	0500bH
xdata	ENDS
;	COMDAT xdata
xdata	SEGMENT
$unwind$?dtor$0@?0??ui512_01@ui512_stub_testing@ui512_Unit_Tests@@AEAAXXZ@4HA DD 031001H
	DD	0700c4210H
	DD	0500bH
xdata	ENDS
;	COMDAT xdata
xdata	SEGMENT
$ip2state$?ui512_01@ui512_stub_testing@ui512_Unit_Tests@@AEAAXXZ DB 0cH
	DB	00H
	DB	00H
	DB	0e4H
	DB	02H
	DB	'^'
	DB	04H
	DB	'0'
	DB	08H
	DB	01aH
	DB	0aH
	DB	'>'
	DB	00H
xdata	ENDS
;	COMDAT xdata
xdata	SEGMENT
$stateUnwindMap$?ui512_01@ui512_stub_testing@ui512_Unit_Tests@@AEAAXXZ DB 0aH
	DB	0eH
	DD	imagerel ?dtor$0@?0??ui512_01@ui512_stub_testing@ui512_Unit_Tests@@AEAAXXZ@4HA
	DB	02eH
	DD	imagerel ?dtor$1@?0??ui512_01@ui512_stub_testing@ui512_Unit_Tests@@AEAAXXZ@4HA
	DB	02eH
	DD	imagerel ?dtor$2@?0??ui512_01@ui512_stub_testing@ui512_Unit_Tests@@AEAAXXZ@4HA
	DB	07eH
	DD	imagerel ?dtor$2@?0??ui512_01@ui512_stub_testing@ui512_Unit_Tests@@AEAAXXZ@4HA
	DB	0aeH
	DD	imagerel ?dtor$2@?0??ui512_01@ui512_stub_testing@ui512_Unit_Tests@@AEAAXXZ@4HA
xdata	ENDS
;	COMDAT xdata
xdata	SEGMENT
$cppxdata$?ui512_01@ui512_stub_testing@ui512_Unit_Tests@@AEAAXXZ DB 028H
	DD	imagerel $stateUnwindMap$?ui512_01@ui512_stub_testing@ui512_Unit_Tests@@AEAAXXZ
	DD	imagerel $ip2state$?ui512_01@ui512_stub_testing@ui512_Unit_Tests@@AEAAXXZ
xdata	ENDS
;	COMDAT xdata
xdata	SEGMENT
$unwind$?ui512_01@ui512_stub_testing@ui512_Unit_Tests@@AEAAXXZ DD 025053d19H
	DD	010e2313H
	DD	070070039H
	DD	05006H
	DD	imagerel __GSHandlerCheck_EH4
	DD	imagerel $cppxdata$?ui512_01@ui512_stub_testing@ui512_Unit_Tests@@AEAAXXZ
	DD	01baH
xdata	ENDS
;	COMDAT CONST
CONST	SEGMENT
?ui512_01@ui512_stub_testing@ui512_Unit_Tests@@AEAAXXZ$rtcName$0 DB 074H ; ui512_Unit_Tests::ui512_stub_testing::ui512_01
	DB	065H
	DB	073H
	DB	074H
	DB	05fH
	DB	06dH
	DB	065H
	DB	073H
	DB	073H
	DB	061H
	DB	067H
	DB	065H
	DB	00H
	ORG $+3
?ui512_01@ui512_stub_testing@ui512_Unit_Tests@@AEAAXXZ$rtcVarDesc DD 028H ; ui512_Unit_Tests::ui512_stub_testing::ui512_01
	DD	028H
	DQ	FLAT:?ui512_01@ui512_stub_testing@ui512_Unit_Tests@@AEAAXXZ$rtcName$0
	ORG $+48
?ui512_01@ui512_stub_testing@ui512_Unit_Tests@@AEAAXXZ$rtcFrameData DD 01H ; ui512_Unit_Tests::ui512_stub_testing::ui512_01
	DD	00H
	DQ	FLAT:?ui512_01@ui512_stub_testing@ui512_Unit_Tests@@AEAAXXZ$rtcVarDesc
CONST	ENDS
;	COMDAT xdata
xdata	SEGMENT
$unwind$?__GetTestMethodInfo_ui512_01@ui512_stub_testing@ui512_Unit_Tests@@CAPEBUMemberMethodInfo@CppUnitTestFramework@VisualStudio@Microsoft@@XZ DD 025050f01H
	DD	010a230fH
	DD	07003001dH
	DD	05002H
xdata	ENDS
;	COMDAT xdata
xdata	SEGMENT
$unwind$??_G?$TestClass@Vui512_stub_testing@ui512_Unit_Tests@@@CppUnitTestFramework@VisualStudio@Microsoft@@UEAAPEAXI@Z DD 025051701H
	DD	01122317H
	DD	0700b001dH
	DD	0500aH
xdata	ENDS
;	COMDAT xdata
xdata	SEGMENT
$unwind$??0?$TestClass@Vui512_stub_testing@ui512_Unit_Tests@@@CppUnitTestFramework@VisualStudio@Microsoft@@QEAA@XZ DD 025051301H
	DD	010e2313H
	DD	07007001dH
	DD	05006H
xdata	ENDS
;	COMDAT xdata
xdata	SEGMENT
$unwind$?__GetTestVersion@?$TestClass@Vui512_stub_testing@ui512_Unit_Tests@@@CppUnitTestFramework@VisualStudio@Microsoft@@SAPEBUTestDataVersion@234@XZ DD 025050f01H
	DD	010a230fH
	DD	07003001dH
	DD	05002H
xdata	ENDS
;	COMDAT xdata
xdata	SEGMENT
$unwind$?__GetTestClassInfo@?$TestClass@Vui512_stub_testing@ui512_Unit_Tests@@@CppUnitTestFramework@VisualStudio@Microsoft@@SAPEBUTestClassInfo@234@XZ DD 025050f01H
	DD	010a230fH
	DD	07003001dH
	DD	05002H
xdata	ENDS
;	COMDAT voltbl
voltbl	SEGMENT
_volmd	DB	00H
	DB	05H
voltbl	ENDS
;	COMDAT voltbl
voltbl	SEGMENT
_volmd	DB	03bH
	DB	089H
voltbl	ENDS
;	COMDAT xdata
xdata	SEGMENT
$unwind$?dtor$0@?0??__Invoke@?$TestClass@Vui512_stub_testing@ui512_Unit_Tests@@@CppUnitTestFramework@VisualStudio@Microsoft@@UEAAXP8TestClassImpl@234@EAAXXZ@Z@4HA DD 031001H
	DD	0700c4210H
	DD	0500bH
xdata	ENDS
;	COMDAT xdata
xdata	SEGMENT
$ip2state$?__Invoke@?$TestClass@Vui512_stub_testing@ui512_Unit_Tests@@@CppUnitTestFramework@VisualStudio@Microsoft@@UEAAXP8TestClassImpl@234@EAAXXZ@Z DB 06H
	DB	00H
	DB	00H
	DB	0c8H
	DB	02H
	DB	016H
	DB	00H
xdata	ENDS
;	COMDAT xdata
xdata	SEGMENT
$stateUnwindMap$?__Invoke@?$TestClass@Vui512_stub_testing@ui512_Unit_Tests@@@CppUnitTestFramework@VisualStudio@Microsoft@@UEAAXP8TestClassImpl@234@EAAXXZ@Z DB 02H
	DB	0eH
	DD	imagerel ?dtor$0@?0??__Invoke@?$TestClass@Vui512_stub_testing@ui512_Unit_Tests@@@CppUnitTestFramework@VisualStudio@Microsoft@@UEAAXP8TestClassImpl@234@EAAXXZ@Z@4HA
xdata	ENDS
;	COMDAT xdata
xdata	SEGMENT
$cppxdata$?__Invoke@?$TestClass@Vui512_stub_testing@ui512_Unit_Tests@@@CppUnitTestFramework@VisualStudio@Microsoft@@UEAAXP8TestClassImpl@234@EAAXXZ@Z DB 028H
	DD	imagerel $stateUnwindMap$?__Invoke@?$TestClass@Vui512_stub_testing@ui512_Unit_Tests@@@CppUnitTestFramework@VisualStudio@Microsoft@@UEAAXP8TestClassImpl@234@EAAXXZ@Z
	DD	imagerel $ip2state$?__Invoke@?$TestClass@Vui512_stub_testing@ui512_Unit_Tests@@@CppUnitTestFramework@VisualStudio@Microsoft@@UEAAXP8TestClassImpl@234@EAAXXZ@Z
xdata	ENDS
;	COMDAT xdata
xdata	SEGMENT
$unwind$?__Invoke@?$TestClass@Vui512_stub_testing@ui512_Unit_Tests@@@CppUnitTestFramework@VisualStudio@Microsoft@@UEAAXP8TestClassImpl@234@EAAXXZ@Z DD 025054219H
	DD	01132318H
	DD	0700c0029H
	DD	0500bH
	DD	imagerel __GSHandlerCheck_EH4
	DD	imagerel $cppxdata$?__Invoke@?$TestClass@Vui512_stub_testing@ui512_Unit_Tests@@@CppUnitTestFramework@VisualStudio@Microsoft@@UEAAXP8TestClassImpl@234@EAAXXZ@Z
	DD	013aH
xdata	ENDS
;	COMDAT CONST
CONST	SEGMENT
?__Invoke@?$TestClass@Vui512_stub_testing@ui512_Unit_Tests@@@CppUnitTestFramework@VisualStudio@Microsoft@@UEAAXP8TestClassImpl@234@EAAXXZ@Z$rtcName$0 DB 073H ; Microsoft::VisualStudio::CppUnitTestFramework::TestClass<ui512_Unit_Tests::ui512_stub_testing>::__Invoke
	DB	065H
	DB	074H
	DB	074H
	DB	065H
	DB	072H
	DB	00H
	ORG $+9
?__Invoke@?$TestClass@Vui512_stub_testing@ui512_Unit_Tests@@@CppUnitTestFramework@VisualStudio@Microsoft@@UEAAXP8TestClassImpl@234@EAAXXZ@Z$rtcVarDesc DD 048H ; Microsoft::VisualStudio::CppUnitTestFramework::TestClass<ui512_Unit_Tests::ui512_stub_testing>::__Invoke
	DD	020H
	DQ	FLAT:?__Invoke@?$TestClass@Vui512_stub_testing@ui512_Unit_Tests@@@CppUnitTestFramework@VisualStudio@Microsoft@@UEAAXP8TestClassImpl@234@EAAXXZ@Z$rtcName$0
	ORG $+48
?__Invoke@?$TestClass@Vui512_stub_testing@ui512_Unit_Tests@@@CppUnitTestFramework@VisualStudio@Microsoft@@UEAAXP8TestClassImpl@234@EAAXXZ@Z$rtcFrameData DD 01H ; Microsoft::VisualStudio::CppUnitTestFramework::TestClass<ui512_Unit_Tests::ui512_stub_testing>::__Invoke
	DD	00H
	DQ	FLAT:?__Invoke@?$TestClass@Vui512_stub_testing@ui512_Unit_Tests@@@CppUnitTestFramework@VisualStudio@Microsoft@@UEAAXP8TestClassImpl@234@EAAXXZ@Z$rtcVarDesc
CONST	ENDS
;	COMDAT xdata
xdata	SEGMENT
$unwind$??1?$TestClass@Vui512_stub_testing@ui512_Unit_Tests@@@CppUnitTestFramework@VisualStudio@Microsoft@@UEAA@XZ DD 025051301H
	DD	010e2313H
	DD	07007001dH
	DD	05006H
xdata	ENDS
;	COMDAT voltbl
voltbl	SEGMENT
_volmd	DB	00H
	DB	05H
voltbl	ENDS
;	COMDAT voltbl
voltbl	SEGMENT
_volmd	DB	036H
	DB	0c0H
voltbl	ENDS
;	COMDAT xdata
xdata	SEGMENT
$unwind$?dtor$0@?0??__Delete@?$TestClass@Vui512_stub_testing@ui512_Unit_Tests@@@CppUnitTestFramework@VisualStudio@Microsoft@@SAXPEAVTestClassImpl@234@@Z@4HA DD 031001H
	DD	0700c4210H
	DD	0500bH
xdata	ENDS
;	COMDAT xdata
xdata	SEGMENT
$ip2state$?__Delete@?$TestClass@Vui512_stub_testing@ui512_Unit_Tests@@@CppUnitTestFramework@VisualStudio@Microsoft@@SAXPEAVTestClassImpl@234@@Z DB 06H
	DB	00H
	DB	00H
	DB	0a8H
	DB	02H
	DB	0a4H
	DB	00H
xdata	ENDS
;	COMDAT xdata
xdata	SEGMENT
$stateUnwindMap$?__Delete@?$TestClass@Vui512_stub_testing@ui512_Unit_Tests@@@CppUnitTestFramework@VisualStudio@Microsoft@@SAXPEAVTestClassImpl@234@@Z DB 02H
	DB	0eH
	DD	imagerel ?dtor$0@?0??__Delete@?$TestClass@Vui512_stub_testing@ui512_Unit_Tests@@@CppUnitTestFramework@VisualStudio@Microsoft@@SAXPEAVTestClassImpl@234@@Z@4HA
xdata	ENDS
;	COMDAT xdata
xdata	SEGMENT
$cppxdata$?__Delete@?$TestClass@Vui512_stub_testing@ui512_Unit_Tests@@@CppUnitTestFramework@VisualStudio@Microsoft@@SAXPEAVTestClassImpl@234@@Z DB 028H
	DD	imagerel $stateUnwindMap$?__Delete@?$TestClass@Vui512_stub_testing@ui512_Unit_Tests@@@CppUnitTestFramework@VisualStudio@Microsoft@@SAXPEAVTestClassImpl@234@@Z
	DD	imagerel $ip2state$?__Delete@?$TestClass@Vui512_stub_testing@ui512_Unit_Tests@@@CppUnitTestFramework@VisualStudio@Microsoft@@SAXPEAVTestClassImpl@234@@Z
xdata	ENDS
;	COMDAT xdata
xdata	SEGMENT
$unwind$?__Delete@?$TestClass@Vui512_stub_testing@ui512_Unit_Tests@@@CppUnitTestFramework@VisualStudio@Microsoft@@SAXPEAVTestClassImpl@234@@Z DD 025053d19H
	DD	010e2313H
	DD	07007002bH
	DD	05006H
	DD	imagerel __GSHandlerCheck_EH4
	DD	imagerel $cppxdata$?__Delete@?$TestClass@Vui512_stub_testing@ui512_Unit_Tests@@@CppUnitTestFramework@VisualStudio@Microsoft@@SAXPEAVTestClassImpl@234@@Z
	DD	014aH
xdata	ENDS
;	COMDAT CONST
CONST	SEGMENT
?__Delete@?$TestClass@Vui512_stub_testing@ui512_Unit_Tests@@@CppUnitTestFramework@VisualStudio@Microsoft@@SAXPEAVTestClassImpl@234@@Z$rtcName$0 DB 073H ; Microsoft::VisualStudio::CppUnitTestFramework::TestClass<ui512_Unit_Tests::ui512_stub_testing>::__Delete
	DB	065H
	DB	074H
	DB	074H
	DB	065H
	DB	072H
	DB	00H
	ORG $+9
?__Delete@?$TestClass@Vui512_stub_testing@ui512_Unit_Tests@@@CppUnitTestFramework@VisualStudio@Microsoft@@SAXPEAVTestClassImpl@234@@Z$rtcVarDesc DD 028H ; Microsoft::VisualStudio::CppUnitTestFramework::TestClass<ui512_Unit_Tests::ui512_stub_testing>::__Delete
	DD	020H
	DQ	FLAT:?__Delete@?$TestClass@Vui512_stub_testing@ui512_Unit_Tests@@@CppUnitTestFramework@VisualStudio@Microsoft@@SAXPEAVTestClassImpl@234@@Z$rtcName$0
	ORG $+48
?__Delete@?$TestClass@Vui512_stub_testing@ui512_Unit_Tests@@@CppUnitTestFramework@VisualStudio@Microsoft@@SAXPEAVTestClassImpl@234@@Z$rtcFrameData DD 01H ; Microsoft::VisualStudio::CppUnitTestFramework::TestClass<ui512_Unit_Tests::ui512_stub_testing>::__Delete
	DD	00H
	DQ	FLAT:?__Delete@?$TestClass@Vui512_stub_testing@ui512_Unit_Tests@@@CppUnitTestFramework@VisualStudio@Microsoft@@SAXPEAVTestClassImpl@234@@Z$rtcVarDesc
CONST	ENDS
;	COMDAT voltbl
voltbl	SEGMENT
_volmd	DB	00H
	DB	05H
voltbl	ENDS
;	COMDAT voltbl
voltbl	SEGMENT
_volmd	DB	00H
	DB	05H
voltbl	ENDS
;	COMDAT voltbl
voltbl	SEGMENT
_volmd	DB	02aH
	DB	0d5H
voltbl	ENDS
;	COMDAT xdata
xdata	SEGMENT
$unwind$?dtor$1@?0??__New@?$TestClass@Vui512_stub_testing@ui512_Unit_Tests@@@CppUnitTestFramework@VisualStudio@Microsoft@@SAPEAVTestClassImpl@234@XZ@4HA DD 031001H
	DD	0700c4210H
	DD	0500bH
xdata	ENDS
;	COMDAT xdata
xdata	SEGMENT
$unwind$?dtor$0@?0??__New@?$TestClass@Vui512_stub_testing@ui512_Unit_Tests@@@CppUnitTestFramework@VisualStudio@Microsoft@@SAPEAVTestClassImpl@234@XZ@4HA DD 031001H
	DD	0700c4210H
	DD	0500bH
xdata	ENDS
;	COMDAT xdata
xdata	SEGMENT
$ip2state$?__New@?$TestClass@Vui512_stub_testing@ui512_Unit_Tests@@@CppUnitTestFramework@VisualStudio@Microsoft@@SAPEAVTestClassImpl@234@XZ DB 0aH
	DB	00H
	DB	00H
	DB	090H
	DB	02H
	DB	'"'
	DB	04H
	DB	090H
	DB	02H
	DB	01cH
	DB	00H
xdata	ENDS
;	COMDAT xdata
xdata	SEGMENT
$stateUnwindMap$?__New@?$TestClass@Vui512_stub_testing@ui512_Unit_Tests@@@CppUnitTestFramework@VisualStudio@Microsoft@@SAPEAVTestClassImpl@234@XZ DB 04H
	DB	0eH
	DD	imagerel ?dtor$0@?0??__New@?$TestClass@Vui512_stub_testing@ui512_Unit_Tests@@@CppUnitTestFramework@VisualStudio@Microsoft@@SAPEAVTestClassImpl@234@XZ@4HA
	DB	02eH
	DD	imagerel ?dtor$1@?0??__New@?$TestClass@Vui512_stub_testing@ui512_Unit_Tests@@@CppUnitTestFramework@VisualStudio@Microsoft@@SAPEAVTestClassImpl@234@XZ@4HA
xdata	ENDS
;	COMDAT xdata
xdata	SEGMENT
$cppxdata$?__New@?$TestClass@Vui512_stub_testing@ui512_Unit_Tests@@@CppUnitTestFramework@VisualStudio@Microsoft@@SAPEAVTestClassImpl@234@XZ DB 028H
	DD	imagerel $stateUnwindMap$?__New@?$TestClass@Vui512_stub_testing@ui512_Unit_Tests@@@CppUnitTestFramework@VisualStudio@Microsoft@@SAPEAVTestClassImpl@234@XZ
	DD	imagerel $ip2state$?__New@?$TestClass@Vui512_stub_testing@ui512_Unit_Tests@@@CppUnitTestFramework@VisualStudio@Microsoft@@SAPEAVTestClassImpl@234@XZ
xdata	ENDS
;	COMDAT xdata
xdata	SEGMENT
$unwind$?__New@?$TestClass@Vui512_stub_testing@ui512_Unit_Tests@@@CppUnitTestFramework@VisualStudio@Microsoft@@SAPEAVTestClassImpl@234@XZ DD 025053119H
	DD	010a230fH
	DD	070030033H
	DD	05002H
	DD	imagerel __GSHandlerCheck_EH4
	DD	imagerel $cppxdata$?__New@?$TestClass@Vui512_stub_testing@ui512_Unit_Tests@@@CppUnitTestFramework@VisualStudio@Microsoft@@SAPEAVTestClassImpl@234@XZ
	DD	0182H
xdata	ENDS
;	COMDAT CONST
CONST	SEGMENT
?__New@?$TestClass@Vui512_stub_testing@ui512_Unit_Tests@@@CppUnitTestFramework@VisualStudio@Microsoft@@SAPEAVTestClassImpl@234@XZ$rtcName$0 DB 073H ; Microsoft::VisualStudio::CppUnitTestFramework::TestClass<ui512_Unit_Tests::ui512_stub_testing>::__New
	DB	065H
	DB	074H
	DB	074H
	DB	065H
	DB	072H
	DB	00H
	ORG $+9
?__New@?$TestClass@Vui512_stub_testing@ui512_Unit_Tests@@@CppUnitTestFramework@VisualStudio@Microsoft@@SAPEAVTestClassImpl@234@XZ$rtcVarDesc DD 028H ; Microsoft::VisualStudio::CppUnitTestFramework::TestClass<ui512_Unit_Tests::ui512_stub_testing>::__New
	DD	020H
	DQ	FLAT:?__New@?$TestClass@Vui512_stub_testing@ui512_Unit_Tests@@@CppUnitTestFramework@VisualStudio@Microsoft@@SAPEAVTestClassImpl@234@XZ$rtcName$0
	ORG $+48
?__New@?$TestClass@Vui512_stub_testing@ui512_Unit_Tests@@@CppUnitTestFramework@VisualStudio@Microsoft@@SAPEAVTestClassImpl@234@XZ$rtcFrameData DD 01H ; Microsoft::VisualStudio::CppUnitTestFramework::TestClass<ui512_Unit_Tests::ui512_stub_testing>::__New
	DD	00H
	DQ	FLAT:?__New@?$TestClass@Vui512_stub_testing@ui512_Unit_Tests@@@CppUnitTestFramework@VisualStudio@Microsoft@@SAPEAVTestClassImpl@234@XZ$rtcVarDesc
CONST	ENDS
;	COMDAT xdata
xdata	SEGMENT
$unwind$??$?HDU?$char_traits@D@std@@V?$allocator@D@1@@std@@YA?AV?$basic_string@DU?$char_traits@D@std@@V?$allocator@D@2@@0@$$QEAV10@QEBD@Z DD 025051d01H
	DD	0118231dH
	DD	070110021H
	DD	05010H
xdata	ENDS
;	COMDAT xdata
xdata	SEGMENT
$unwind$??$max@_K@std@@YAAEB_KAEB_K0@Z DD 025051801H
	DD	01132318H
	DD	0700c0021H
	DD	0500bH
xdata	ENDS
;	COMDAT xdata
xdata	SEGMENT
$unwind$??$_Getvals@_W@?$time_get@_WV?$istreambuf_iterator@_WU?$char_traits@_W@std@@@std@@@std@@IEAAX_WAEBV_Locinfo@1@@Z DD 025061e01H
	DD	0119231eH
	DD	070120026H
	DD	050106011H
xdata	ENDS
;	COMDAT xdata
xdata	SEGMENT
$unwind$??$_Getvals@_W@?$time_get@DV?$istreambuf_iterator@DU?$char_traits@D@std@@@std@@@std@@IEAAX_WAEBV_Locinfo@1@@Z DD 025061e01H
	DD	0119231eH
	DD	070120026H
	DD	050106011H
xdata	ENDS
;	COMDAT xdata
xdata	SEGMENT
$unwind$??_GTestClassImpl@CppUnitTestFramework@VisualStudio@Microsoft@@UEAAPEAXI@Z DD 025051701H
	DD	01122317H
	DD	0700b001dH
	DD	0500aH
xdata	ENDS
;	COMDAT xdata
xdata	SEGMENT
$unwind$??1CrtHandlersSetter@TestClassImpl@CppUnitTestFramework@VisualStudio@Microsoft@@QEAA@XZ DD 025051301H
	DD	010e2313H
	DD	07007001dH
	DD	05006H
xdata	ENDS
;	COMDAT xdata
xdata	SEGMENT
$unwind$??0CrtHandlersSetter@TestClassImpl@CppUnitTestFramework@VisualStudio@Microsoft@@QEAA@XZ DD 025051301H
	DD	010e2313H
	DD	07007001dH
	DD	05006H
xdata	ENDS
;	COMDAT xdata
xdata	SEGMENT
$unwind$??1TestClassImpl@CppUnitTestFramework@VisualStudio@Microsoft@@UEAA@XZ DD 025051301H
	DD	010e2313H
	DD	07007001dH
	DD	05006H
xdata	ENDS
;	COMDAT xdata
xdata	SEGMENT
$unwind$??0TestClassImpl@CppUnitTestFramework@VisualStudio@Microsoft@@QEAA@XZ DD 025051301H
	DD	010e2313H
	DD	07007001dH
	DD	05006H
xdata	ENDS
;	COMDAT xdata
xdata	SEGMENT
$unwind$?WriteMessage@Logger@CppUnitTestFramework@VisualStudio@Microsoft@@SAXPEBD@Z DD 025051301H
	DD	010e2313H
	DD	07007001dH
	DD	05006H
xdata	ENDS
;	COMDAT xdata
xdata	SEGMENT
$unwind$??$_Max_limit@_J@std@@YA_JXZ DD 025050f01H
	DD	010a230fH
	DD	070030021H
	DD	05002H
xdata	ENDS
;	COMDAT xdata
xdata	SEGMENT
$unwind$?_Maklocwcs@std@@YAPEA_WPEB_W@Z DD 035051301H
	DD	010e3313H
	DD	070070027H
	DD	05006H
xdata	ENDS
;	COMDAT xdata
xdata	SEGMENT
$unwind$??1?$_Compressed_pair@V?$allocator@D@std@@V?$_String_val@U?$_Simple_types@D@std@@@2@$00@std@@QEAA@XZ DD 025051301H
	DD	010e2313H
	DD	07007001dH
	DD	05006H
xdata	ENDS
;	COMDAT xdata
xdata	SEGMENT
$unwind$?_Get_first@?$_Compressed_pair@V?$allocator@D@std@@V?$_String_val@U?$_Simple_types@D@std@@@2@$00@std@@QEBAAEBV?$allocator@D@2@XZ DD 025051301H
	DD	010e2313H
	DD	07007001dH
	DD	05006H
xdata	ENDS
;	COMDAT xdata
xdata	SEGMENT
$unwind$?_Get_first@?$_Compressed_pair@V?$allocator@D@std@@V?$_String_val@U?$_Simple_types@D@std@@@2@$00@std@@QEAAAEAV?$allocator@D@2@XZ DD 025051301H
	DD	010e2313H
	DD	07007001dH
	DD	05006H
xdata	ENDS
;	COMDAT xdata
xdata	SEGMENT
$unwind$?_Getal@?$basic_string@DU?$char_traits@D@std@@V?$allocator@D@2@@std@@AEBAAEBV?$allocator@D@2@XZ DD 025051301H
	DD	010e2313H
	DD	07007001dH
	DD	05006H
xdata	ENDS
;	COMDAT xdata
xdata	SEGMENT
$unwind$?_Getal@?$basic_string@DU?$char_traits@D@std@@V?$allocator@D@2@@std@@AEAAAEAV?$allocator@D@2@XZ DD 025051301H
	DD	010e2313H
	DD	07007001dH
	DD	05006H
xdata	ENDS
;	COMDAT xdata
xdata	SEGMENT
$unwind$?_Swap_proxy_and_iterators@?$basic_string@DU?$char_traits@D@std@@V?$allocator@D@2@@std@@AEAAXAEAV12@@Z DD 025051801H
	DD	01132318H
	DD	0700c001fH
	DD	0500bH
xdata	ENDS
;	COMDAT xdata
xdata	SEGMENT
$unwind$?_Tidy_deallocate@?$basic_string@DU?$char_traits@D@std@@V?$allocator@D@2@@std@@AEAAXXZ DD 025051301H
	DD	010e2313H
	DD	070070029H
	DD	05006H
xdata	ENDS
;	COMDAT xdata
xdata	SEGMENT
$unwind$?_Calculate_growth@?$basic_string@DU?$char_traits@D@std@@V?$allocator@D@2@@std@@AEBA_K_K@Z DD 025051801H
	DD	01132318H
	DD	0700c001fH
	DD	0500bH
xdata	ENDS
;	COMDAT voltbl
voltbl	SEGMENT
_volmd	DB	040H
	DB	0f7H
voltbl	ENDS
;	COMDAT xdata
xdata	SEGMENT
$unwind$?_Calculate_growth@?$basic_string@DU?$char_traits@D@std@@V?$allocator@D@2@@std@@CA_K_K00@Z DD 025054719H
	DD	0118231dH
	DD	070110025H
	DD	05010H
	DD	imagerel __GSHandlerCheck
	DD	0118H
xdata	ENDS
;	COMDAT CONST
CONST	SEGMENT
?_Calculate_growth@?$basic_string@DU?$char_traits@D@std@@V?$allocator@D@2@@std@@CA_K_K00@Z$rtcName$0 DB 05fH ; std::basic_string<char,std::char_traits<char>,std::allocator<char> >::_Calculate_growth
	DB	04dH
	DB	061H
	DB	073H
	DB	06bH
	DB	065H
	DB	064H
	DB	00H
	ORG $+8
?_Calculate_growth@?$basic_string@DU?$char_traits@D@std@@V?$allocator@D@2@@std@@CA_K_K00@Z$rtcVarDesc DD 028H ; std::basic_string<char,std::char_traits<char>,std::allocator<char> >::_Calculate_growth
	DD	08H
	DQ	FLAT:?_Calculate_growth@?$basic_string@DU?$char_traits@D@std@@V?$allocator@D@2@@std@@CA_K_K00@Z$rtcName$0
	ORG $+48
?_Calculate_growth@?$basic_string@DU?$char_traits@D@std@@V?$allocator@D@2@@std@@CA_K_K00@Z$rtcFrameData DD 01H ; std::basic_string<char,std::char_traits<char>,std::allocator<char> >::_Calculate_growth
	DD	00H
	DQ	FLAT:?_Calculate_growth@?$basic_string@DU?$char_traits@D@std@@V?$allocator@D@2@@std@@CA_K_K00@Z$rtcVarDesc
CONST	ENDS
;	COMDAT voltbl
voltbl	SEGMENT
_volmd	DB	036H
	DB	0c7H
voltbl	ENDS
;	COMDAT xdata
xdata	SEGMENT
$unwind$?max_size@?$basic_string@DU?$char_traits@D@std@@V?$allocator@D@2@@std@@QEBA_KXZ DD 025053d19H
	DD	010e2313H
	DD	070070031H
	DD	05006H
	DD	imagerel __GSHandlerCheck
	DD	0178H
xdata	ENDS
;	COMDAT CONST
CONST	SEGMENT
?max_size@?$basic_string@DU?$char_traits@D@std@@V?$allocator@D@2@@std@@QEBA_KXZ$rtcName$0 DB 05fH ; std::basic_string<char,std::char_traits<char>,std::allocator<char> >::max_size
	DB	041H
	DB	06cH
	DB	06cH
	DB	06fH
	DB	063H
	DB	05fH
	DB	06dH
	DB	061H
	DB	078H
	DB	00H
	ORG $+5
?max_size@?$basic_string@DU?$char_traits@D@std@@V?$allocator@D@2@@std@@QEBA_KXZ$rtcVarDesc DD 028H ; std::basic_string<char,std::char_traits<char>,std::allocator<char> >::max_size
	DD	08H
	DQ	FLAT:?max_size@?$basic_string@DU?$char_traits@D@std@@V?$allocator@D@2@@std@@QEBA_KXZ$rtcName$0
	ORG $+48
?max_size@?$basic_string@DU?$char_traits@D@std@@V?$allocator@D@2@@std@@QEBA_KXZ$rtcFrameData DD 01H ; std::basic_string<char,std::char_traits<char>,std::allocator<char> >::max_size
	DD	00H
	DQ	FLAT:?max_size@?$basic_string@DU?$char_traits@D@std@@V?$allocator@D@2@@std@@QEBA_KXZ$rtcVarDesc
CONST	ENDS
;	COMDAT xdata
xdata	SEGMENT
$unwind$?c_str@?$basic_string@DU?$char_traits@D@std@@V?$allocator@D@2@@std@@QEBAPEBDXZ DD 025051301H
	DD	010e2313H
	DD	07007001dH
	DD	05006H
xdata	ENDS
;	COMDAT xdata
xdata	SEGMENT
$unwind$?append@?$basic_string@DU?$char_traits@D@std@@V?$allocator@D@2@@std@@QEAAAEAV12@QEBD@Z DD 025051801H
	DD	01132318H
	DD	0700c001dH
	DD	0500bH
xdata	ENDS
;	COMDAT voltbl
voltbl	SEGMENT
_volmd	DB	036H
	DB	0baH
voltbl	ENDS
;	COMDAT xdata
xdata	SEGMENT
$unwind$??1?$basic_string@DU?$char_traits@D@std@@V?$allocator@D@2@@std@@QEAA@XZ DD 025053d19H
	DD	010e2313H
	DD	070070025H
	DD	05006H
	DD	imagerel __GSHandlerCheck
	DD	0118H
xdata	ENDS
;	COMDAT CONST
CONST	SEGMENT
??1?$basic_string@DU?$char_traits@D@std@@V?$allocator@D@2@@std@@QEAA@XZ$rtcName$0 DB 05fH ; std::basic_string<char,std::char_traits<char>,std::allocator<char> >::~basic_string<char,std::char_traits<char>,std::allocator<char> >
	DB	041H
	DB	06cH
	DB	070H
	DB	072H
	DB	06fH
	DB	078H
	DB	079H
	DB	00H
	ORG $+7
??1?$basic_string@DU?$char_traits@D@std@@V?$allocator@D@2@@std@@QEAA@XZ$rtcVarDesc DD 024H ; std::basic_string<char,std::char_traits<char>,std::allocator<char> >::~basic_string<char,std::char_traits<char>,std::allocator<char> >
	DD	01H
	DQ	FLAT:??1?$basic_string@DU?$char_traits@D@std@@V?$allocator@D@2@@std@@QEAA@XZ$rtcName$0
	ORG $+48
??1?$basic_string@DU?$char_traits@D@std@@V?$allocator@D@2@@std@@QEAA@XZ$rtcFrameData DD 01H ; std::basic_string<char,std::char_traits<char>,std::allocator<char> >::~basic_string<char,std::char_traits<char>,std::allocator<char> >
	DD	00H
	DQ	FLAT:??1?$basic_string@DU?$char_traits@D@std@@V?$allocator@D@2@@std@@QEAA@XZ$rtcVarDesc
CONST	ENDS
;	COMDAT xdata
xdata	SEGMENT
$unwind$?_Take_contents@?$basic_string@DU?$char_traits@D@std@@V?$allocator@D@2@@std@@AEAAXAEAV12@@Z DD 025051801H
	DD	01132318H
	DD	0700c0035H
	DD	0500bH
xdata	ENDS
;	COMDAT xdata
xdata	SEGMENT
$ip2state$??0?$basic_string@DU?$char_traits@D@std@@V?$allocator@D@2@@std@@QEAA@$$QEAV01@@Z DB 02H
	DB	00H
	DB	00H
xdata	ENDS
;	COMDAT xdata
xdata	SEGMENT
$cppxdata$??0?$basic_string@DU?$char_traits@D@std@@V?$allocator@D@2@@std@@QEAA@$$QEAV01@@Z DB 060H
	DD	imagerel $ip2state$??0?$basic_string@DU?$char_traits@D@std@@V?$allocator@D@2@@std@@QEAA@$$QEAV01@@Z
xdata	ENDS
;	COMDAT xdata
xdata	SEGMENT
$unwind$??0?$basic_string@DU?$char_traits@D@std@@V?$allocator@D@2@@std@@QEAA@$$QEAV01@@Z DD 025051819H
	DD	01132318H
	DD	0700c002bH
	DD	0500bH
	DD	imagerel __CxxFrameHandler4
	DD	imagerel $cppxdata$??0?$basic_string@DU?$char_traits@D@std@@V?$allocator@D@2@@std@@QEAA@$$QEAV01@@Z
xdata	ENDS
;	COMDAT xdata
xdata	SEGMENT
$unwind$?_Deallocate_for_capacity@?$basic_string@DU?$char_traits@D@std@@V?$allocator@D@2@@std@@CAXAEAV?$allocator@D@2@QEAD_K@Z DD 025051d01H
	DD	0118231dH
	DD	07011001dH
	DD	05010H
xdata	ENDS
;	COMDAT voltbl
voltbl	SEGMENT
_volmd	DB	00H
	DB	05H
voltbl	ENDS
;	COMDAT xdata
xdata	SEGMENT
$unwind$?dtor$0@?0???0?$basic_string@DU?$char_traits@D@std@@V?$allocator@D@2@@std@@QEAA@QEBD@Z@4HA DD 031001H
	DD	0700c4210H
	DD	0500bH
xdata	ENDS
;	COMDAT xdata
xdata	SEGMENT
$ip2state$??0?$basic_string@DU?$char_traits@D@std@@V?$allocator@D@2@@std@@QEAA@QEBD@Z DB 06H
	DB	00H
	DB	00H
	DB	08eH
	DB	02H
	DB	'V'
	DB	00H
xdata	ENDS
;	COMDAT xdata
xdata	SEGMENT
$stateUnwindMap$??0?$basic_string@DU?$char_traits@D@std@@V?$allocator@D@2@@std@@QEAA@QEBD@Z DB 02H
	DB	0eH
	DD	imagerel ?dtor$0@?0???0?$basic_string@DU?$char_traits@D@std@@V?$allocator@D@2@@std@@QEAA@QEBD@Z@4HA
xdata	ENDS
;	COMDAT xdata
xdata	SEGMENT
$cppxdata$??0?$basic_string@DU?$char_traits@D@std@@V?$allocator@D@2@@std@@QEAA@QEBD@Z DB 028H
	DD	imagerel $stateUnwindMap$??0?$basic_string@DU?$char_traits@D@std@@V?$allocator@D@2@@std@@QEAA@QEBD@Z
	DD	imagerel $ip2state$??0?$basic_string@DU?$char_traits@D@std@@V?$allocator@D@2@@std@@QEAA@QEBD@Z
xdata	ENDS
;	COMDAT xdata
xdata	SEGMENT
$unwind$??0?$basic_string@DU?$char_traits@D@std@@V?$allocator@D@2@@std@@QEAA@QEBD@Z DD 025051811H
	DD	01132318H
	DD	0700c0021H
	DD	0500bH
	DD	imagerel __CxxFrameHandler4
	DD	imagerel $cppxdata$??0?$basic_string@DU?$char_traits@D@std@@V?$allocator@D@2@@std@@QEAA@QEBD@Z
xdata	ENDS
;	COMDAT xdata
xdata	SEGMENT
$unwind$??1?$_String_val@U?$_Simple_types@D@std@@@std@@QEAA@XZ DD 025051301H
	DD	010e2313H
	DD	07007001dH
	DD	05006H
xdata	ENDS
;	COMDAT xdata
xdata	SEGMENT
$unwind$?_Switch_to_buf@_Bxty@?$_String_val@U?$_Simple_types@D@std@@@std@@QEAAXXZ DD 025051301H
	DD	010e2313H
	DD	070070021H
	DD	05006H
xdata	ENDS
;	COMDAT xdata
xdata	SEGMENT
$unwind$??1_Bxty@?$_String_val@U?$_Simple_types@D@std@@@std@@QEAA@XZ DD 025051301H
	DD	010e2313H
	DD	07007001dH
	DD	05006H
xdata	ENDS
;	COMDAT xdata
xdata	SEGMENT
$unwind$??0_Bxty@?$_String_val@U?$_Simple_types@D@std@@@std@@QEAA@XZ DD 025051301H
	DD	010e2313H
	DD	07007001dH
	DD	05006H
xdata	ENDS
;	COMDAT xdata
xdata	SEGMENT
$unwind$?_Activate_SSO_buffer@?$_String_val@U?$_Simple_types@D@std@@@std@@QEAAXXZ DD 025051301H
	DD	010e2313H
	DD	070070021H
	DD	05006H
xdata	ENDS
;	COMDAT xdata
xdata	SEGMENT
$unwind$?_Large_mode_engaged@?$_String_val@U?$_Simple_types@D@std@@@std@@QEBA_NXZ DD 025051301H
	DD	010e2313H
	DD	07007001fH
	DD	05006H
xdata	ENDS
;	COMDAT xdata
xdata	SEGMENT
$unwind$?_Myptr@?$_String_val@U?$_Simple_types@D@std@@@std@@QEBAPEBDXZ DD 025051301H
	DD	010e2313H
	DD	070070021H
	DD	05006H
xdata	ENDS
;	COMDAT xdata
xdata	SEGMENT
$unwind$?_Myptr@?$_String_val@U?$_Simple_types@D@std@@@std@@QEAAPEADXZ DD 025051301H
	DD	010e2313H
	DD	070070021H
	DD	05006H
xdata	ENDS
;	COMDAT xdata
xdata	SEGMENT
$unwind$??0?$_String_val@U?$_Simple_types@D@std@@@std@@QEAA@XZ DD 025051301H
	DD	010e2313H
	DD	07007001dH
	DD	05006H
xdata	ENDS
;	COMDAT xdata
xdata	SEGMENT
$unwind$?max_size@?$_Default_allocator_traits@V?$allocator@D@std@@@std@@SA_KAEBV?$allocator@D@2@@Z DD 025051301H
	DD	010e2313H
	DD	07007001dH
	DD	05006H
xdata	ENDS
;	COMDAT xdata
xdata	SEGMENT
$unwind$?allocate@?$allocator@D@std@@QEAAPEAD_K@Z DD 025051801H
	DD	01132318H
	DD	0700c001dH
	DD	0500bH
xdata	ENDS
;	COMDAT xdata
xdata	SEGMENT
$unwind$?deallocate@?$allocator@D@std@@QEAAXQEAD_K@Z DD 035051d01H
	DD	0118331dH
	DD	07011001fH
	DD	05010H
xdata	ENDS
;	COMDAT xdata
xdata	SEGMENT
$unwind$??0?$allocator@D@std@@QEAA@XZ DD 025051301H
	DD	010e2313H
	DD	07007001dH
	DD	05006H
xdata	ENDS
;	COMDAT xdata
xdata	SEGMENT
$unwind$?_Xlen_string@std@@YAXXZ DD 025050f01H
	DD	010a230fH
	DD	07003001dH
	DD	05002H
xdata	ENDS
;	COMDAT xdata
xdata	SEGMENT
$unwind$??$_Construct_in_place@U_Container_proxy@std@@PEAU_Container_base12@2@@std@@YAXAEAU_Container_proxy@0@$$QEAPEAU_Container_base12@0@@Z DD 025051801H
	DD	01132318H
	DD	0700c0021H
	DD	0500bH
xdata	ENDS
;	COMDAT xdata
xdata	SEGMENT
$unwind$??$addressof@U_Container_base12@std@@@std@@YAPEAU_Container_base12@0@AEAU10@@Z DD 025051301H
	DD	010e2313H
	DD	07007001dH
	DD	05006H
xdata	ENDS
;	COMDAT xdata
xdata	SEGMENT
$unwind$??0_Basic_container_proxy_ptr12@std@@IEAA@XZ DD 025051301H
	DD	010e2313H
	DD	07007001dH
	DD	05006H
xdata	ENDS
;	COMDAT xdata
xdata	SEGMENT
$unwind$?_Release@_Basic_container_proxy_ptr12@std@@QEAAXXZ DD 025051301H
	DD	010e2313H
	DD	07007001dH
	DD	05006H
xdata	ENDS
;	COMDAT xdata
xdata	SEGMENT
$unwind$??$exchange@PEAU_Iterator_base12@std@@$$T@std@@YAPEAU_Iterator_base12@0@AEAPEAU10@$$QEA$$T@Z DD 025051801H
	DD	01132318H
	DD	0700c0021H
	DD	0500bH
xdata	ENDS
;	COMDAT voltbl
voltbl	SEGMENT
_volmd	DB	03bH
	DB	08eH
voltbl	ENDS
;	COMDAT xdata
xdata	SEGMENT
$unwind$?_Swap_proxy_and_iterators_locked@_Container_base12@std@@AEAAXAEAU12@@Z DD 025054219H
	DD	01132318H
	DD	0700c0021H
	DD	0500bH
	DD	imagerel __GSHandlerCheck
	DD	0f8H
xdata	ENDS
;	COMDAT CONST
CONST	SEGMENT
?_Swap_proxy_and_iterators_locked@_Container_base12@std@@AEAAXAEAU12@@Z$rtcName$0 DB 05fH ; std::_Container_base12::_Swap_proxy_and_iterators_locked
	DB	04cH
	DB	06fH
	DB	063H
	DB	06bH
	DB	00H
	ORG $+10
?_Swap_proxy_and_iterators_locked@_Container_base12@std@@AEAAXAEAU12@@Z$rtcVarDesc DD 024H ; std::_Container_base12::_Swap_proxy_and_iterators_locked
	DD	04H
	DQ	FLAT:?_Swap_proxy_and_iterators_locked@_Container_base12@std@@AEAAXAEAU12@@Z$rtcName$0
	ORG $+48
?_Swap_proxy_and_iterators_locked@_Container_base12@std@@AEAAXAEAU12@@Z$rtcFrameData DD 01H ; std::_Container_base12::_Swap_proxy_and_iterators_locked
	DD	00H
	DQ	FLAT:?_Swap_proxy_and_iterators_locked@_Container_base12@std@@AEAAXAEAU12@@Z$rtcVarDesc
CONST	ENDS
;	COMDAT voltbl
voltbl	SEGMENT
_volmd	DB	036H
	DB	082H
voltbl	ENDS
;	COMDAT xdata
xdata	SEGMENT
$unwind$?_Orphan_all_locked_v3@_Container_base12@std@@AEAAXXZ DD 025053d19H
	DD	010e2313H
	DD	070070021H
	DD	05006H
	DD	imagerel __GSHandlerCheck
	DD	0f8H
xdata	ENDS
;	COMDAT CONST
CONST	SEGMENT
?_Orphan_all_locked_v3@_Container_base12@std@@AEAAXXZ$rtcName$0 DB 05fH ; std::_Container_base12::_Orphan_all_locked_v3
	DB	04cH
	DB	06fH
	DB	063H
	DB	06bH
	DB	00H
	ORG $+10
?_Orphan_all_locked_v3@_Container_base12@std@@AEAAXXZ$rtcVarDesc DD 024H ; std::_Container_base12::_Orphan_all_locked_v3
	DD	04H
	DQ	FLAT:?_Orphan_all_locked_v3@_Container_base12@std@@AEAAXXZ$rtcName$0
	ORG $+48
?_Orphan_all_locked_v3@_Container_base12@std@@AEAAXXZ$rtcFrameData DD 01H ; std::_Container_base12::_Orphan_all_locked_v3
	DD	00H
	DQ	FLAT:?_Orphan_all_locked_v3@_Container_base12@std@@AEAAXXZ$rtcVarDesc
CONST	ENDS
;	COMDAT xdata
xdata	SEGMENT
$unwind$?_Swap_proxy_and_iterators_unlocked@_Container_base12@std@@AEAAXAEAU12@@Z DD 025051801H
	DD	01132318H
	DD	0700c0021H
	DD	0500bH
xdata	ENDS
;	COMDAT xdata
xdata	SEGMENT
$unwind$?_Orphan_all_unlocked_v3@_Container_base12@std@@AEAAXXZ DD 025051301H
	DD	010e2313H
	DD	070070025H
	DD	05006H
xdata	ENDS
;	COMDAT xdata
xdata	SEGMENT
$unwind$?_Swap_proxy_and_iterators@_Container_base12@std@@QEAAXAEAU12@@Z DD 025051801H
	DD	01132318H
	DD	0700c001dH
	DD	0500bH
xdata	ENDS
;	COMDAT xdata
xdata	SEGMENT
$unwind$?_Orphan_all@_Container_base12@std@@QEAAXXZ DD 025051301H
	DD	010e2313H
	DD	07007001dH
	DD	05006H
xdata	ENDS
;	COMDAT xdata
xdata	SEGMENT
$unwind$??0_Container_base12@std@@QEAA@XZ DD 025051301H
	DD	010e2313H
	DD	07007001dH
	DD	05006H
xdata	ENDS
;	COMDAT xdata
xdata	SEGMENT
$unwind$??0_Container_proxy@std@@QEAA@PEAU_Container_base12@1@@Z DD 025051801H
	DD	01132318H
	DD	0700c001dH
	DD	0500bH
xdata	ENDS
;	COMDAT xdata
xdata	SEGMENT
$unwind$?_Adjust_manually_vector_aligned@std@@YAXAEAPEAXAEA_K@Z DD 035051801H
	DD	01133318H
	DD	0700c002fH
	DD	0500bH
xdata	ENDS
;	COMDAT xdata
xdata	SEGMENT
$unwind$?_Allocate@_Default_allocate_traits@std@@SAPEAX_K@Z DD 025051301H
	DD	010e2313H
	DD	07007001dH
	DD	05006H
xdata	ENDS
;	COMDAT xdata
xdata	SEGMENT
$unwind$?_Throw_bad_array_new_length@std@@YAXXZ DD 025050f01H
	DD	010a230fH
	DD	070030023H
	DD	05002H
xdata	ENDS
;	COMDAT xdata
xdata	SEGMENT
$unwind$??_Gbad_array_new_length@std@@UEAAPEAXI@Z DD 025051701H
	DD	01122317H
	DD	0700b001dH
	DD	0500aH
xdata	ENDS
;	COMDAT xdata
xdata	SEGMENT
$unwind$??0bad_array_new_length@std@@QEAA@AEBV01@@Z DD 025051801H
	DD	01132318H
	DD	0700c001dH
	DD	0500bH
xdata	ENDS
;	COMDAT xdata
xdata	SEGMENT
$unwind$??1bad_array_new_length@std@@UEAA@XZ DD 025051301H
	DD	010e2313H
	DD	07007001dH
	DD	05006H
xdata	ENDS
;	COMDAT xdata
xdata	SEGMENT
$unwind$??0bad_array_new_length@std@@QEAA@XZ DD 025051301H
	DD	010e2313H
	DD	07007001dH
	DD	05006H
xdata	ENDS
;	COMDAT xdata
xdata	SEGMENT
$unwind$??_Gbad_alloc@std@@UEAAPEAXI@Z DD 025051701H
	DD	01122317H
	DD	0700b001dH
	DD	0500aH
xdata	ENDS
;	COMDAT xdata
xdata	SEGMENT
$unwind$??0bad_alloc@std@@QEAA@AEBV01@@Z DD 025051801H
	DD	01132318H
	DD	0700c001dH
	DD	0500bH
xdata	ENDS
;	COMDAT xdata
xdata	SEGMENT
$unwind$??1bad_alloc@std@@UEAA@XZ DD 025051301H
	DD	010e2313H
	DD	07007001dH
	DD	05006H
xdata	ENDS
;	COMDAT xdata
xdata	SEGMENT
$unwind$??0bad_alloc@std@@AEAA@QEBD@Z DD 025051801H
	DD	01132318H
	DD	0700c001dH
	DD	0500bH
xdata	ENDS
;	COMDAT xdata
xdata	SEGMENT
$unwind$??_Gexception@std@@UEAAPEAXI@Z DD 025051701H
	DD	01122317H
	DD	0700b001dH
	DD	0500aH
xdata	ENDS
;	COMDAT xdata
xdata	SEGMENT
$unwind$?what@exception@std@@UEBAPEBDXZ DD 025051301H
	DD	010e2313H
	DD	07007001fH
	DD	05006H
xdata	ENDS
;	COMDAT xdata
xdata	SEGMENT
$unwind$??1exception@std@@UEAA@XZ DD 025051301H
	DD	010e2313H
	DD	07007001dH
	DD	05006H
xdata	ENDS
;	COMDAT xdata
xdata	SEGMENT
$unwind$??0exception@std@@QEAA@AEBV01@@Z DD 025051801H
	DD	01132318H
	DD	0700c001dH
	DD	0500bH
xdata	ENDS
;	COMDAT xdata
xdata	SEGMENT
$unwind$??0exception@std@@QEAA@QEBDH@Z DD 025051d01H
	DD	0118231dH
	DD	07011001dH
	DD	05010H
xdata	ENDS
;	COMDAT xdata
xdata	SEGMENT
$unwind$??$min@_K@std@@YAAEB_KAEB_K0@Z DD 025051801H
	DD	01132318H
	DD	0700c0021H
	DD	0500bH
xdata	ENDS
;	COMDAT xdata
xdata	SEGMENT
$unwind$?assign@?$_Narrow_char_traits@DH@std@@SAXAEADAEBD@Z DD 025051801H
	DD	01132318H
	DD	0700c001dH
	DD	0500bH
xdata	ENDS
;	COMDAT xdata
xdata	SEGMENT
$unwind$?length@?$_Narrow_char_traits@DH@std@@SA_KQEBD@Z DD 025051301H
	DD	010e2313H
	DD	07007001dH
	DD	05006H
xdata	ENDS
;	COMDAT xdata
xdata	SEGMENT
$unwind$?move@?$_Char_traits@DH@std@@SAPEADQEADQEBD_K@Z DD 025051d01H
	DD	0118231dH
	DD	07011002dH
	DD	05010H
xdata	ENDS
;	COMDAT xdata
xdata	SEGMENT
$unwind$?copy@?$_Char_traits@DH@std@@SAPEADQEADQEBD_K@Z DD 025051d01H
	DD	0118231dH
	DD	070110021H
	DD	05010H
xdata	ENDS
;	COMDAT xdata
xdata	SEGMENT
$unwind$wmemcpy DD 025051d01H
	DD	0118231dH
	DD	07011001dH
	DD	05010H
xdata	ENDS
;	COMDAT xdata
xdata	SEGMENT
$unwind$?is_constant_evaluated@std@@YA_NXZ DD 025050f01H
	DD	010a230fH
	DD	07003001dH
	DD	05002H
xdata	ENDS
;	COMDAT xdata
xdata	SEGMENT
$unwind$??2@YAPEAX_KPEAX@Z DD 025051801H
	DD	01132318H
	DD	0700c001dH
	DD	0500bH
xdata	ENDS
;	COMDAT xdata
xdata	SEGMENT
$unwind$?__empty_global_delete@@YAXPEAX_KW4align_val_t@std@@@Z DD 025051d01H
	DD	0118231dH
	DD	07011001dH
	DD	05010H
xdata	ENDS
;	COMDAT xdata
xdata	SEGMENT
$unwind$?__empty_global_delete@@YAXPEAXW4align_val_t@std@@@Z DD 025051801H
	DD	01132318H
	DD	0700c001dH
	DD	0500bH
xdata	ENDS
;	COMDAT xdata
xdata	SEGMENT
$unwind$?__empty_global_delete@@YAXPEAX_K@Z DD 025051801H
	DD	01132318H
	DD	0700c001dH
	DD	0500bH
xdata	ENDS
;	COMDAT xdata
xdata	SEGMENT
$unwind$?__empty_global_delete@@YAXPEAX@Z DD 025051301H
	DD	010e2313H
	DD	07007001dH
	DD	05006H
xdata	ENDS
; Function compile flags: /Odt
;	COMDAT __JustMyCode_Default
_TEXT	SEGMENT
__JustMyCode_Default PROC				; COMDAT
  00000	c2 00 00	 ret	 0
__JustMyCode_Default ENDP
_TEXT	ENDS
; Function compile flags: /Odtp /RTCsu /ZI
; File C:\Program Files\Microsoft Visual Studio\18\Community\VC\Tools\MSVC\14.50.35717\include\xmemory
;	COMDAT ??$_Destroy_in_place@PEAD@std@@YAXAEAPEAD@Z
_TEXT	SEGMENT
_Obj$ = 224
??$_Destroy_in_place@PEAD@std@@YAXAEAPEAD@Z PROC	; std::_Destroy_in_place<char *>, COMDAT

; 324  : _CONSTEXPR20 void _Destroy_in_place(_Ty& _Obj) noexcept {

$LN4:
  00000	48 89 4c 24 08	 mov	 QWORD PTR [rsp+8], rcx
  00005	55		 push	 rbp
  00006	57		 push	 rdi
  00007	48 81 ec e8 00
	00 00		 sub	 rsp, 232		; 000000e8H
  0000e	48 8d 6c 24 20	 lea	 rbp, QWORD PTR [rsp+32]
  00013	48 8d 0d 00 00
	00 00		 lea	 rcx, OFFSET FLAT:__B41741EF_xmemory
  0001a	e8 00 00 00 00	 call	 __CheckForDebuggerJustMyCode
  0001f	90		 npad	 1

; 325  :     if constexpr (is_array_v<_Ty>) {
; 326  :         _STD _Destroy_range(_Obj, _Obj + extent_v<_Ty>);
; 327  :     } else {
; 328  :         _Obj.~_Ty();
; 329  :     }
; 330  : }

  00020	48 8d a5 c8 00
	00 00		 lea	 rsp, QWORD PTR [rbp+200]
  00027	5f		 pop	 rdi
  00028	5d		 pop	 rbp
  00029	c3		 ret	 0
??$_Destroy_in_place@PEAD@std@@YAXAEAPEAD@Z ENDP	; std::_Destroy_in_place<char *>
_TEXT	ENDS
; Function compile flags: /Odtp /RTCsu /ZI
; File C:\Program Files\Microsoft Visual Studio\18\Community\VC\Tools\MSVC\14.50.35717\include\xmemory
;	COMDAT ??$_Get_size_of_n@$0BA@@std@@YA_K_K@Z
_TEXT	SEGMENT
_Overflow_is_possible$ = 4
_Max_possible$1 = 40
_Count$ = 288
??$_Get_size_of_n@$0BA@@std@@YA_K_K@Z PROC		; std::_Get_size_of_n<16>, COMDAT

; 116  : _NODISCARD constexpr size_t _Get_size_of_n(const size_t _Count) {

$LN4:
  00000	48 89 4c 24 08	 mov	 QWORD PTR [rsp+8], rcx
  00005	55		 push	 rbp
  00006	57		 push	 rdi
  00007	48 81 ec 28 01
	00 00		 sub	 rsp, 296		; 00000128H
  0000e	48 8d 6c 24 20	 lea	 rbp, QWORD PTR [rsp+32]
  00013	48 8d 0d 00 00
	00 00		 lea	 rcx, OFFSET FLAT:__B41741EF_xmemory
  0001a	e8 00 00 00 00	 call	 __CheckForDebuggerJustMyCode
  0001f	90		 npad	 1

; 117  :     constexpr bool _Overflow_is_possible = _Ty_size > 1;

  00020	c6 45 04 01	 mov	 BYTE PTR _Overflow_is_possible$[rbp], 1

; 118  : 
; 119  :     if constexpr (_Overflow_is_possible) {
; 120  :         constexpr size_t _Max_possible = static_cast<size_t>(-1) / _Ty_size;

  00024	48 b8 ff ff ff
	ff ff ff ff 0f	 mov	 rax, 1152921504606846975 ; 0fffffffffffffffH
  0002e	48 89 45 28	 mov	 QWORD PTR _Max_possible$1[rbp], rax

; 121  :         if (_Count > _Max_possible) {

  00032	48 b8 ff ff ff
	ff ff ff ff 0f	 mov	 rax, 1152921504606846975 ; 0fffffffffffffffH
  0003c	48 39 85 20 01
	00 00		 cmp	 QWORD PTR _Count$[rbp], rax
  00043	76 06		 jbe	 SHORT $LN2@Get_size_o

; 122  :             _Throw_bad_array_new_length(); // multiply overflow

  00045	e8 00 00 00 00	 call	 ?_Throw_bad_array_new_length@std@@YAXXZ ; std::_Throw_bad_array_new_length
  0004a	90		 npad	 1
$LN2@Get_size_o:

; 123  :         }
; 124  :     }
; 125  : 
; 126  :     return _Count * _Ty_size;

  0004b	48 6b 85 20 01
	00 00 10	 imul	 rax, QWORD PTR _Count$[rbp], 16
$LN3@Get_size_o:

; 127  : }

  00053	48 8d a5 08 01
	00 00		 lea	 rsp, QWORD PTR [rbp+264]
  0005a	5f		 pop	 rdi
  0005b	5d		 pop	 rbp
  0005c	c3		 ret	 0
??$_Get_size_of_n@$0BA@@std@@YA_K_K@Z ENDP		; std::_Get_size_of_n<16>
_TEXT	ENDS
; Function compile flags: /Odtp /RTCsu /ZI
; File C:\Program Files\Microsoft Visual Studio\18\Community\VC\Tools\MSVC\14.50.35717\include\xmemory
;	COMDAT ??$_Allocate_manually_vector_aligned@U_Default_allocate_traits@std@@@std@@YAPEAX_K@Z
_TEXT	SEGMENT
_Block_size$ = 8
_Ptr_container$ = 40
_Ptr$ = 72
_Bytes$ = 320
??$_Allocate_manually_vector_aligned@U_Default_allocate_traits@std@@@std@@YAPEAX_K@Z PROC ; std::_Allocate_manually_vector_aligned<std::_Default_allocate_traits>, COMDAT

; 186  : __declspec(allocator) void* _Allocate_manually_vector_aligned(const size_t _Bytes) {

$LN6:
  00000	48 89 4c 24 08	 mov	 QWORD PTR [rsp+8], rcx
  00005	55		 push	 rbp
  00006	57		 push	 rdi
  00007	48 81 ec 58 01
	00 00		 sub	 rsp, 344		; 00000158H
  0000e	48 8d 6c 24 30	 lea	 rbp, QWORD PTR [rsp+48]
  00013	48 8d 0d 00 00
	00 00		 lea	 rcx, OFFSET FLAT:__B41741EF_xmemory
  0001a	e8 00 00 00 00	 call	 __CheckForDebuggerJustMyCode
  0001f	90		 npad	 1

; 187  :     // allocate _Bytes manually aligned to at least _Big_allocation_alignment
; 188  :     const size_t _Block_size = _Non_user_size + _Bytes;

  00020	48 8b 85 40 01
	00 00		 mov	 rax, QWORD PTR _Bytes$[rbp]
  00027	48 83 c0 2f	 add	 rax, 47			; 0000002fH
  0002b	48 89 45 08	 mov	 QWORD PTR _Block_size$[rbp], rax

; 189  :     if (_Block_size <= _Bytes) {

  0002f	48 8b 85 40 01
	00 00		 mov	 rax, QWORD PTR _Bytes$[rbp]
  00036	48 39 45 08	 cmp	 QWORD PTR _Block_size$[rbp], rax
  0003a	77 06		 ja	 SHORT $LN2@Allocate_m

; 190  :         _Throw_bad_array_new_length(); // add overflow

  0003c	e8 00 00 00 00	 call	 ?_Throw_bad_array_new_length@std@@YAXXZ ; std::_Throw_bad_array_new_length
  00041	90		 npad	 1
$LN2@Allocate_m:

; 191  :     }
; 192  : 
; 193  :     const uintptr_t _Ptr_container = reinterpret_cast<uintptr_t>(_Traits::_Allocate(_Block_size));

  00042	48 8b 4d 08	 mov	 rcx, QWORD PTR _Block_size$[rbp]
  00046	e8 00 00 00 00	 call	 ?_Allocate@_Default_allocate_traits@std@@SAPEAX_K@Z ; std::_Default_allocate_traits::_Allocate
  0004b	48 89 45 28	 mov	 QWORD PTR _Ptr_container$[rbp], rax

; 194  :     _STL_VERIFY(_Ptr_container != 0, "invalid argument"); // validate even in release since we're doing p[-1]

  0004f	48 83 7d 28 00	 cmp	 QWORD PTR _Ptr_container$[rbp], 0
  00054	75 42		 jne	 SHORT $LN3@Allocate_m
  00056	48 8d 05 00 00
	00 00		 lea	 rax, OFFSET FLAT:??_C@_0BB@FCMFBGOM@invalid?5argument@
  0005d	48 89 44 24 28	 mov	 QWORD PTR [rsp+40], rax
  00062	48 8d 05 00 00
	00 00		 lea	 rax, OFFSET FLAT:??_C@_02DKCKIIND@?$CFs@
  00069	48 89 44 24 20	 mov	 QWORD PTR [rsp+32], rax
  0006e	45 33 c9	 xor	 r9d, r9d
  00071	41 b8 c2 00 00
	00		 mov	 r8d, 194		; 000000c2H
  00077	48 8d 15 00 00
	00 00		 lea	 rdx, OFFSET FLAT:??_C@_0GA@HFAKHCPJ@C?3?2Program?5Files?2Microsoft?5Visu@
  0007e	b9 02 00 00 00	 mov	 ecx, 2
  00083	ff 15 00 00 00
	00		 call	 QWORD PTR __imp__CrtDbgReport
  00089	83 f8 01	 cmp	 eax, 1
  0008c	75 03		 jne	 SHORT $LN5@Allocate_m
  0008e	cc		 int	 3
  0008f	33 c0		 xor	 eax, eax
$LN5@Allocate_m:
  00091	b9 05 00 00 00	 mov	 ecx, 5
  00096	cd 29		 int	 41			; 00000029H
$LN3@Allocate_m:

; 195  :     void* const _Ptr = reinterpret_cast<void*>((_Ptr_container + _Non_user_size) & ~(_Big_allocation_alignment - 1));

  00098	48 8b 45 28	 mov	 rax, QWORD PTR _Ptr_container$[rbp]
  0009c	48 83 c0 2f	 add	 rax, 47			; 0000002fH
  000a0	48 83 e0 e0	 and	 rax, -32		; ffffffffffffffe0H
  000a4	48 89 45 48	 mov	 QWORD PTR _Ptr$[rbp], rax

; 196  :     static_cast<uintptr_t*>(_Ptr)[-1] = _Ptr_container;

  000a8	b8 08 00 00 00	 mov	 eax, 8
  000ad	48 6b c0 ff	 imul	 rax, rax, -1
  000b1	48 8b 4d 48	 mov	 rcx, QWORD PTR _Ptr$[rbp]
  000b5	48 8b 55 28	 mov	 rdx, QWORD PTR _Ptr_container$[rbp]
  000b9	48 89 14 01	 mov	 QWORD PTR [rcx+rax], rdx

; 197  : 
; 198  : #ifdef _DEBUG
; 199  :     static_cast<uintptr_t*>(_Ptr)[-2] = _Big_allocation_sentinel;

  000bd	b8 08 00 00 00	 mov	 eax, 8
  000c2	48 6b c0 fe	 imul	 rax, rax, -2
  000c6	48 8b 4d 48	 mov	 rcx, QWORD PTR _Ptr$[rbp]
  000ca	48 ba fa fa fa
	fa fa fa fa fa	 mov	 rdx, -361700864190383366 ; fafafafafafafafaH
  000d4	48 89 14 01	 mov	 QWORD PTR [rcx+rax], rdx

; 200  : #endif // defined(_DEBUG)
; 201  :     return _Ptr;

  000d8	48 8b 45 48	 mov	 rax, QWORD PTR _Ptr$[rbp]
$LN4@Allocate_m:

; 202  : }

  000dc	48 8d a5 28 01
	00 00		 lea	 rsp, QWORD PTR [rbp+296]
  000e3	5f		 pop	 rdi
  000e4	5d		 pop	 rbp
  000e5	c3		 ret	 0
??$_Allocate_manually_vector_aligned@U_Default_allocate_traits@std@@@std@@YAPEAX_K@Z ENDP ; std::_Allocate_manually_vector_aligned<std::_Default_allocate_traits>
_TEXT	ENDS
; Function compile flags: /Odtp /RTCsu /ZI
; File C:\Program Files\Microsoft Visual Studio\18\Community\VC\Tools\MSVC\14.50.35717\include\xutility
;	COMDAT ??$construct_at@PEADAEAPEAD@std@@YAPEAPEADQEAPEADAEAPEAD@Z
_TEXT	SEGMENT
$T1 = 200
_Location$ = 256
<_Args_0>$ = 264
??$construct_at@PEADAEAPEAD@std@@YAPEAPEADQEAPEADAEAPEAD@Z PROC ; std::construct_at<char *,char * &>, COMDAT

; 508  :     noexcept(noexcept(::new (static_cast<void*>(_Location)) _Ty(_STD forward<_Types>(_Args)...))) /* strengthened */ {

$LN4:
  00000	48 89 54 24 10	 mov	 QWORD PTR [rsp+16], rdx
  00005	48 89 4c 24 08	 mov	 QWORD PTR [rsp+8], rcx
  0000a	55		 push	 rbp
  0000b	57		 push	 rdi
  0000c	48 81 ec 08 01
	00 00		 sub	 rsp, 264		; 00000108H
  00013	48 8d 6c 24 20	 lea	 rbp, QWORD PTR [rsp+32]
  00018	48 8d 0d 00 00
	00 00		 lea	 rcx, OFFSET FLAT:__C78B1955_xutility
  0001f	e8 00 00 00 00	 call	 __CheckForDebuggerJustMyCode
  00024	90		 npad	 1

; 509  :     _MSVC_CONSTEXPR return ::new (static_cast<void*>(_Location)) _Ty(_STD forward<_Types>(_Args)...);

  00025	48 8b 95 00 01
	00 00		 mov	 rdx, QWORD PTR _Location$[rbp]
  0002c	b9 08 00 00 00	 mov	 ecx, 8
  00031	e8 00 00 00 00	 call	 ??2@YAPEAX_KPEAX@Z	; operator new
  00036	48 89 85 c8 00
	00 00		 mov	 QWORD PTR $T1[rbp], rax
  0003d	48 8b 85 c8 00
	00 00		 mov	 rax, QWORD PTR $T1[rbp]
  00044	48 8b 8d 08 01
	00 00		 mov	 rcx, QWORD PTR <_Args_0>$[rbp]
  0004b	48 8b 09	 mov	 rcx, QWORD PTR [rcx]
  0004e	48 89 08	 mov	 QWORD PTR [rax], rcx
  00051	48 8b 85 c8 00
	00 00		 mov	 rax, QWORD PTR $T1[rbp]

; 510  : }

  00058	48 8d a5 e8 00
	00 00		 lea	 rsp, QWORD PTR [rbp+232]
  0005f	5f		 pop	 rdi
  00060	5d		 pop	 rbp
  00061	c3		 ret	 0
??$construct_at@PEADAEAPEAD@std@@YAPEAPEADQEAPEADAEAPEAD@Z ENDP ; std::construct_at<char *,char * &>
_TEXT	ENDS
; Function compile flags: /Odtp /RTCsu /ZI
; File C:\Program Files\Microsoft Visual Studio\18\Community\VC\Tools\MSVC\14.50.35717\include\xmemory
;	COMDAT ?deallocate@?$_Default_allocator_traits@V?$allocator@U_Container_proxy@std@@@std@@@std@@SAXAEAV?$allocator@U_Container_proxy@std@@@2@QEAU_Container_proxy@2@_K@Z
_TEXT	SEGMENT
_Al$ = 224
_Ptr$ = 232
_Count$ = 240
?deallocate@?$_Default_allocator_traits@V?$allocator@U_Container_proxy@std@@@std@@@std@@SAXAEAV?$allocator@U_Container_proxy@std@@@2@QEAU_Container_proxy@2@_K@Z PROC ; std::_Default_allocator_traits<std::allocator<std::_Container_proxy> >::deallocate, COMDAT

; 718  :     /* strengthened */ {

$LN6:
  00000	4c 89 44 24 18	 mov	 QWORD PTR [rsp+24], r8
  00005	48 89 54 24 10	 mov	 QWORD PTR [rsp+16], rdx
  0000a	48 89 4c 24 08	 mov	 QWORD PTR [rsp+8], rcx
  0000f	55		 push	 rbp
  00010	57		 push	 rdi
  00011	48 81 ec e8 00
	00 00		 sub	 rsp, 232		; 000000e8H
  00018	48 8d 6c 24 20	 lea	 rbp, QWORD PTR [rsp+32]
  0001d	48 8d 0d 00 00
	00 00		 lea	 rcx, OFFSET FLAT:__B41741EF_xmemory
  00024	e8 00 00 00 00	 call	 __CheckForDebuggerJustMyCode
  00029	90		 npad	 1

; 719  :         // no overflow check on the following multiply; we assume _Allocate did that check
; 720  : #if _HAS_CXX20 // TRANSITION, GH-1532
; 721  :         if (_STD is_constant_evaluated()) {

  0002a	e8 00 00 00 00	 call	 ?is_constant_evaluated@std@@YA_NXZ ; std::is_constant_evaluated
  0002f	0f b6 c0	 movzx	 eax, al
  00032	85 c0		 test	 eax, eax
  00034	74 1d		 je	 SHORT $LN2@deallocate

; 722  :             _Al.deallocate(_Ptr, _Count);

  00036	4c 8b 85 f0 00
	00 00		 mov	 r8, QWORD PTR _Count$[rbp]
  0003d	48 8b 95 e8 00
	00 00		 mov	 rdx, QWORD PTR _Ptr$[rbp]
  00044	48 8b 8d e0 00
	00 00		 mov	 rcx, QWORD PTR _Al$[rbp]
  0004b	e8 00 00 00 00	 call	 ?deallocate@?$allocator@U_Container_proxy@std@@@std@@QEAAXQEAU_Container_proxy@2@_K@Z ; std::allocator<std::_Container_proxy>::deallocate
  00050	90		 npad	 1

; 723  :         } else

  00051	eb 18		 jmp	 SHORT $LN3@deallocate
$LN2@deallocate:

; 724  : #endif // _HAS_CXX20
; 725  :         {
; 726  :             (void) _Al;
; 727  :             _STD _Deallocate<_New_alignof<value_type>>(_Ptr, sizeof(value_type) * _Count);

  00053	48 6b 85 f0 00
	00 00 10	 imul	 rax, QWORD PTR _Count$[rbp], 16
  0005b	48 8b d0	 mov	 rdx, rax
  0005e	48 8b 8d e8 00
	00 00		 mov	 rcx, QWORD PTR _Ptr$[rbp]
  00065	e8 00 00 00 00	 call	 ??$_Deallocate@$0BA@@std@@YAXPEAX_K@Z ; std::_Deallocate<16>
  0006a	90		 npad	 1
$LN3@deallocate:

; 728  :         }
; 729  :     }

  0006b	48 8d a5 c8 00
	00 00		 lea	 rsp, QWORD PTR [rbp+200]
  00072	5f		 pop	 rdi
  00073	5d		 pop	 rbp
  00074	c3		 ret	 0
?deallocate@?$_Default_allocator_traits@V?$allocator@U_Container_proxy@std@@@std@@@std@@SAXAEAV?$allocator@U_Container_proxy@std@@@2@QEAU_Container_proxy@2@_K@Z ENDP ; std::_Default_allocator_traits<std::allocator<std::_Container_proxy> >::deallocate
_TEXT	ENDS
; Function compile flags: /Odtp /RTCsu /ZI
; File C:\Program Files\Microsoft Visual Studio\18\Community\VC\Tools\MSVC\14.50.35717\include\xutility
;	COMDAT ??$construct_at@PEADAEBQEAD@std@@YAPEAPEADQEAPEADAEBQEAD@Z
_TEXT	SEGMENT
$T1 = 200
_Location$ = 256
<_Args_0>$ = 264
??$construct_at@PEADAEBQEAD@std@@YAPEAPEADQEAPEADAEBQEAD@Z PROC ; std::construct_at<char *,char * const &>, COMDAT

; 508  :     noexcept(noexcept(::new (static_cast<void*>(_Location)) _Ty(_STD forward<_Types>(_Args)...))) /* strengthened */ {

$LN4:
  00000	48 89 54 24 10	 mov	 QWORD PTR [rsp+16], rdx
  00005	48 89 4c 24 08	 mov	 QWORD PTR [rsp+8], rcx
  0000a	55		 push	 rbp
  0000b	57		 push	 rdi
  0000c	48 81 ec 08 01
	00 00		 sub	 rsp, 264		; 00000108H
  00013	48 8d 6c 24 20	 lea	 rbp, QWORD PTR [rsp+32]
  00018	48 8d 0d 00 00
	00 00		 lea	 rcx, OFFSET FLAT:__C78B1955_xutility
  0001f	e8 00 00 00 00	 call	 __CheckForDebuggerJustMyCode
  00024	90		 npad	 1

; 509  :     _MSVC_CONSTEXPR return ::new (static_cast<void*>(_Location)) _Ty(_STD forward<_Types>(_Args)...);

  00025	48 8b 95 00 01
	00 00		 mov	 rdx, QWORD PTR _Location$[rbp]
  0002c	b9 08 00 00 00	 mov	 ecx, 8
  00031	e8 00 00 00 00	 call	 ??2@YAPEAX_KPEAX@Z	; operator new
  00036	48 89 85 c8 00
	00 00		 mov	 QWORD PTR $T1[rbp], rax
  0003d	48 8b 85 c8 00
	00 00		 mov	 rax, QWORD PTR $T1[rbp]
  00044	48 8b 8d 08 01
	00 00		 mov	 rcx, QWORD PTR <_Args_0>$[rbp]
  0004b	48 8b 09	 mov	 rcx, QWORD PTR [rcx]
  0004e	48 89 08	 mov	 QWORD PTR [rax], rcx
  00051	48 8b 85 c8 00
	00 00		 mov	 rax, QWORD PTR $T1[rbp]

; 510  : }

  00058	48 8d a5 e8 00
	00 00		 lea	 rsp, QWORD PTR [rbp+232]
  0005f	5f		 pop	 rdi
  00060	5d		 pop	 rbp
  00061	c3		 ret	 0
??$construct_at@PEADAEBQEAD@std@@YAPEAPEADQEAPEADAEBQEAD@Z ENDP ; std::construct_at<char *,char * const &>
_TEXT	ENDS
; Function compile flags: /Odtp /RTCsu /ZI
; File C:\Program Files\Microsoft Visual Studio\18\Community\VC\Tools\MSVC\14.50.35717\include\type_traits
;	COMDAT ??$addressof@PEAD@std@@YAPEAPEADAEAPEAD@Z
_TEXT	SEGMENT
_Val$ = 224
??$addressof@PEAD@std@@YAPEAPEADAEAPEAD@Z PROC		; std::addressof<char *>, COMDAT

; 1532 : _NODISCARD constexpr _Ty* addressof(_Ty& _Val) noexcept {

$LN4:
  00000	48 89 4c 24 08	 mov	 QWORD PTR [rsp+8], rcx
  00005	55		 push	 rbp
  00006	57		 push	 rdi
  00007	48 81 ec e8 00
	00 00		 sub	 rsp, 232		; 000000e8H
  0000e	48 8d 6c 24 20	 lea	 rbp, QWORD PTR [rsp+32]
  00013	48 8d 0d 00 00
	00 00		 lea	 rcx, OFFSET FLAT:__680F61A7_type_traits
  0001a	e8 00 00 00 00	 call	 __CheckForDebuggerJustMyCode
  0001f	90		 npad	 1

; 1533 :     return __builtin_addressof(_Val);

  00020	48 8b 85 e0 00
	00 00		 mov	 rax, QWORD PTR _Val$[rbp]

; 1534 : }

  00027	48 8d a5 c8 00
	00 00		 lea	 rsp, QWORD PTR [rbp+200]
  0002e	5f		 pop	 rdi
  0002f	5d		 pop	 rbp
  00030	c3		 ret	 0
??$addressof@PEAD@std@@YAPEAPEADAEAPEAD@Z ENDP		; std::addressof<char *>
_TEXT	ENDS
; Function compile flags: /Odtp /RTCsu /ZI
; File C:\Program Files\Microsoft Visual Studio\18\Community\VC\Tools\MSVC\14.50.35717\include\xutility
;	COMDAT ??$construct_at@U_Container_proxy@std@@PEAU_Container_base12@2@@std@@YAPEAU_Container_proxy@0@QEAU10@$$QEAPEAU_Container_base12@0@@Z
_TEXT	SEGMENT
$T1 = 200
_Location$ = 256
<_Args_0>$ = 264
??$construct_at@U_Container_proxy@std@@PEAU_Container_base12@2@@std@@YAPEAU_Container_proxy@0@QEAU10@$$QEAPEAU_Container_base12@0@@Z PROC ; std::construct_at<std::_Container_proxy,std::_Container_base12 *>, COMDAT

; 508  :     noexcept(noexcept(::new (static_cast<void*>(_Location)) _Ty(_STD forward<_Types>(_Args)...))) /* strengthened */ {

$LN4:
  00000	48 89 54 24 10	 mov	 QWORD PTR [rsp+16], rdx
  00005	48 89 4c 24 08	 mov	 QWORD PTR [rsp+8], rcx
  0000a	55		 push	 rbp
  0000b	57		 push	 rdi
  0000c	48 81 ec 08 01
	00 00		 sub	 rsp, 264		; 00000108H
  00013	48 8d 6c 24 20	 lea	 rbp, QWORD PTR [rsp+32]
  00018	48 8d 0d 00 00
	00 00		 lea	 rcx, OFFSET FLAT:__C78B1955_xutility
  0001f	e8 00 00 00 00	 call	 __CheckForDebuggerJustMyCode
  00024	90		 npad	 1

; 509  :     _MSVC_CONSTEXPR return ::new (static_cast<void*>(_Location)) _Ty(_STD forward<_Types>(_Args)...);

  00025	48 8b 95 00 01
	00 00		 mov	 rdx, QWORD PTR _Location$[rbp]
  0002c	b9 10 00 00 00	 mov	 ecx, 16
  00031	e8 00 00 00 00	 call	 ??2@YAPEAX_KPEAX@Z	; operator new
  00036	48 89 85 c8 00
	00 00		 mov	 QWORD PTR $T1[rbp], rax
  0003d	48 8b 85 08 01
	00 00		 mov	 rax, QWORD PTR <_Args_0>$[rbp]
  00044	48 8b 10	 mov	 rdx, QWORD PTR [rax]
  00047	48 8b 8d c8 00
	00 00		 mov	 rcx, QWORD PTR $T1[rbp]
  0004e	e8 00 00 00 00	 call	 ??0_Container_proxy@std@@QEAA@PEAU_Container_base12@1@@Z ; std::_Container_proxy::_Container_proxy

; 510  : }

  00053	48 8d a5 e8 00
	00 00		 lea	 rsp, QWORD PTR [rbp+232]
  0005a	5f		 pop	 rdi
  0005b	5d		 pop	 rbp
  0005c	c3		 ret	 0
??$construct_at@U_Container_proxy@std@@PEAU_Container_base12@2@@std@@YAPEAU_Container_proxy@0@QEAU10@$$QEAPEAU_Container_base12@0@@Z ENDP ; std::construct_at<std::_Container_proxy,std::_Container_base12 *>
_TEXT	ENDS
; Function compile flags: /Odtp /RTCsu /ZI
; File C:\Program Files\Microsoft Visual Studio\18\Community\VC\Tools\MSVC\14.50.35717\include\type_traits
;	COMDAT ??$addressof@U_Container_proxy@std@@@std@@YAPEAU_Container_proxy@0@AEAU10@@Z
_TEXT	SEGMENT
_Val$ = 224
??$addressof@U_Container_proxy@std@@@std@@YAPEAU_Container_proxy@0@AEAU10@@Z PROC ; std::addressof<std::_Container_proxy>, COMDAT

; 1532 : _NODISCARD constexpr _Ty* addressof(_Ty& _Val) noexcept {

$LN4:
  00000	48 89 4c 24 08	 mov	 QWORD PTR [rsp+8], rcx
  00005	55		 push	 rbp
  00006	57		 push	 rdi
  00007	48 81 ec e8 00
	00 00		 sub	 rsp, 232		; 000000e8H
  0000e	48 8d 6c 24 20	 lea	 rbp, QWORD PTR [rsp+32]
  00013	48 8d 0d 00 00
	00 00		 lea	 rcx, OFFSET FLAT:__680F61A7_type_traits
  0001a	e8 00 00 00 00	 call	 __CheckForDebuggerJustMyCode
  0001f	90		 npad	 1

; 1533 :     return __builtin_addressof(_Val);

  00020	48 8b 85 e0 00
	00 00		 mov	 rax, QWORD PTR _Val$[rbp]

; 1534 : }

  00027	48 8d a5 c8 00
	00 00		 lea	 rsp, QWORD PTR [rbp+200]
  0002e	5f		 pop	 rdi
  0002f	5d		 pop	 rbp
  00030	c3		 ret	 0
??$addressof@U_Container_proxy@std@@@std@@YAPEAU_Container_proxy@0@AEAU10@@Z ENDP ; std::addressof<std::_Container_proxy>
_TEXT	ENDS
; Function compile flags: /Odtp /RTCsu /ZI
; File C:\Program Files\Microsoft Visual Studio\18\Community\VC\Tools\MSVC\14.50.35717\include\xmemory
;	COMDAT ??$_Get_size_of_n@$00@std@@YA_K_K@Z
_TEXT	SEGMENT
_Overflow_is_possible$ = 4
_Count$ = 256
??$_Get_size_of_n@$00@std@@YA_K_K@Z PROC		; std::_Get_size_of_n<1>, COMDAT

; 116  : _NODISCARD constexpr size_t _Get_size_of_n(const size_t _Count) {

$LN3:
  00000	48 89 4c 24 08	 mov	 QWORD PTR [rsp+8], rcx
  00005	55		 push	 rbp
  00006	57		 push	 rdi
  00007	48 81 ec 08 01
	00 00		 sub	 rsp, 264		; 00000108H
  0000e	48 8d 6c 24 20	 lea	 rbp, QWORD PTR [rsp+32]
  00013	48 8d 0d 00 00
	00 00		 lea	 rcx, OFFSET FLAT:__B41741EF_xmemory
  0001a	e8 00 00 00 00	 call	 __CheckForDebuggerJustMyCode
  0001f	90		 npad	 1

; 117  :     constexpr bool _Overflow_is_possible = _Ty_size > 1;

  00020	c6 45 04 00	 mov	 BYTE PTR _Overflow_is_possible$[rbp], 0

; 118  : 
; 119  :     if constexpr (_Overflow_is_possible) {
; 120  :         constexpr size_t _Max_possible = static_cast<size_t>(-1) / _Ty_size;
; 121  :         if (_Count > _Max_possible) {
; 122  :             _Throw_bad_array_new_length(); // multiply overflow
; 123  :         }
; 124  :     }
; 125  : 
; 126  :     return _Count * _Ty_size;

  00024	48 8b 85 00 01
	00 00		 mov	 rax, QWORD PTR _Count$[rbp]

; 127  : }

  0002b	48 8d a5 e8 00
	00 00		 lea	 rsp, QWORD PTR [rbp+232]
  00032	5f		 pop	 rdi
  00033	5d		 pop	 rbp
  00034	c3		 ret	 0
??$_Get_size_of_n@$00@std@@YA_K_K@Z ENDP		; std::_Get_size_of_n<1>
_TEXT	ENDS
; Function compile flags: /Odtp /RTCsu /ZI
; File C:\Program Files\Microsoft Visual Studio\18\Community\VC\Tools\MSVC\14.50.35717\include\xmemory
;	COMDAT ??$_Deallocate@$0BA@@std@@YAXPEAX_K@Z
_TEXT	SEGMENT
_Ptr$ = 224
_Bytes$ = 232
??$_Deallocate@$0BA@@std@@YAXPEAX_K@Z PROC		; std::_Deallocate<16>, COMDAT

; 265  : _CONSTEXPR20 void _Deallocate(void* _Ptr, size_t _Bytes) noexcept {

$LN6:
  00000	48 89 54 24 10	 mov	 QWORD PTR [rsp+16], rdx
  00005	48 89 4c 24 08	 mov	 QWORD PTR [rsp+8], rcx
  0000a	55		 push	 rbp
  0000b	57		 push	 rdi
  0000c	48 81 ec e8 00
	00 00		 sub	 rsp, 232		; 000000e8H
  00013	48 8d 6c 24 20	 lea	 rbp, QWORD PTR [rsp+32]
  00018	48 8d 0d 00 00
	00 00		 lea	 rcx, OFFSET FLAT:__B41741EF_xmemory
  0001f	e8 00 00 00 00	 call	 __CheckForDebuggerJustMyCode
  00024	90		 npad	 1

; 266  :     // deallocate storage allocated by _Allocate
; 267  : #if _HAS_CXX20 // TRANSITION, GH-1532
; 268  :     if (_STD is_constant_evaluated()) {

  00025	e8 00 00 00 00	 call	 ?is_constant_evaluated@std@@YA_NXZ ; std::is_constant_evaluated
  0002a	0f b6 c0	 movzx	 eax, al
  0002d	85 c0		 test	 eax, eax
  0002f	74 0f		 je	 SHORT $LN2@Deallocate

; 269  :         ::operator delete(_Ptr);

  00031	48 8b 8d e0 00
	00 00		 mov	 rcx, QWORD PTR _Ptr$[rbp]
  00038	e8 00 00 00 00	 call	 ??3@YAXPEAX@Z		; operator delete
  0003d	90		 npad	 1

; 270  :         return;

  0003e	eb 35		 jmp	 SHORT $LN1@Deallocate
$LN2@Deallocate:

; 271  :     }
; 272  : #endif // _HAS_CXX20
; 273  : 
; 274  : #ifdef __cpp_aligned_new
; 275  :     if constexpr (_Align > __STDCPP_DEFAULT_NEW_ALIGNMENT__) {
; 276  :         size_t _Passed_align = _Align;
; 277  : #if defined(_M_IX86) || defined(_M_X64)
; 278  :         if (_Bytes >= _Big_allocation_threshold) {
; 279  :             // boost the alignment of big allocations to help autovectorization
; 280  :             _Passed_align = (_STD max)(_Align, _Big_allocation_alignment);
; 281  :         }
; 282  : #endif // defined(_M_IX86) || defined(_M_X64)
; 283  :         ::operator delete(_Ptr, _Bytes, align_val_t{_Passed_align});
; 284  :     } else
; 285  : #endif // defined(__cpp_aligned_new)
; 286  :     {
; 287  : #if defined(_M_IX86) || defined(_M_X64)
; 288  :         if (_Bytes >= _Big_allocation_threshold) {

  00040	48 81 bd e8 00
	00 00 00 10 00
	00		 cmp	 QWORD PTR _Bytes$[rbp], 4096 ; 00001000H
  0004b	72 14		 jb	 SHORT $LN3@Deallocate

; 289  :             // boost the alignment of big allocations to help autovectorization
; 290  :             _Adjust_manually_vector_aligned(_Ptr, _Bytes);

  0004d	48 8d 95 e8 00
	00 00		 lea	 rdx, QWORD PTR _Bytes$[rbp]
  00054	48 8d 8d e0 00
	00 00		 lea	 rcx, QWORD PTR _Ptr$[rbp]
  0005b	e8 00 00 00 00	 call	 ?_Adjust_manually_vector_aligned@std@@YAXAEAPEAXAEA_K@Z ; std::_Adjust_manually_vector_aligned
  00060	90		 npad	 1
$LN3@Deallocate:

; 291  :         }
; 292  : #endif // defined(_M_IX86) || defined(_M_X64)
; 293  :         ::operator delete(_Ptr, _Bytes);

  00061	48 8b 95 e8 00
	00 00		 mov	 rdx, QWORD PTR _Bytes$[rbp]
  00068	48 8b 8d e0 00
	00 00		 mov	 rcx, QWORD PTR _Ptr$[rbp]
  0006f	e8 00 00 00 00	 call	 ??3@YAXPEAX_K@Z		; operator delete
  00074	90		 npad	 1
$LN1@Deallocate:

; 294  :     }
; 295  : }

  00075	48 8d a5 c8 00
	00 00		 lea	 rsp, QWORD PTR [rbp+200]
  0007c	5f		 pop	 rdi
  0007d	5d		 pop	 rbp
  0007e	c3		 ret	 0
??$_Deallocate@$0BA@@std@@YAXPEAX_K@Z ENDP		; std::_Deallocate<16>
_TEXT	ENDS
; Function compile flags: /Odtp /RTCsu /ZI
; File C:\Program Files\Microsoft Visual Studio\18\Community\VC\Tools\MSVC\14.50.35717\include\xmemory
;	COMDAT ??$_Allocate@$0BA@U_Default_allocate_traits@std@@@std@@YAPEAX_K@Z
_TEXT	SEGMENT
_Bytes$ = 224
??$_Allocate@$0BA@U_Default_allocate_traits@std@@@std@@YAPEAX_K@Z PROC ; std::_Allocate<16,std::_Default_allocate_traits>, COMDAT

; 229  : __declspec(allocator) _CONSTEXPR20 void* _Allocate(const size_t _Bytes) {

$LN6:
  00000	48 89 4c 24 08	 mov	 QWORD PTR [rsp+8], rcx
  00005	55		 push	 rbp
  00006	57		 push	 rdi
  00007	48 81 ec e8 00
	00 00		 sub	 rsp, 232		; 000000e8H
  0000e	48 8d 6c 24 20	 lea	 rbp, QWORD PTR [rsp+32]
  00013	48 8d 0d 00 00
	00 00		 lea	 rcx, OFFSET FLAT:__B41741EF_xmemory
  0001a	e8 00 00 00 00	 call	 __CheckForDebuggerJustMyCode
  0001f	90		 npad	 1

; 230  :     // allocate _Bytes
; 231  :     if (_Bytes == 0) {

  00020	48 83 bd e0 00
	00 00 00	 cmp	 QWORD PTR _Bytes$[rbp], 0
  00028	75 04		 jne	 SHORT $LN2@Allocate

; 232  :         return nullptr;

  0002a	33 c0		 xor	 eax, eax
  0002c	eb 41		 jmp	 SHORT $LN1@Allocate
$LN2@Allocate:

; 233  :     }
; 234  : 
; 235  : #if _HAS_CXX20 // TRANSITION, GH-1532
; 236  :     if (_STD is_constant_evaluated()) {

  0002e	e8 00 00 00 00	 call	 ?is_constant_evaluated@std@@YA_NXZ ; std::is_constant_evaluated
  00033	0f b6 c0	 movzx	 eax, al
  00036	85 c0		 test	 eax, eax
  00038	74 0e		 je	 SHORT $LN3@Allocate

; 237  :         return _Traits::_Allocate(_Bytes);

  0003a	48 8b 8d e0 00
	00 00		 mov	 rcx, QWORD PTR _Bytes$[rbp]
  00041	e8 00 00 00 00	 call	 ?_Allocate@_Default_allocate_traits@std@@SAPEAX_K@Z ; std::_Default_allocate_traits::_Allocate
  00046	eb 27		 jmp	 SHORT $LN1@Allocate
$LN3@Allocate:

; 238  :     }
; 239  : #endif // _HAS_CXX20
; 240  : 
; 241  : #ifdef __cpp_aligned_new
; 242  :     if constexpr (_Align > __STDCPP_DEFAULT_NEW_ALIGNMENT__) {
; 243  :         size_t _Passed_align = _Align;
; 244  : #if defined(_M_IX86) || defined(_M_X64)
; 245  :         if (_Bytes >= _Big_allocation_threshold) {
; 246  :             // boost the alignment of big allocations to help autovectorization
; 247  :             _Passed_align = (_STD max)(_Align, _Big_allocation_alignment);
; 248  :         }
; 249  : #endif // defined(_M_IX86) || defined(_M_X64)
; 250  :         return _Traits::_Allocate_aligned(_Bytes, _Passed_align);
; 251  :     } else
; 252  : #endif // defined(__cpp_aligned_new)
; 253  :     {
; 254  : #if defined(_M_IX86) || defined(_M_X64)
; 255  :         if (_Bytes >= _Big_allocation_threshold) {

  00048	48 81 bd e0 00
	00 00 00 10 00
	00		 cmp	 QWORD PTR _Bytes$[rbp], 4096 ; 00001000H
  00053	72 0e		 jb	 SHORT $LN4@Allocate

; 256  :             // boost the alignment of big allocations to help autovectorization
; 257  :             return _Allocate_manually_vector_aligned<_Traits>(_Bytes);

  00055	48 8b 8d e0 00
	00 00		 mov	 rcx, QWORD PTR _Bytes$[rbp]
  0005c	e8 00 00 00 00	 call	 ??$_Allocate_manually_vector_aligned@U_Default_allocate_traits@std@@@std@@YAPEAX_K@Z ; std::_Allocate_manually_vector_aligned<std::_Default_allocate_traits>
  00061	eb 0c		 jmp	 SHORT $LN1@Allocate
$LN4@Allocate:

; 258  :         }
; 259  : #endif // defined(_M_IX86) || defined(_M_X64)
; 260  :         return _Traits::_Allocate(_Bytes);

  00063	48 8b 8d e0 00
	00 00		 mov	 rcx, QWORD PTR _Bytes$[rbp]
  0006a	e8 00 00 00 00	 call	 ?_Allocate@_Default_allocate_traits@std@@SAPEAX_K@Z ; std::_Default_allocate_traits::_Allocate
$LN1@Allocate:

; 261  :     }
; 262  : }

  0006f	48 8d a5 c8 00
	00 00		 lea	 rsp, QWORD PTR [rbp+200]
  00076	5f		 pop	 rdi
  00077	5d		 pop	 rbp
  00078	c3		 ret	 0
??$_Allocate@$0BA@U_Default_allocate_traits@std@@@std@@YAPEAX_K@Z ENDP ; std::_Allocate<16,std::_Default_allocate_traits>
_TEXT	ENDS
; Function compile flags: /Odtp /RTCsu /ZI
; File C:\Program Files\Microsoft Visual Studio\18\Community\VC\Tools\MSVC\14.50.35717\include\xutility
;	COMDAT ??$_Construct_in_place@PEADAEAPEAD@std@@YAXAEAPEAD0@Z
_TEXT	SEGMENT
$T1 = 200
_Obj$ = 256
<_Args_0>$ = 264
??$_Construct_in_place@PEADAEAPEAD@std@@YAXAEAPEAD0@Z PROC ; std::_Construct_in_place<char *,char * &>, COMDAT

; 515  :     noexcept(is_nothrow_constructible_v<_Ty, _Types...>) {

$LN6:
  00000	48 89 54 24 10	 mov	 QWORD PTR [rsp+16], rdx
  00005	48 89 4c 24 08	 mov	 QWORD PTR [rsp+8], rcx
  0000a	55		 push	 rbp
  0000b	57		 push	 rdi
  0000c	48 81 ec 08 01
	00 00		 sub	 rsp, 264		; 00000108H
  00013	48 8d 6c 24 20	 lea	 rbp, QWORD PTR [rsp+32]
  00018	48 8d 0d 00 00
	00 00		 lea	 rcx, OFFSET FLAT:__C78B1955_xutility
  0001f	e8 00 00 00 00	 call	 __CheckForDebuggerJustMyCode
  00024	90		 npad	 1

; 516  : #if _HAS_CXX20
; 517  :     if (_STD is_constant_evaluated()) {

  00025	e8 00 00 00 00	 call	 ?is_constant_evaluated@std@@YA_NXZ ; std::is_constant_evaluated
  0002a	0f b6 c0	 movzx	 eax, al
  0002d	85 c0		 test	 eax, eax
  0002f	74 1e		 je	 SHORT $LN2@Construct_

; 518  :         _STD construct_at(_STD addressof(_Obj), _STD forward<_Types>(_Args)...);

  00031	48 8b 8d 00 01
	00 00		 mov	 rcx, QWORD PTR _Obj$[rbp]
  00038	e8 00 00 00 00	 call	 ??$addressof@PEAD@std@@YAPEAPEADAEAPEAD@Z ; std::addressof<char *>
  0003d	48 8b 95 08 01
	00 00		 mov	 rdx, QWORD PTR <_Args_0>$[rbp]
  00044	48 8b c8	 mov	 rcx, rax
  00047	e8 00 00 00 00	 call	 ??$construct_at@PEADAEAPEAD@std@@YAPEAPEADQEAPEADAEAPEAD@Z ; std::construct_at<char *,char * &>
  0004c	90		 npad	 1

; 519  :     } else

  0004d	eb 34		 jmp	 SHORT $LN3@Construct_
$LN2@Construct_:

; 520  : #endif // _HAS_CXX20
; 521  :     {
; 522  :         ::new (static_cast<void*>(_STD addressof(_Obj))) _Ty(_STD forward<_Types>(_Args)...);

  0004f	48 8b 8d 00 01
	00 00		 mov	 rcx, QWORD PTR _Obj$[rbp]
  00056	e8 00 00 00 00	 call	 ??$addressof@PEAD@std@@YAPEAPEADAEAPEAD@Z ; std::addressof<char *>
  0005b	48 8b d0	 mov	 rdx, rax
  0005e	b9 08 00 00 00	 mov	 ecx, 8
  00063	e8 00 00 00 00	 call	 ??2@YAPEAX_KPEAX@Z	; operator new
  00068	48 89 85 c8 00
	00 00		 mov	 QWORD PTR $T1[rbp], rax
  0006f	48 8b 85 c8 00
	00 00		 mov	 rax, QWORD PTR $T1[rbp]
  00076	48 8b 8d 08 01
	00 00		 mov	 rcx, QWORD PTR <_Args_0>$[rbp]
  0007d	48 8b 09	 mov	 rcx, QWORD PTR [rcx]
  00080	48 89 08	 mov	 QWORD PTR [rax], rcx
$LN3@Construct_:

; 523  :     }
; 524  : }

  00083	48 8d a5 e8 00
	00 00		 lea	 rsp, QWORD PTR [rbp+232]
  0008a	5f		 pop	 rdi
  0008b	5d		 pop	 rbp
  0008c	c3		 ret	 0
??$_Construct_in_place@PEADAEAPEAD@std@@YAXAEAPEAD0@Z ENDP ; std::_Construct_in_place<char *,char * &>
_TEXT	ENDS
; Function compile flags: /Odtp /RTCsu /ZI
; File C:\Program Files\Microsoft Visual Studio\18\Community\VC\Tools\MSVC\14.50.35717\include\type_traits
;	COMDAT ??$addressof@V?$_String_val@U?$_Simple_types@D@std@@@std@@@std@@YAPEAV?$_String_val@U?$_Simple_types@D@std@@@0@AEAV10@@Z
_TEXT	SEGMENT
_Val$ = 224
??$addressof@V?$_String_val@U?$_Simple_types@D@std@@@std@@@std@@YAPEAV?$_String_val@U?$_Simple_types@D@std@@@0@AEAV10@@Z PROC ; std::addressof<std::_String_val<std::_Simple_types<char> > >, COMDAT

; 1532 : _NODISCARD constexpr _Ty* addressof(_Ty& _Val) noexcept {

$LN4:
  00000	48 89 4c 24 08	 mov	 QWORD PTR [rsp+8], rcx
  00005	55		 push	 rbp
  00006	57		 push	 rdi
  00007	48 81 ec e8 00
	00 00		 sub	 rsp, 232		; 000000e8H
  0000e	48 8d 6c 24 20	 lea	 rbp, QWORD PTR [rsp+32]
  00013	48 8d 0d 00 00
	00 00		 lea	 rcx, OFFSET FLAT:__680F61A7_type_traits
  0001a	e8 00 00 00 00	 call	 __CheckForDebuggerJustMyCode
  0001f	90		 npad	 1

; 1533 :     return __builtin_addressof(_Val);

  00020	48 8b 85 e0 00
	00 00		 mov	 rax, QWORD PTR _Val$[rbp]

; 1534 : }

  00027	48 8d a5 c8 00
	00 00		 lea	 rsp, QWORD PTR [rbp+200]
  0002e	5f		 pop	 rdi
  0002f	5d		 pop	 rbp
  00030	c3		 ret	 0
??$addressof@V?$_String_val@U?$_Simple_types@D@std@@@std@@@std@@YAPEAV?$_String_val@U?$_Simple_types@D@std@@@0@AEAV10@@Z ENDP ; std::addressof<std::_String_val<std::_Simple_types<char> > >
_TEXT	ENDS
; Function compile flags: /Odtp /RTCsu /ZI
; File C:\Program Files\Microsoft Visual Studio\18\Community\VC\Tools\MSVC\14.50.35717\include\xstring
;	COMDAT ??$_Reallocate_grow_by@V<lambda_1>@?1???$_Append@D@?$basic_string@DU?$char_traits@D@std@@V?$allocator@D@2@@std@@AEAAAEAV23@QEBD_K@Z@PEBD_K@?$basic_string@DU?$char_traits@D@std@@V?$allocator@D@2@@std@@AEAAAEAV01@_KV<lambda_1>@?1???$_Append@D@01@AEAAAEAV01@QEBD0@Z@PEBD_K@Z
_TEXT	SEGMENT
_My_data$ = 8
_Old_size$ = 40
_New_size$ = 72
_Old_capacity$ = 104
_New_capacity$ = 136
_Al$ = 168
_New_ptr$ = 200
_Raw_new$ = 232
_Old_ptr$5 = 264
__$ArrayPad$ = 472
this$ = 512
_Size_increase$ = 520
_Fn$ = 528
<_Args_0>$ = 536
<_Args_1>$ = 544
??$_Reallocate_grow_by@V<lambda_1>@?1???$_Append@D@?$basic_string@DU?$char_traits@D@std@@V?$allocator@D@2@@std@@AEAAAEAV23@QEBD_K@Z@PEBD_K@?$basic_string@DU?$char_traits@D@std@@V?$allocator@D@2@@std@@AEAAAEAV01@_KV<lambda_1>@?1???$_Append@D@01@AEAAAEAV01@QEBD0@Z@PEBD_K@Z PROC ; std::basic_string<char,std::char_traits<char>,std::allocator<char> >::_Reallocate_grow_by<`std::basic_string<char,std::char_traits<char>,std::allocator<char> >::_Append<char>'::`2'::<lambda_1>,char const *,unsigned __int64>, COMDAT

; 2931 :     _CONSTEXPR20 basic_string& _Reallocate_grow_by(const size_type _Size_increase, _Fty _Fn, _ArgTys... _Args) {

$LN6:
  00000	4c 89 4c 24 20	 mov	 QWORD PTR [rsp+32], r9
  00005	44 88 44 24 18	 mov	 BYTE PTR [rsp+24], r8b
  0000a	48 89 54 24 10	 mov	 QWORD PTR [rsp+16], rdx
  0000f	48 89 4c 24 08	 mov	 QWORD PTR [rsp+8], rcx
  00014	55		 push	 rbp
  00015	57		 push	 rdi
  00016	48 81 ec 18 02
	00 00		 sub	 rsp, 536		; 00000218H
  0001d	48 8d 6c 24 30	 lea	 rbp, QWORD PTR [rsp+48]
  00022	48 8d 7c 24 30	 lea	 rdi, QWORD PTR [rsp+48]
  00027	b9 4a 00 00 00	 mov	 ecx, 74			; 0000004aH
  0002c	b8 cc cc cc cc	 mov	 eax, -858993460		; ccccccccH
  00031	f3 ab		 rep stosd
  00033	48 8b 8c 24 38
	02 00 00	 mov	 rcx, QWORD PTR [rsp+568]
  0003b	48 8b 05 00 00
	00 00		 mov	 rax, QWORD PTR __security_cookie
  00042	48 33 c5	 xor	 rax, rbp
  00045	48 89 85 d8 01
	00 00		 mov	 QWORD PTR __$ArrayPad$[rbp], rax
  0004c	48 8d 0d 00 00
	00 00		 lea	 rcx, OFFSET FLAT:__C0C4C773_xstring
  00053	e8 00 00 00 00	 call	 __CheckForDebuggerJustMyCode
  00058	90		 npad	 1

; 2932 :         // reallocate to increase size by _Size_increase elements, new buffer prepared by
; 2933 :         // _Fn(_New_ptr, _Old_ptr, _Old_size, _Args...)
; 2934 :         auto& _My_data            = _Mypair._Myval2;

  00059	48 8b 85 00 02
	00 00		 mov	 rax, QWORD PTR this$[rbp]
  00060	48 89 45 08	 mov	 QWORD PTR _My_data$[rbp], rax

; 2935 :         const size_type _Old_size = _My_data._Mysize;

  00064	48 8b 45 08	 mov	 rax, QWORD PTR _My_data$[rbp]
  00068	48 8b 40 18	 mov	 rax, QWORD PTR [rax+24]
  0006c	48 89 45 28	 mov	 QWORD PTR _Old_size$[rbp], rax

; 2936 :         if (max_size() - _Old_size < _Size_increase) {

  00070	48 8b 8d 00 02
	00 00		 mov	 rcx, QWORD PTR this$[rbp]
  00077	e8 00 00 00 00	 call	 ?max_size@?$basic_string@DU?$char_traits@D@std@@V?$allocator@D@2@@std@@QEBA_KXZ ; std::basic_string<char,std::char_traits<char>,std::allocator<char> >::max_size
  0007c	48 2b 45 28	 sub	 rax, QWORD PTR _Old_size$[rbp]
  00080	48 3b 85 08 02
	00 00		 cmp	 rax, QWORD PTR _Size_increase$[rbp]
  00087	73 06		 jae	 SHORT $LN2@Reallocate

; 2937 :             _Xlen_string(); // result too long

  00089	e8 00 00 00 00	 call	 ?_Xlen_string@std@@YAXXZ ; std::_Xlen_string
  0008e	90		 npad	 1
$LN2@Reallocate:

; 2938 :         }
; 2939 : 
; 2940 :         const size_type _New_size     = _Old_size + _Size_increase;

  0008f	48 8b 85 08 02
	00 00		 mov	 rax, QWORD PTR _Size_increase$[rbp]
  00096	48 8b 4d 28	 mov	 rcx, QWORD PTR _Old_size$[rbp]
  0009a	48 03 c8	 add	 rcx, rax
  0009d	48 8b c1	 mov	 rax, rcx
  000a0	48 89 45 48	 mov	 QWORD PTR _New_size$[rbp], rax

; 2941 :         const size_type _Old_capacity = _My_data._Myres;

  000a4	48 8b 45 08	 mov	 rax, QWORD PTR _My_data$[rbp]
  000a8	48 8b 40 20	 mov	 rax, QWORD PTR [rax+32]
  000ac	48 89 45 68	 mov	 QWORD PTR _Old_capacity$[rbp], rax

; 2942 :         size_type _New_capacity       = _Calculate_growth(_New_size);

  000b0	48 8b 55 48	 mov	 rdx, QWORD PTR _New_size$[rbp]
  000b4	48 8b 8d 00 02
	00 00		 mov	 rcx, QWORD PTR this$[rbp]
  000bb	e8 00 00 00 00	 call	 ?_Calculate_growth@?$basic_string@DU?$char_traits@D@std@@V?$allocator@D@2@@std@@AEBA_K_K@Z ; std::basic_string<char,std::char_traits<char>,std::allocator<char> >::_Calculate_growth
  000c0	48 89 85 88 00
	00 00		 mov	 QWORD PTR _New_capacity$[rbp], rax

; 2943 :         auto& _Al                     = _Getal();

  000c7	48 8b 8d 00 02
	00 00		 mov	 rcx, QWORD PTR this$[rbp]
  000ce	e8 00 00 00 00	 call	 ?_Getal@?$basic_string@DU?$char_traits@D@std@@V?$allocator@D@2@@std@@AEAAAEAV?$allocator@D@2@XZ ; std::basic_string<char,std::char_traits<char>,std::allocator<char> >::_Getal
  000d3	48 89 85 a8 00
	00 00		 mov	 QWORD PTR _Al$[rbp], rax

; 2944 :         const pointer _New_ptr        = _Allocate_for_capacity(_Al, _New_capacity); // throws

  000da	48 8d 95 88 00
	00 00		 lea	 rdx, QWORD PTR _New_capacity$[rbp]
  000e1	48 8b 8d a8 00
	00 00		 mov	 rcx, QWORD PTR _Al$[rbp]
  000e8	e8 00 00 00 00	 call	 ??$_Allocate_for_capacity@$0A@@?$basic_string@DU?$char_traits@D@std@@V?$allocator@D@2@@std@@CAPEADAEAV?$allocator@D@1@AEA_K@Z ; std::basic_string<char,std::char_traits<char>,std::allocator<char> >::_Allocate_for_capacity<0>
  000ed	48 89 85 c8 00
	00 00		 mov	 QWORD PTR _New_ptr$[rbp], rax

; 2945 : 
; 2946 :         _My_data._Orphan_all();

  000f4	48 8b 4d 08	 mov	 rcx, QWORD PTR _My_data$[rbp]
  000f8	e8 00 00 00 00	 call	 ?_Orphan_all@_Container_base12@std@@QEAAXXZ ; std::_Container_base12::_Orphan_all
  000fd	90		 npad	 1

; 2947 :         _ASAN_STRING_REMOVE(*this);
; 2948 :         _My_data._Mysize      = _New_size;

  000fe	48 8b 45 08	 mov	 rax, QWORD PTR _My_data$[rbp]
  00102	48 8b 4d 48	 mov	 rcx, QWORD PTR _New_size$[rbp]
  00106	48 89 48 18	 mov	 QWORD PTR [rax+24], rcx

; 2949 :         _My_data._Myres       = _New_capacity;

  0010a	48 8b 45 08	 mov	 rax, QWORD PTR _My_data$[rbp]
  0010e	48 8b 8d 88 00
	00 00		 mov	 rcx, QWORD PTR _New_capacity$[rbp]
  00115	48 89 48 20	 mov	 QWORD PTR [rax+32], rcx

; 2950 :         _Elem* const _Raw_new = _Unfancy(_New_ptr);

  00119	48 8b 8d c8 00
	00 00		 mov	 rcx, QWORD PTR _New_ptr$[rbp]
  00120	e8 00 00 00 00	 call	 ??$_Unfancy@D@std@@YAPEADPEAD@Z ; std::_Unfancy<char>
  00125	48 89 85 e8 00
	00 00		 mov	 QWORD PTR _Raw_new$[rbp], rax

; 2951 :         if (_Old_capacity > _Small_string_capacity) {

  0012c	48 83 7d 68 0f	 cmp	 QWORD PTR _Old_capacity$[rbp], 15
  00131	76 6b		 jbe	 SHORT $LN3@Reallocate

; 2952 :             const pointer _Old_ptr = _My_data._Bx._Ptr;

  00133	48 8b 45 08	 mov	 rax, QWORD PTR _My_data$[rbp]
  00137	48 8b 40 08	 mov	 rax, QWORD PTR [rax+8]
  0013b	48 89 85 08 01
	00 00		 mov	 QWORD PTR _Old_ptr$5[rbp], rax

; 2953 :             _Fn(_Raw_new, _Unfancy(_Old_ptr), _Old_size, _Args...);

  00142	48 8b 8d 08 01
	00 00		 mov	 rcx, QWORD PTR _Old_ptr$5[rbp]
  00149	e8 00 00 00 00	 call	 ??$_Unfancy@D@std@@YAPEADPEAD@Z ; std::_Unfancy<char>
  0014e	48 8b 8d 20 02
	00 00		 mov	 rcx, QWORD PTR <_Args_1>$[rbp]
  00155	48 89 4c 24 20	 mov	 QWORD PTR [rsp+32], rcx
  0015a	4c 8b 8d 18 02
	00 00		 mov	 r9, QWORD PTR <_Args_0>$[rbp]
  00161	4c 8b 45 28	 mov	 r8, QWORD PTR _Old_size$[rbp]
  00165	48 8b d0	 mov	 rdx, rax
  00168	48 8b 8d e8 00
	00 00		 mov	 rcx, QWORD PTR _Raw_new$[rbp]
  0016f	e8 00 00 00 00	 call	 ??R<lambda_1>@?1???$_Append@D@?$basic_string@DU?$char_traits@D@std@@V?$allocator@D@2@@std@@AEAAAEAV12@QEBD_K@Z@SA@QEAD0101@Z ; `std::basic_string<char,std::char_traits<char>,std::allocator<char> >::_Append<char>'::`2'::<lambda_1>::operator()
  00174	90		 npad	 1

; 2954 :             _Deallocate_for_capacity(_Al, _Old_ptr, _Old_capacity);

  00175	4c 8b 45 68	 mov	 r8, QWORD PTR _Old_capacity$[rbp]
  00179	48 8b 95 08 01
	00 00		 mov	 rdx, QWORD PTR _Old_ptr$5[rbp]
  00180	48 8b 8d a8 00
	00 00		 mov	 rcx, QWORD PTR _Al$[rbp]
  00187	e8 00 00 00 00	 call	 ?_Deallocate_for_capacity@?$basic_string@DU?$char_traits@D@std@@V?$allocator@D@2@@std@@CAXAEAV?$allocator@D@2@QEAD_K@Z ; std::basic_string<char,std::char_traits<char>,std::allocator<char> >::_Deallocate_for_capacity
  0018c	90		 npad	 1

; 2955 :             _My_data._Bx._Ptr = _New_ptr;

  0018d	48 8b 45 08	 mov	 rax, QWORD PTR _My_data$[rbp]
  00191	48 8b 8d c8 00
	00 00		 mov	 rcx, QWORD PTR _New_ptr$[rbp]
  00198	48 89 48 08	 mov	 QWORD PTR [rax+8], rcx

; 2956 :         } else {

  0019c	eb 47		 jmp	 SHORT $LN4@Reallocate
$LN3@Reallocate:

; 2957 :             _Fn(_Raw_new, _My_data._Bx._Buf, _Old_size, _Args...);

  0019e	48 8b 45 08	 mov	 rax, QWORD PTR _My_data$[rbp]
  001a2	48 83 c0 08	 add	 rax, 8
  001a6	48 8b 8d 20 02
	00 00		 mov	 rcx, QWORD PTR <_Args_1>$[rbp]
  001ad	48 89 4c 24 20	 mov	 QWORD PTR [rsp+32], rcx
  001b2	4c 8b 8d 18 02
	00 00		 mov	 r9, QWORD PTR <_Args_0>$[rbp]
  001b9	4c 8b 45 28	 mov	 r8, QWORD PTR _Old_size$[rbp]
  001bd	48 8b d0	 mov	 rdx, rax
  001c0	48 8b 8d e8 00
	00 00		 mov	 rcx, QWORD PTR _Raw_new$[rbp]
  001c7	e8 00 00 00 00	 call	 ??R<lambda_1>@?1???$_Append@D@?$basic_string@DU?$char_traits@D@std@@V?$allocator@D@2@@std@@AEAAAEAV12@QEBD_K@Z@SA@QEAD0101@Z ; `std::basic_string<char,std::char_traits<char>,std::allocator<char> >::_Append<char>'::`2'::<lambda_1>::operator()
  001cc	90		 npad	 1

; 2958 :             _Construct_in_place(_My_data._Bx._Ptr, _New_ptr);

  001cd	48 8b 45 08	 mov	 rax, QWORD PTR _My_data$[rbp]
  001d1	48 83 c0 08	 add	 rax, 8
  001d5	48 8d 95 c8 00
	00 00		 lea	 rdx, QWORD PTR _New_ptr$[rbp]
  001dc	48 8b c8	 mov	 rcx, rax
  001df	e8 00 00 00 00	 call	 ??$_Construct_in_place@PEADAEBQEAD@std@@YAXAEAPEADAEBQEAD@Z ; std::_Construct_in_place<char *,char * const &>
  001e4	90		 npad	 1
$LN4@Reallocate:

; 2959 :         }
; 2960 : 
; 2961 :         _ASAN_STRING_CREATE(*this);
; 2962 :         return *this;

  001e5	48 8b 85 00 02
	00 00		 mov	 rax, QWORD PTR this$[rbp]
$LN5@Reallocate:

; 2963 :     }

  001ec	48 8b f8	 mov	 rdi, rax
  001ef	48 8d 4d d0	 lea	 rcx, QWORD PTR [rbp-48]
  001f3	48 8d 15 00 00
	00 00		 lea	 rdx, OFFSET FLAT:??$_Reallocate_grow_by@V<lambda_1>@?1???$_Append@D@?$basic_string@DU?$char_traits@D@std@@V?$allocator@D@2@@std@@AEAAAEAV23@QEBD_K@Z@PEBD_K@?$basic_string@DU?$char_traits@D@std@@V?$allocator@D@2@@std@@AEAAAEAV01@_KV<lambda_1>@?1???$_Append@D@01@AEAAAEAV01@QEBD0@Z@PEBD_K@Z$rtcFrameData
  001fa	e8 00 00 00 00	 call	 _RTC_CheckStackVars
  001ff	48 8b c7	 mov	 rax, rdi
  00202	48 8b 8d d8 01
	00 00		 mov	 rcx, QWORD PTR __$ArrayPad$[rbp]
  00209	48 33 cd	 xor	 rcx, rbp
  0020c	e8 00 00 00 00	 call	 __security_check_cookie
  00211	48 8d a5 e8 01
	00 00		 lea	 rsp, QWORD PTR [rbp+488]
  00218	5f		 pop	 rdi
  00219	5d		 pop	 rbp
  0021a	c3		 ret	 0
??$_Reallocate_grow_by@V<lambda_1>@?1???$_Append@D@?$basic_string@DU?$char_traits@D@std@@V?$allocator@D@2@@std@@AEAAAEAV23@QEBD_K@Z@PEBD_K@?$basic_string@DU?$char_traits@D@std@@V?$allocator@D@2@@std@@AEAAAEAV01@_KV<lambda_1>@?1???$_Append@D@01@AEAAAEAV01@QEBD0@Z@PEBD_K@Z ENDP ; std::basic_string<char,std::char_traits<char>,std::allocator<char> >::_Reallocate_grow_by<`std::basic_string<char,std::char_traits<char>,std::allocator<char> >::_Append<char>'::`2'::<lambda_1>,char const *,unsigned __int64>
_TEXT	ENDS
; Function compile flags: /Odtp /RTCsu /ZI
; File C:\Program Files\Microsoft Visual Studio\18\Community\VC\Tools\MSVC\14.50.35717\include\xstring
;	COMDAT ??R<lambda_1>@?1???$_Append@D@?$basic_string@DU?$char_traits@D@std@@V?$allocator@D@2@@std@@AEAAAEAV12@QEBD_K@Z@SA@QEAD0101@Z
_TEXT	SEGMENT
$T1 = 196
_New_ptr$ = 256
_Old_ptr$ = 264
_Old_size$ = 272
_Ptr$ = 280
_Count$ = 288
??R<lambda_1>@?1???$_Append@D@?$basic_string@DU?$char_traits@D@std@@V?$allocator@D@2@@std@@AEAAAEAV12@QEBD_K@Z@SA@QEAD0101@Z PROC ; `std::basic_string<char,std::char_traits<char>,std::allocator<char> >::_Append<char>'::`2'::<lambda_1>::operator(), COMDAT

; 3006 :                 const size_type _Count) _STATIC_LAMBDA {

$LN3:
  00000	4c 89 4c 24 20	 mov	 QWORD PTR [rsp+32], r9
  00005	4c 89 44 24 18	 mov	 QWORD PTR [rsp+24], r8
  0000a	48 89 54 24 10	 mov	 QWORD PTR [rsp+16], rdx
  0000f	48 89 4c 24 08	 mov	 QWORD PTR [rsp+8], rcx
  00014	55		 push	 rbp
  00015	57		 push	 rdi
  00016	48 81 ec 08 01
	00 00		 sub	 rsp, 264		; 00000108H
  0001d	48 8d 6c 24 20	 lea	 rbp, QWORD PTR [rsp+32]
  00022	48 8d 0d 00 00
	00 00		 lea	 rcx, OFFSET FLAT:__C0C4C773_xstring
  00029	e8 00 00 00 00	 call	 __CheckForDebuggerJustMyCode
  0002e	90		 npad	 1

; 3007 :                 _Traits::copy(_New_ptr, _Old_ptr, _Old_size);

  0002f	4c 8b 85 10 01
	00 00		 mov	 r8, QWORD PTR _Old_size$[rbp]
  00036	48 8b 95 08 01
	00 00		 mov	 rdx, QWORD PTR _Old_ptr$[rbp]
  0003d	48 8b 8d 00 01
	00 00		 mov	 rcx, QWORD PTR _New_ptr$[rbp]
  00044	e8 00 00 00 00	 call	 ?copy@?$_Char_traits@DH@std@@SAPEADQEADQEBD_K@Z ; std::_Char_traits<char,int>::copy
  00049	90		 npad	 1

; 3008 :                 _STD _Traits_copy_batch<_Traits>(_New_ptr + _Old_size, _Ptr, _Count);

  0004a	48 8b 85 10 01
	00 00		 mov	 rax, QWORD PTR _Old_size$[rbp]
  00051	48 8b 8d 00 01
	00 00		 mov	 rcx, QWORD PTR _New_ptr$[rbp]
  00058	48 03 c8	 add	 rcx, rax
  0005b	48 8b c1	 mov	 rax, rcx
  0005e	4c 8b 85 20 01
	00 00		 mov	 r8, QWORD PTR _Count$[rbp]
  00065	48 8b 95 18 01
	00 00		 mov	 rdx, QWORD PTR _Ptr$[rbp]
  0006c	48 8b c8	 mov	 rcx, rax
  0006f	e8 00 00 00 00	 call	 ??$_Traits_copy_batch@U?$char_traits@D@std@@D@std@@YAXQEADQEBD_K@Z ; std::_Traits_copy_batch<std::char_traits<char>,char>
  00074	90		 npad	 1

; 3009 :                 _Traits::assign(_New_ptr[_Old_size + _Count], _Elem());

  00075	c6 85 c4 00 00
	00 00		 mov	 BYTE PTR $T1[rbp], 0
  0007c	48 8b 85 20 01
	00 00		 mov	 rax, QWORD PTR _Count$[rbp]
  00083	48 8b 8d 10 01
	00 00		 mov	 rcx, QWORD PTR _Old_size$[rbp]
  0008a	48 03 c8	 add	 rcx, rax
  0008d	48 8b c1	 mov	 rax, rcx
  00090	48 8b 8d 00 01
	00 00		 mov	 rcx, QWORD PTR _New_ptr$[rbp]
  00097	48 03 c8	 add	 rcx, rax
  0009a	48 8b c1	 mov	 rax, rcx
  0009d	48 8d 95 c4 00
	00 00		 lea	 rdx, QWORD PTR $T1[rbp]
  000a4	48 8b c8	 mov	 rcx, rax
  000a7	e8 00 00 00 00	 call	 ?assign@?$_Narrow_char_traits@DH@std@@SAXAEADAEBD@Z ; std::_Narrow_char_traits<char,int>::assign
  000ac	90		 npad	 1

; 3010 :             },

  000ad	48 8d a5 e8 00
	00 00		 lea	 rsp, QWORD PTR [rbp+232]
  000b4	5f		 pop	 rdi
  000b5	5d		 pop	 rbp
  000b6	c3		 ret	 0
??R<lambda_1>@?1???$_Append@D@?$basic_string@DU?$char_traits@D@std@@V?$allocator@D@2@@std@@AEAAAEAV12@QEBD_K@Z@SA@QEAD0101@Z ENDP ; `std::basic_string<char,std::char_traits<char>,std::allocator<char> >::_Append<char>'::`2'::<lambda_1>::operator()
_TEXT	ENDS
; Function compile flags: /Odtp /RTCsu /ZI
; File C:\Program Files\Microsoft Visual Studio\18\Community\VC\Tools\MSVC\14.50.35717\include\xstring
;	COMDAT ??$_Traits_move_batch@U?$char_traits@D@std@@D@std@@YAXQEADQEBD_K@Z
_TEXT	SEGMENT
_First1$ = 224
_First2$ = 232
_Count$ = 240
??$_Traits_move_batch@U?$char_traits@D@std@@D@std@@YAXQEADQEBD_K@Z PROC ; std::_Traits_move_batch<std::char_traits<char>,char>, COMDAT

; 546  :     _In_reads_(_Count) const _UElem* const _First2, const size_t _Count) noexcept {

$LN4:
  00000	4c 89 44 24 18	 mov	 QWORD PTR [rsp+24], r8
  00005	48 89 54 24 10	 mov	 QWORD PTR [rsp+16], rdx
  0000a	48 89 4c 24 08	 mov	 QWORD PTR [rsp+8], rcx
  0000f	55		 push	 rbp
  00010	57		 push	 rdi
  00011	48 81 ec e8 00
	00 00		 sub	 rsp, 232		; 000000e8H
  00018	48 8d 6c 24 20	 lea	 rbp, QWORD PTR [rsp+32]
  0001d	48 8d 0d 00 00
	00 00		 lea	 rcx, OFFSET FLAT:__C0C4C773_xstring
  00024	e8 00 00 00 00	 call	 __CheckForDebuggerJustMyCode
  00029	90		 npad	 1

; 547  :     _STL_INTERNAL_STATIC_ASSERT(_Is_any_of_v<_UElem, _Traits_ch_t<_Traits>, volatile _Traits_ch_t<_Traits>>);
; 548  : 
; 549  :     if constexpr (is_volatile_v<_UElem>) {
; 550  :         bool _Loop_forward = true;
; 551  : 
; 552  :         for (const _UElem* _Src = _First2; _Src != _First2 + _Count; ++_Src) {
; 553  :             if (_First1 == _Src) {
; 554  :                 _Loop_forward = false;
; 555  :                 break;
; 556  :             }
; 557  :         }
; 558  : 
; 559  :         if (_Loop_forward) {
; 560  :             for (size_t _Idx = 0; _Idx != _Count; ++_Idx) {
; 561  :                 _Traits::assign(_First1[_Idx], _Traits_ch_t<_Traits>{_First2[_Idx]});
; 562  :             }
; 563  :         } else {
; 564  :             for (size_t _Idx = _Count; _Idx != 0; --_Idx) {
; 565  :                 _Traits::assign(_First1[_Idx - 1], _Traits_ch_t<_Traits>{_First2[_Idx - 1]});
; 566  :             }
; 567  :         }
; 568  :     } else {
; 569  :         (void) _Traits::move(_First1, _First2, _Count);

  0002a	4c 8b 85 f0 00
	00 00		 mov	 r8, QWORD PTR _Count$[rbp]
  00031	48 8b 95 e8 00
	00 00		 mov	 rdx, QWORD PTR _First2$[rbp]
  00038	48 8b 8d e0 00
	00 00		 mov	 rcx, QWORD PTR _First1$[rbp]
  0003f	e8 00 00 00 00	 call	 ?move@?$_Char_traits@DH@std@@SAPEADQEADQEBD_K@Z ; std::_Char_traits<char,int>::move
  00044	90		 npad	 1

; 570  :     }
; 571  : }

  00045	48 8d a5 c8 00
	00 00		 lea	 rsp, QWORD PTR [rbp+200]
  0004c	5f		 pop	 rdi
  0004d	5d		 pop	 rbp
  0004e	c3		 ret	 0
??$_Traits_move_batch@U?$char_traits@D@std@@D@std@@YAXQEADQEBD_K@Z ENDP ; std::_Traits_move_batch<std::char_traits<char>,char>
_TEXT	ENDS
; Function compile flags: /Odtp /RTCsu /ZI
; File C:\Program Files\Microsoft Visual Studio\18\Community\VC\Tools\MSVC\14.50.35717\include\xmemory
;	COMDAT ??$_Unfancy@U_Container_proxy@std@@@std@@YAPEAU_Container_proxy@0@PEAU10@@Z
_TEXT	SEGMENT
_Ptr$ = 224
??$_Unfancy@U_Container_proxy@std@@@std@@YAPEAU_Container_proxy@0@PEAU10@@Z PROC ; std::_Unfancy<std::_Container_proxy>, COMDAT

; 72   : _NODISCARD constexpr _Ty* _Unfancy(_Ty* _Ptr) noexcept { // do nothing for plain pointers

$LN4:
  00000	48 89 4c 24 08	 mov	 QWORD PTR [rsp+8], rcx
  00005	55		 push	 rbp
  00006	57		 push	 rdi
  00007	48 81 ec e8 00
	00 00		 sub	 rsp, 232		; 000000e8H
  0000e	48 8d 6c 24 20	 lea	 rbp, QWORD PTR [rsp+32]
  00013	48 8d 0d 00 00
	00 00		 lea	 rcx, OFFSET FLAT:__B41741EF_xmemory
  0001a	e8 00 00 00 00	 call	 __CheckForDebuggerJustMyCode
  0001f	90		 npad	 1

; 73   :     return _Ptr;

  00020	48 8b 85 e0 00
	00 00		 mov	 rax, QWORD PTR _Ptr$[rbp]

; 74   : }

  00027	48 8d a5 c8 00
	00 00		 lea	 rsp, QWORD PTR [rbp+200]
  0002e	5f		 pop	 rdi
  0002f	5d		 pop	 rbp
  00030	c3		 ret	 0
??$_Unfancy@U_Container_proxy@std@@@std@@YAPEAU_Container_proxy@0@PEAU10@@Z ENDP ; std::_Unfancy<std::_Container_proxy>
_TEXT	ENDS
; Function compile flags: /Odtp /RTCsu /ZI
; File C:\Program Files\Microsoft Visual Studio\18\Community\VC\Tools\MSVC\14.50.35717\include\xmemory
;	COMDAT ??$_Deallocate_plain@V?$allocator@U_Container_proxy@std@@@std@@@std@@YAXAEAV?$allocator@U_Container_proxy@std@@@0@QEAU_Container_proxy@0@@Z
_TEXT	SEGMENT
_Al$ = 224
_Ptr$ = 232
??$_Deallocate_plain@V?$allocator@U_Container_proxy@std@@@std@@@std@@YAXAEAV?$allocator@U_Container_proxy@std@@@0@QEAU_Container_proxy@0@@Z PROC ; std::_Deallocate_plain<std::allocator<std::_Container_proxy> >, COMDAT

; 1147 : _CONSTEXPR20 void _Deallocate_plain(_Alloc& _Al, typename _Alloc::value_type* const _Ptr) noexcept {

$LN4:
  00000	48 89 54 24 10	 mov	 QWORD PTR [rsp+16], rdx
  00005	48 89 4c 24 08	 mov	 QWORD PTR [rsp+8], rcx
  0000a	55		 push	 rbp
  0000b	57		 push	 rdi
  0000c	48 81 ec e8 00
	00 00		 sub	 rsp, 232		; 000000e8H
  00013	48 8d 6c 24 20	 lea	 rbp, QWORD PTR [rsp+32]
  00018	48 8d 0d 00 00
	00 00		 lea	 rcx, OFFSET FLAT:__B41741EF_xmemory
  0001f	e8 00 00 00 00	 call	 __CheckForDebuggerJustMyCode
  00024	90		 npad	 1

; 1148 :     // deallocate a plain pointer using an allocator
; 1149 :     using _Alloc_traits = allocator_traits<_Alloc>;
; 1150 :     if constexpr (is_same_v<_Alloc_ptr_t<_Alloc>, typename _Alloc::value_type*>) {
; 1151 :         _Alloc_traits::deallocate(_Al, _Ptr, 1);

  00025	41 b8 01 00 00
	00		 mov	 r8d, 1
  0002b	48 8b 95 e8 00
	00 00		 mov	 rdx, QWORD PTR _Ptr$[rbp]
  00032	48 8b 8d e0 00
	00 00		 mov	 rcx, QWORD PTR _Al$[rbp]
  00039	e8 00 00 00 00	 call	 ?deallocate@?$_Default_allocator_traits@V?$allocator@U_Container_proxy@std@@@std@@@std@@SAXAEAV?$allocator@U_Container_proxy@std@@@2@QEAU_Container_proxy@2@_K@Z ; std::_Default_allocator_traits<std::allocator<std::_Container_proxy> >::deallocate
  0003e	90		 npad	 1

; 1152 :     } else {
; 1153 :         using _Ptr_traits = pointer_traits<_Alloc_ptr_t<_Alloc>>;
; 1154 :         _Alloc_traits::deallocate(_Al, _Ptr_traits::pointer_to(*_Ptr), 1);
; 1155 :     }
; 1156 : }

  0003f	48 8d a5 c8 00
	00 00		 lea	 rsp, QWORD PTR [rbp+200]
  00046	5f		 pop	 rdi
  00047	5d		 pop	 rbp
  00048	c3		 ret	 0
??$_Deallocate_plain@V?$allocator@U_Container_proxy@std@@@std@@@std@@YAXAEAV?$allocator@U_Container_proxy@std@@@0@QEAU_Container_proxy@0@@Z ENDP ; std::_Deallocate_plain<std::allocator<std::_Container_proxy> >
_TEXT	ENDS
; Function compile flags: /Odtp /RTCsu /ZI
; File C:\Program Files\Microsoft Visual Studio\18\Community\VC\Tools\MSVC\14.50.35717\include\xutility
;	COMDAT ??$_Construct_in_place@PEADAEBQEAD@std@@YAXAEAPEADAEBQEAD@Z
_TEXT	SEGMENT
$T1 = 200
_Obj$ = 256
<_Args_0>$ = 264
??$_Construct_in_place@PEADAEBQEAD@std@@YAXAEAPEADAEBQEAD@Z PROC ; std::_Construct_in_place<char *,char * const &>, COMDAT

; 515  :     noexcept(is_nothrow_constructible_v<_Ty, _Types...>) {

$LN6:
  00000	48 89 54 24 10	 mov	 QWORD PTR [rsp+16], rdx
  00005	48 89 4c 24 08	 mov	 QWORD PTR [rsp+8], rcx
  0000a	55		 push	 rbp
  0000b	57		 push	 rdi
  0000c	48 81 ec 08 01
	00 00		 sub	 rsp, 264		; 00000108H
  00013	48 8d 6c 24 20	 lea	 rbp, QWORD PTR [rsp+32]
  00018	48 8d 0d 00 00
	00 00		 lea	 rcx, OFFSET FLAT:__C78B1955_xutility
  0001f	e8 00 00 00 00	 call	 __CheckForDebuggerJustMyCode
  00024	90		 npad	 1

; 516  : #if _HAS_CXX20
; 517  :     if (_STD is_constant_evaluated()) {

  00025	e8 00 00 00 00	 call	 ?is_constant_evaluated@std@@YA_NXZ ; std::is_constant_evaluated
  0002a	0f b6 c0	 movzx	 eax, al
  0002d	85 c0		 test	 eax, eax
  0002f	74 1e		 je	 SHORT $LN2@Construct_

; 518  :         _STD construct_at(_STD addressof(_Obj), _STD forward<_Types>(_Args)...);

  00031	48 8b 8d 00 01
	00 00		 mov	 rcx, QWORD PTR _Obj$[rbp]
  00038	e8 00 00 00 00	 call	 ??$addressof@PEAD@std@@YAPEAPEADAEAPEAD@Z ; std::addressof<char *>
  0003d	48 8b 95 08 01
	00 00		 mov	 rdx, QWORD PTR <_Args_0>$[rbp]
  00044	48 8b c8	 mov	 rcx, rax
  00047	e8 00 00 00 00	 call	 ??$construct_at@PEADAEBQEAD@std@@YAPEAPEADQEAPEADAEBQEAD@Z ; std::construct_at<char *,char * const &>
  0004c	90		 npad	 1

; 519  :     } else

  0004d	eb 34		 jmp	 SHORT $LN3@Construct_
$LN2@Construct_:

; 520  : #endif // _HAS_CXX20
; 521  :     {
; 522  :         ::new (static_cast<void*>(_STD addressof(_Obj))) _Ty(_STD forward<_Types>(_Args)...);

  0004f	48 8b 8d 00 01
	00 00		 mov	 rcx, QWORD PTR _Obj$[rbp]
  00056	e8 00 00 00 00	 call	 ??$addressof@PEAD@std@@YAPEAPEADAEAPEAD@Z ; std::addressof<char *>
  0005b	48 8b d0	 mov	 rdx, rax
  0005e	b9 08 00 00 00	 mov	 ecx, 8
  00063	e8 00 00 00 00	 call	 ??2@YAPEAX_KPEAX@Z	; operator new
  00068	48 89 85 c8 00
	00 00		 mov	 QWORD PTR $T1[rbp], rax
  0006f	48 8b 85 c8 00
	00 00		 mov	 rax, QWORD PTR $T1[rbp]
  00076	48 8b 8d 08 01
	00 00		 mov	 rcx, QWORD PTR <_Args_0>$[rbp]
  0007d	48 8b 09	 mov	 rcx, QWORD PTR [rcx]
  00080	48 89 08	 mov	 QWORD PTR [rax], rcx
$LN3@Construct_:

; 523  :     }
; 524  : }

  00083	48 8d a5 e8 00
	00 00		 lea	 rsp, QWORD PTR [rbp+232]
  0008a	5f		 pop	 rdi
  0008b	5d		 pop	 rbp
  0008c	c3		 ret	 0
??$_Construct_in_place@PEADAEBQEAD@std@@YAXAEAPEADAEBQEAD@Z ENDP ; std::_Construct_in_place<char *,char * const &>
_TEXT	ENDS
; Function compile flags: /Odtp /RTCsu /ZI
; File C:\Program Files\Microsoft Visual Studio\18\Community\VC\Tools\MSVC\14.50.35717\include\xutility
;	COMDAT ??$construct_at@D$$V@std@@YAPEADQEAD@Z
_TEXT	SEGMENT
$T1 = 200
$T2 = 232
_Location$ = 288
??$construct_at@D$$V@std@@YAPEADQEAD@Z PROC		; std::construct_at<char>, COMDAT

; 508  :     noexcept(noexcept(::new (static_cast<void*>(_Location)) _Ty(_STD forward<_Types>(_Args)...))) /* strengthened */ {

$LN4:
  00000	48 89 4c 24 08	 mov	 QWORD PTR [rsp+8], rcx
  00005	55		 push	 rbp
  00006	57		 push	 rdi
  00007	48 81 ec 28 01
	00 00		 sub	 rsp, 296		; 00000128H
  0000e	48 8d 6c 24 20	 lea	 rbp, QWORD PTR [rsp+32]
  00013	48 8d 0d 00 00
	00 00		 lea	 rcx, OFFSET FLAT:__C78B1955_xutility
  0001a	e8 00 00 00 00	 call	 __CheckForDebuggerJustMyCode
  0001f	90		 npad	 1

; 509  :     _MSVC_CONSTEXPR return ::new (static_cast<void*>(_Location)) _Ty(_STD forward<_Types>(_Args)...);

  00020	48 c7 85 c8 00
	00 00 01 00 00
	00		 mov	 QWORD PTR $T1[rbp], 1
  0002b	48 8b 95 20 01
	00 00		 mov	 rdx, QWORD PTR _Location$[rbp]
  00032	48 8b 8d c8 00
	00 00		 mov	 rcx, QWORD PTR $T1[rbp]
  00039	e8 00 00 00 00	 call	 ??2@YAPEAX_KPEAX@Z	; operator new
  0003e	48 89 85 e8 00
	00 00		 mov	 QWORD PTR $T2[rbp], rax
  00045	48 8b bd e8 00
	00 00		 mov	 rdi, QWORD PTR $T2[rbp]
  0004c	33 c0		 xor	 eax, eax
  0004e	48 8b 8d c8 00
	00 00		 mov	 rcx, QWORD PTR $T1[rbp]
  00055	f3 aa		 rep stosb
  00057	48 8b 85 e8 00
	00 00		 mov	 rax, QWORD PTR $T2[rbp]

; 510  : }

  0005e	48 8d a5 08 01
	00 00		 lea	 rsp, QWORD PTR [rbp+264]
  00065	5f		 pop	 rdi
  00066	5d		 pop	 rbp
  00067	c3		 ret	 0
??$construct_at@D$$V@std@@YAPEADQEAD@Z ENDP		; std::construct_at<char>
_TEXT	ENDS
; Function compile flags: /Odtp /RTCsu /ZI
; File C:\Program Files\Microsoft Visual Studio\18\Community\VC\Tools\MSVC\14.50.35717\include\xstring
;	COMDAT ??$_Allocate_for_capacity@$0A@@?$basic_string@DU?$char_traits@D@std@@V?$allocator@D@2@@std@@CAPEADAEAV?$allocator@D@1@AEA_K@Z
_TEXT	SEGMENT
_Fancy_ptr$ = 8
_Ptr$1 = 40
_Idx$2 = 72
_Al$ = 320
_Capacity$ = 328
??$_Allocate_for_capacity@$0A@@?$basic_string@DU?$char_traits@D@std@@V?$allocator@D@2@@std@@CAPEADAEAV?$allocator@D@1@AEA_K@Z PROC ; std::basic_string<char,std::char_traits<char>,std::allocator<char> >::_Allocate_for_capacity<0>, COMDAT

; 873  :     _NODISCARD static _CONSTEXPR20 pointer _Allocate_for_capacity(_Alty& _Al, size_type& _Capacity) {

$LN7:
  00000	48 89 54 24 10	 mov	 QWORD PTR [rsp+16], rdx
  00005	48 89 4c 24 08	 mov	 QWORD PTR [rsp+8], rcx
  0000a	55		 push	 rbp
  0000b	57		 push	 rdi
  0000c	48 81 ec 48 01
	00 00		 sub	 rsp, 328		; 00000148H
  00013	48 8d 6c 24 20	 lea	 rbp, QWORD PTR [rsp+32]
  00018	48 8d 0d 00 00
	00 00		 lea	 rcx, OFFSET FLAT:__C0C4C773_xstring
  0001f	e8 00 00 00 00	 call	 __CheckForDebuggerJustMyCode
  00024	90		 npad	 1

; 874  :         _STL_INTERNAL_CHECK(_Capacity > _Small_string_capacity);
; 875  :         ++_Capacity; // Take null terminator into consideration

  00025	48 8b 85 48 01
	00 00		 mov	 rax, QWORD PTR _Capacity$[rbp]
  0002c	48 8b 00	 mov	 rax, QWORD PTR [rax]
  0002f	48 ff c0	 inc	 rax
  00032	48 8b 8d 48 01
	00 00		 mov	 rcx, QWORD PTR _Capacity$[rbp]
  00039	48 89 01	 mov	 QWORD PTR [rcx], rax

; 876  : 
; 877  :         pointer _Fancy_ptr = nullptr;

  0003c	48 c7 45 08 00
	00 00 00	 mov	 QWORD PTR _Fancy_ptr$[rbp], 0

; 878  :         if constexpr (_Policy == _Allocation_policy::_At_least) {
; 879  :             _Fancy_ptr = _Allocate_at_least_helper(_Al, _Capacity);

  00044	48 8b 95 48 01
	00 00		 mov	 rdx, QWORD PTR _Capacity$[rbp]
  0004b	48 8b 8d 40 01
	00 00		 mov	 rcx, QWORD PTR _Al$[rbp]
  00052	e8 00 00 00 00	 call	 ??$_Allocate_at_least_helper@V?$allocator@D@std@@@std@@YAPEADAEAV?$allocator@D@0@AEA_K@Z ; std::_Allocate_at_least_helper<std::allocator<char> >
  00057	48 89 45 08	 mov	 QWORD PTR _Fancy_ptr$[rbp], rax

; 880  :         } else {
; 881  :             _STL_INTERNAL_STATIC_ASSERT(_Policy == _Allocation_policy::_Exactly);
; 882  :             _Fancy_ptr = _Al.allocate(_Capacity);
; 883  :         }
; 884  : 
; 885  : #if _HAS_CXX20
; 886  :         // Start element lifetimes to avoid UB. This is a more general mechanism than _String_val::_Activate_SSO_buffer,
; 887  :         // but likely more impactful to throughput.
; 888  :         if (_STD is_constant_evaluated()) {

  0005b	e8 00 00 00 00	 call	 ?is_constant_evaluated@std@@YA_NXZ ; std::is_constant_evaluated
  00060	0f b6 c0	 movzx	 eax, al
  00063	85 c0		 test	 eax, eax
  00065	74 4b		 je	 SHORT $LN5@Allocate_f

; 889  :             _Elem* const _Ptr = _Unfancy(_Fancy_ptr);

  00067	48 8b 4d 08	 mov	 rcx, QWORD PTR _Fancy_ptr$[rbp]
  0006b	e8 00 00 00 00	 call	 ??$_Unfancy@D@std@@YAPEADPEAD@Z ; std::_Unfancy<char>
  00070	48 89 45 28	 mov	 QWORD PTR _Ptr$1[rbp], rax

; 890  :             for (size_type _Idx = 0; _Idx < _Capacity; ++_Idx) {

  00074	48 c7 45 48 00
	00 00 00	 mov	 QWORD PTR _Idx$2[rbp], 0
  0007c	eb 0b		 jmp	 SHORT $LN4@Allocate_f
$LN2@Allocate_f:
  0007e	48 8b 45 48	 mov	 rax, QWORD PTR _Idx$2[rbp]
  00082	48 ff c0	 inc	 rax
  00085	48 89 45 48	 mov	 QWORD PTR _Idx$2[rbp], rax
$LN4@Allocate_f:
  00089	48 8b 85 48 01
	00 00		 mov	 rax, QWORD PTR _Capacity$[rbp]
  00090	48 8b 00	 mov	 rax, QWORD PTR [rax]
  00093	48 39 45 48	 cmp	 QWORD PTR _Idx$2[rbp], rax
  00097	73 19		 jae	 SHORT $LN3@Allocate_f

; 891  :                 _STD construct_at(_Ptr + _Idx);

  00099	48 8b 45 48	 mov	 rax, QWORD PTR _Idx$2[rbp]
  0009d	48 8b 4d 28	 mov	 rcx, QWORD PTR _Ptr$1[rbp]
  000a1	48 03 c8	 add	 rcx, rax
  000a4	48 8b c1	 mov	 rax, rcx
  000a7	48 8b c8	 mov	 rcx, rax
  000aa	e8 00 00 00 00	 call	 ??$construct_at@D$$V@std@@YAPEADQEAD@Z ; std::construct_at<char>
  000af	90		 npad	 1

; 892  :             }

  000b0	eb cc		 jmp	 SHORT $LN2@Allocate_f
$LN3@Allocate_f:
$LN5@Allocate_f:

; 893  :         }
; 894  : #endif // _HAS_CXX20
; 895  :         --_Capacity;

  000b2	48 8b 85 48 01
	00 00		 mov	 rax, QWORD PTR _Capacity$[rbp]
  000b9	48 8b 00	 mov	 rax, QWORD PTR [rax]
  000bc	48 ff c8	 dec	 rax
  000bf	48 8b 8d 48 01
	00 00		 mov	 rcx, QWORD PTR _Capacity$[rbp]
  000c6	48 89 01	 mov	 QWORD PTR [rcx], rax

; 896  :         return _Fancy_ptr;

  000c9	48 8b 45 08	 mov	 rax, QWORD PTR _Fancy_ptr$[rbp]

; 897  :     }

  000cd	48 8d a5 28 01
	00 00		 lea	 rsp, QWORD PTR [rbp+296]
  000d4	5f		 pop	 rdi
  000d5	5d		 pop	 rbp
  000d6	c3		 ret	 0
??$_Allocate_for_capacity@$0A@@?$basic_string@DU?$char_traits@D@std@@V?$allocator@D@2@@std@@CAPEADAEAV?$allocator@D@1@AEA_K@Z ENDP ; std::basic_string<char,std::char_traits<char>,std::allocator<char> >::_Allocate_for_capacity<0>
_TEXT	ENDS
; Function compile flags: /Odtp /RTCsu /ZI
; File C:\Program Files\Microsoft Visual Studio\18\Community\VC\Tools\MSVC\14.50.35717\include\xstring
;	COMDAT ??$_Traits_copy_batch@U?$char_traits@D@std@@D@std@@YAXQEADQEBD_K@Z
_TEXT	SEGMENT
_First1$ = 224
_First2$ = 232
_Count$ = 240
??$_Traits_copy_batch@U?$char_traits@D@std@@D@std@@YAXQEADQEBD_K@Z PROC ; std::_Traits_copy_batch<std::char_traits<char>,char>, COMDAT

; 532  :     _In_reads_(_Count) const _UElem* const _First2, const size_t _Count) noexcept {

$LN4:
  00000	4c 89 44 24 18	 mov	 QWORD PTR [rsp+24], r8
  00005	48 89 54 24 10	 mov	 QWORD PTR [rsp+16], rdx
  0000a	48 89 4c 24 08	 mov	 QWORD PTR [rsp+8], rcx
  0000f	55		 push	 rbp
  00010	57		 push	 rdi
  00011	48 81 ec e8 00
	00 00		 sub	 rsp, 232		; 000000e8H
  00018	48 8d 6c 24 20	 lea	 rbp, QWORD PTR [rsp+32]
  0001d	48 8d 0d 00 00
	00 00		 lea	 rcx, OFFSET FLAT:__C0C4C773_xstring
  00024	e8 00 00 00 00	 call	 __CheckForDebuggerJustMyCode
  00029	90		 npad	 1

; 533  :     _STL_INTERNAL_STATIC_ASSERT(_Is_any_of_v<_UElem, _Traits_ch_t<_Traits>, volatile _Traits_ch_t<_Traits>>);
; 534  : 
; 535  :     if constexpr (is_volatile_v<_UElem>) {
; 536  :         for (size_t _Idx = 0; _Idx != _Count; ++_Idx) {
; 537  :             _Traits::assign(_First1[_Idx], _Traits_ch_t<_Traits>{_First2[_Idx]});
; 538  :         }
; 539  :     } else {
; 540  :         (void) _Traits::copy(_First1, _First2, _Count);

  0002a	4c 8b 85 f0 00
	00 00		 mov	 r8, QWORD PTR _Count$[rbp]
  00031	48 8b 95 e8 00
	00 00		 mov	 rdx, QWORD PTR _First2$[rbp]
  00038	48 8b 8d e0 00
	00 00		 mov	 rcx, QWORD PTR _First1$[rbp]
  0003f	e8 00 00 00 00	 call	 ?copy@?$_Char_traits@DH@std@@SAPEADQEADQEBD_K@Z ; std::_Char_traits<char,int>::copy
  00044	90		 npad	 1

; 541  :     }
; 542  : }

  00045	48 8d a5 c8 00
	00 00		 lea	 rsp, QWORD PTR [rbp+200]
  0004c	5f		 pop	 rdi
  0004d	5d		 pop	 rbp
  0004e	c3		 ret	 0
??$_Traits_copy_batch@U?$char_traits@D@std@@D@std@@YAXQEADQEBD_K@Z ENDP ; std::_Traits_copy_batch<std::char_traits<char>,char>
_TEXT	ENDS
; Function compile flags: /Odtp /RTCsu /ZI
; File C:\Program Files\Microsoft Visual Studio\18\Community\VC\Tools\MSVC\14.50.35717\include\xmemory
;	COMDAT ??1?$_Container_proxy_ptr12@V?$allocator@U_Container_proxy@std@@@std@@@std@@QEAA@XZ
_TEXT	SEGMENT
this$ = 224
??1?$_Container_proxy_ptr12@V?$allocator@U_Container_proxy@std@@@std@@@std@@QEAA@XZ PROC ; std::_Container_proxy_ptr12<std::allocator<std::_Container_proxy> >::~_Container_proxy_ptr12<std::allocator<std::_Container_proxy> >, COMDAT

; 1507 :     _CONSTEXPR20 ~_Container_proxy_ptr12() {

$LN5:
  00000	48 89 4c 24 08	 mov	 QWORD PTR [rsp+8], rcx
  00005	55		 push	 rbp
  00006	57		 push	 rdi
  00007	48 81 ec e8 00
	00 00		 sub	 rsp, 232		; 000000e8H
  0000e	48 8d 6c 24 20	 lea	 rbp, QWORD PTR [rsp+32]
  00013	48 8d 0d 00 00
	00 00		 lea	 rcx, OFFSET FLAT:__B41741EF_xmemory
  0001a	e8 00 00 00 00	 call	 __CheckForDebuggerJustMyCode
  0001f	90		 npad	 1

; 1508 :         if (_Ptr) {

  00020	48 8b 85 e0 00
	00 00		 mov	 rax, QWORD PTR this$[rbp]
  00027	48 83 38 00	 cmp	 QWORD PTR [rax], 0
  0002b	74 1b		 je	 SHORT $LN2@Container_

; 1509 :             _Delete_plain_internal(_Al, _Ptr);

  0002d	48 8b 85 e0 00
	00 00		 mov	 rax, QWORD PTR this$[rbp]
  00034	48 8b 10	 mov	 rdx, QWORD PTR [rax]
  00037	48 8b 85 e0 00
	00 00		 mov	 rax, QWORD PTR this$[rbp]
  0003e	48 8b 48 08	 mov	 rcx, QWORD PTR [rax+8]
  00042	e8 00 00 00 00	 call	 ??$_Delete_plain_internal@V?$allocator@U_Container_proxy@std@@@std@@@std@@YAXAEAV?$allocator@U_Container_proxy@std@@@0@QEAU_Container_proxy@0@@Z ; std::_Delete_plain_internal<std::allocator<std::_Container_proxy> >
  00047	90		 npad	 1
$LN2@Container_:

; 1510 :         }
; 1511 :     }

  00048	48 8d a5 c8 00
	00 00		 lea	 rsp, QWORD PTR [rbp+200]
  0004f	5f		 pop	 rdi
  00050	5d		 pop	 rbp
  00051	c3		 ret	 0
??1?$_Container_proxy_ptr12@V?$allocator@U_Container_proxy@std@@@std@@@std@@QEAA@XZ ENDP ; std::_Container_proxy_ptr12<std::allocator<std::_Container_proxy> >::~_Container_proxy_ptr12<std::allocator<std::_Container_proxy> >
_TEXT	ENDS
; Function compile flags: /Odtp /RTCsu /ZI
; File C:\Program Files\Microsoft Visual Studio\18\Community\VC\Tools\MSVC\14.50.35717\include\xmemory
;	COMDAT ??0?$_Container_proxy_ptr12@V?$allocator@U_Container_proxy@std@@@std@@@std@@QEAA@AEAV?$allocator@U_Container_proxy@std@@@1@AEAU_Container_base12@1@@Z
_TEXT	SEGMENT
$T1 = 200
this$ = 256
_Al_$ = 264
_Mycont$ = 272
??0?$_Container_proxy_ptr12@V?$allocator@U_Container_proxy@std@@@std@@@std@@QEAA@AEAV?$allocator@U_Container_proxy@std@@@1@AEAU_Container_base12@1@@Z PROC ; std::_Container_proxy_ptr12<std::allocator<std::_Container_proxy> >::_Container_proxy_ptr12<std::allocator<std::_Container_proxy> >, COMDAT

; 1493 :     _CONSTEXPR20 _Container_proxy_ptr12(_Alloc& _Al_, _Container_base12& _Mycont) : _Al(_Al_) {

$LN3:
  00000	4c 89 44 24 18	 mov	 QWORD PTR [rsp+24], r8
  00005	48 89 54 24 10	 mov	 QWORD PTR [rsp+16], rdx
  0000a	48 89 4c 24 08	 mov	 QWORD PTR [rsp+8], rcx
  0000f	55		 push	 rbp
  00010	57		 push	 rdi
  00011	48 81 ec 08 01
	00 00		 sub	 rsp, 264		; 00000108H
  00018	48 8d 6c 24 20	 lea	 rbp, QWORD PTR [rsp+32]
  0001d	48 8d 0d 00 00
	00 00		 lea	 rcx, OFFSET FLAT:__B41741EF_xmemory
  00024	e8 00 00 00 00	 call	 __CheckForDebuggerJustMyCode
  00029	90		 npad	 1
  0002a	48 8b 8d 00 01
	00 00		 mov	 rcx, QWORD PTR this$[rbp]
  00031	e8 00 00 00 00	 call	 ??0_Basic_container_proxy_ptr12@std@@IEAA@XZ ; std::_Basic_container_proxy_ptr12::_Basic_container_proxy_ptr12
  00036	90		 npad	 1
  00037	48 8b 85 00 01
	00 00		 mov	 rax, QWORD PTR this$[rbp]
  0003e	48 8b 8d 08 01
	00 00		 mov	 rcx, QWORD PTR _Al_$[rbp]
  00045	48 89 48 08	 mov	 QWORD PTR [rax+8], rcx

; 1494 :         // create a new _Container_proxy pointing at _Mycont
; 1495 :         _Ptr = _Unfancy(_Al_.allocate(1));

  00049	ba 01 00 00 00	 mov	 edx, 1
  0004e	48 8b 8d 08 01
	00 00		 mov	 rcx, QWORD PTR _Al_$[rbp]
  00055	e8 00 00 00 00	 call	 ?allocate@?$allocator@U_Container_proxy@std@@@std@@QEAAPEAU_Container_proxy@2@_K@Z ; std::allocator<std::_Container_proxy>::allocate
  0005a	48 8b c8	 mov	 rcx, rax
  0005d	e8 00 00 00 00	 call	 ??$_Unfancy@U_Container_proxy@std@@@std@@YAPEAU_Container_proxy@0@PEAU10@@Z ; std::_Unfancy<std::_Container_proxy>
  00062	48 8b 8d 00 01
	00 00		 mov	 rcx, QWORD PTR this$[rbp]
  00069	48 89 01	 mov	 QWORD PTR [rcx], rax

; 1496 :         _Construct_in_place(*_Ptr, _STD addressof(_Mycont));

  0006c	48 8b 8d 10 01
	00 00		 mov	 rcx, QWORD PTR _Mycont$[rbp]
  00073	e8 00 00 00 00	 call	 ??$addressof@U_Container_base12@std@@@std@@YAPEAU_Container_base12@0@AEAU10@@Z ; std::addressof<std::_Container_base12>
  00078	48 89 85 c8 00
	00 00		 mov	 QWORD PTR $T1[rbp], rax
  0007f	48 8d 95 c8 00
	00 00		 lea	 rdx, QWORD PTR $T1[rbp]
  00086	48 8b 85 00 01
	00 00		 mov	 rax, QWORD PTR this$[rbp]
  0008d	48 8b 08	 mov	 rcx, QWORD PTR [rax]
  00090	e8 00 00 00 00	 call	 ??$_Construct_in_place@U_Container_proxy@std@@PEAU_Container_base12@2@@std@@YAXAEAU_Container_proxy@0@$$QEAPEAU_Container_base12@0@@Z ; std::_Construct_in_place<std::_Container_proxy,std::_Container_base12 *>
  00095	90		 npad	 1

; 1497 :         _Mycont._Myproxy = _Ptr;

  00096	48 8b 85 10 01
	00 00		 mov	 rax, QWORD PTR _Mycont$[rbp]
  0009d	48 8b 8d 00 01
	00 00		 mov	 rcx, QWORD PTR this$[rbp]
  000a4	48 8b 09	 mov	 rcx, QWORD PTR [rcx]
  000a7	48 89 08	 mov	 QWORD PTR [rax], rcx

; 1498 :     }

  000aa	48 8b 85 00 01
	00 00		 mov	 rax, QWORD PTR this$[rbp]
  000b1	48 8d a5 e8 00
	00 00		 lea	 rsp, QWORD PTR [rbp+232]
  000b8	5f		 pop	 rdi
  000b9	5d		 pop	 rbp
  000ba	c3		 ret	 0
??0?$_Container_proxy_ptr12@V?$allocator@U_Container_proxy@std@@@std@@@std@@QEAA@AEAV?$allocator@U_Container_proxy@std@@@1@AEAU_Container_base12@1@@Z ENDP ; std::_Container_proxy_ptr12<std::allocator<std::_Container_proxy> >::_Container_proxy_ptr12<std::allocator<std::_Container_proxy> >
_TEXT	ENDS
; Function compile flags: /Odtp /RTCsu /ZI
; File C:\Program Files\Microsoft Visual Studio\18\Community\VC\Tools\MSVC\14.50.35717\include\xmemory
;	COMDAT ??$_Unfancy@D@std@@YAPEADPEAD@Z
_TEXT	SEGMENT
_Ptr$ = 224
??$_Unfancy@D@std@@YAPEADPEAD@Z PROC			; std::_Unfancy<char>, COMDAT

; 72   : _NODISCARD constexpr _Ty* _Unfancy(_Ty* _Ptr) noexcept { // do nothing for plain pointers

$LN4:
  00000	48 89 4c 24 08	 mov	 QWORD PTR [rsp+8], rcx
  00005	55		 push	 rbp
  00006	57		 push	 rdi
  00007	48 81 ec e8 00
	00 00		 sub	 rsp, 232		; 000000e8H
  0000e	48 8d 6c 24 20	 lea	 rbp, QWORD PTR [rsp+32]
  00013	48 8d 0d 00 00
	00 00		 lea	 rcx, OFFSET FLAT:__B41741EF_xmemory
  0001a	e8 00 00 00 00	 call	 __CheckForDebuggerJustMyCode
  0001f	90		 npad	 1

; 73   :     return _Ptr;

  00020	48 8b 85 e0 00
	00 00		 mov	 rax, QWORD PTR _Ptr$[rbp]

; 74   : }

  00027	48 8d a5 c8 00
	00 00		 lea	 rsp, QWORD PTR [rbp+200]
  0002e	5f		 pop	 rdi
  0002f	5d		 pop	 rbp
  00030	c3		 ret	 0
??$_Unfancy@D@std@@YAPEADPEAD@Z ENDP			; std::_Unfancy<char>
_TEXT	ENDS
; Function compile flags: /Odtp /RTCsu /ZI
; File C:\Program Files\Microsoft Visual Studio\18\Community\VC\Tools\MSVC\14.50.35717\include\xmemory
;	COMDAT ??$_Allocate_at_least_helper@V?$allocator@D@std@@@std@@YAPEADAEAV?$allocator@D@0@AEA_K@Z
_TEXT	SEGMENT
_Al$ = 224
_Count$ = 232
??$_Allocate_at_least_helper@V?$allocator@D@std@@@std@@YAPEADAEAV?$allocator@D@0@AEA_K@Z PROC ; std::_Allocate_at_least_helper<std::allocator<char> >, COMDAT

; 2314 :     _Alloc& _Al, _CRT_GUARDOVERFLOW typename allocator_traits<_Alloc>::size_type& _Count) {

$LN3:
  00000	48 89 54 24 10	 mov	 QWORD PTR [rsp+16], rdx
  00005	48 89 4c 24 08	 mov	 QWORD PTR [rsp+8], rcx
  0000a	55		 push	 rbp
  0000b	57		 push	 rdi
  0000c	48 81 ec e8 00
	00 00		 sub	 rsp, 232		; 000000e8H
  00013	48 8d 6c 24 20	 lea	 rbp, QWORD PTR [rsp+32]
  00018	48 8d 0d 00 00
	00 00		 lea	 rcx, OFFSET FLAT:__B41741EF_xmemory
  0001f	e8 00 00 00 00	 call	 __CheckForDebuggerJustMyCode
  00024	90		 npad	 1

; 2315 : #if _HAS_CXX23
; 2316 :     if constexpr (_Should_allocate_at_least<_Alloc>) {
; 2317 :         auto [_Ptr, _Allocated] = _Al.allocate_at_least(_Count);
; 2318 :         _Count                  = _Allocated;
; 2319 :         return _Ptr;
; 2320 :     } else
; 2321 : #endif // _HAS_CXX23
; 2322 :     {
; 2323 :         return _Al.allocate(_Count);

  00025	48 8b 85 e8 00
	00 00		 mov	 rax, QWORD PTR _Count$[rbp]
  0002c	48 8b 10	 mov	 rdx, QWORD PTR [rax]
  0002f	48 8b 8d e0 00
	00 00		 mov	 rcx, QWORD PTR _Al$[rbp]
  00036	e8 00 00 00 00	 call	 ?allocate@?$allocator@D@std@@QEAAPEAD_K@Z ; std::allocator<char>::allocate

; 2324 :     }
; 2325 : }

  0003b	48 8d a5 c8 00
	00 00		 lea	 rsp, QWORD PTR [rbp+200]
  00042	5f		 pop	 rdi
  00043	5d		 pop	 rbp
  00044	c3		 ret	 0
??$_Allocate_at_least_helper@V?$allocator@D@std@@@std@@YAPEADAEAV?$allocator@D@0@AEA_K@Z ENDP ; std::_Allocate_at_least_helper<std::allocator<char> >
_TEXT	ENDS
; Function compile flags: /Odtp /RTCsu /ZI
; File C:\Program Files\Microsoft Visual Studio\18\Community\VC\Tools\MSVC\14.50.35717\include\xmemory
;	COMDAT ??$?0$$V@?$_Compressed_pair@V?$allocator@D@std@@V?$_String_val@U?$_Simple_types@D@std@@@2@$00@std@@QEAA@U_Zero_then_variadic_args_t@1@@Z
_TEXT	SEGMENT
this$ = 224
__formal$ = 232
??$?0$$V@?$_Compressed_pair@V?$allocator@D@std@@V?$_String_val@U?$_Simple_types@D@std@@@2@$00@std@@QEAA@U_Zero_then_variadic_args_t@1@@Z PROC ; std::_Compressed_pair<std::allocator<char>,std::_String_val<std::_Simple_types<char> >,1>::_Compressed_pair<std::allocator<char>,std::_String_val<std::_Simple_types<char> >,1><>, COMDAT

; 1551 :         : _Ty1(), _Myval2(_STD forward<_Other2>(_Val2)...) {}

$LN4:
  00000	88 54 24 10	 mov	 BYTE PTR [rsp+16], dl
  00004	48 89 4c 24 08	 mov	 QWORD PTR [rsp+8], rcx
  00009	55		 push	 rbp
  0000a	57		 push	 rdi
  0000b	48 81 ec e8 00
	00 00		 sub	 rsp, 232		; 000000e8H
  00012	48 8d 6c 24 20	 lea	 rbp, QWORD PTR [rsp+32]
  00017	48 8d 0d 00 00
	00 00		 lea	 rcx, OFFSET FLAT:__B41741EF_xmemory
  0001e	e8 00 00 00 00	 call	 __CheckForDebuggerJustMyCode
  00023	90		 npad	 1
  00024	48 8b 8d e0 00
	00 00		 mov	 rcx, QWORD PTR this$[rbp]
  0002b	e8 00 00 00 00	 call	 ??0?$allocator@D@std@@QEAA@XZ ; std::allocator<char>::allocator<char>
  00030	90		 npad	 1
  00031	48 8b 85 e0 00
	00 00		 mov	 rax, QWORD PTR this$[rbp]
  00038	48 8b c8	 mov	 rcx, rax
  0003b	e8 00 00 00 00	 call	 ??0?$_String_val@U?$_Simple_types@D@std@@@std@@QEAA@XZ ; std::_String_val<std::_Simple_types<char> >::_String_val<std::_Simple_types<char> >
  00040	90		 npad	 1
  00041	48 8b 85 e0 00
	00 00		 mov	 rax, QWORD PTR this$[rbp]
  00048	48 8d a5 c8 00
	00 00		 lea	 rsp, QWORD PTR [rbp+200]
  0004f	5f		 pop	 rdi
  00050	5d		 pop	 rbp
  00051	c3		 ret	 0
??$?0$$V@?$_Compressed_pair@V?$allocator@D@std@@V?$_String_val@U?$_Simple_types@D@std@@@2@$00@std@@QEAA@U_Zero_then_variadic_args_t@1@@Z ENDP ; std::_Compressed_pair<std::allocator<char>,std::_String_val<std::_Simple_types<char> >,1>::_Compressed_pair<std::allocator<char>,std::_String_val<std::_Simple_types<char> >,1><>
_TEXT	ENDS
; Function compile flags: /Odtp /RTCsu /ZI
; File C:\Program Files\Microsoft Visual Studio\18\Community\VC\Tools\MSVC\14.50.35717\include\xmemory
;	COMDAT ??$?0V?$allocator@D@std@@$$V@?$_Compressed_pair@V?$allocator@D@std@@V?$_String_val@U?$_Simple_types@D@std@@@2@$00@std@@QEAA@U_One_then_variadic_args_t@1@$$QEAV?$allocator@D@1@@Z
_TEXT	SEGMENT
this$ = 224
__formal$ = 232
_Val1$ = 240
??$?0V?$allocator@D@std@@$$V@?$_Compressed_pair@V?$allocator@D@std@@V?$_String_val@U?$_Simple_types@D@std@@@2@$00@std@@QEAA@U_One_then_variadic_args_t@1@$$QEAV?$allocator@D@1@@Z PROC ; std::_Compressed_pair<std::allocator<char>,std::_String_val<std::_Simple_types<char> >,1>::_Compressed_pair<std::allocator<char>,std::_String_val<std::_Simple_types<char> >,1><std::allocator<char> >, COMDAT

; 1556 :         : _Ty1(_STD forward<_Other1>(_Val1)), _Myval2(_STD forward<_Other2>(_Val2)...) {}

$LN4:
  00000	4c 89 44 24 18	 mov	 QWORD PTR [rsp+24], r8
  00005	88 54 24 10	 mov	 BYTE PTR [rsp+16], dl
  00009	48 89 4c 24 08	 mov	 QWORD PTR [rsp+8], rcx
  0000e	55		 push	 rbp
  0000f	57		 push	 rdi
  00010	48 81 ec e8 00
	00 00		 sub	 rsp, 232		; 000000e8H
  00017	48 8d 6c 24 20	 lea	 rbp, QWORD PTR [rsp+32]
  0001c	48 8d 0d 00 00
	00 00		 lea	 rcx, OFFSET FLAT:__B41741EF_xmemory
  00023	e8 00 00 00 00	 call	 __CheckForDebuggerJustMyCode
  00028	90		 npad	 1
  00029	48 8b 85 e0 00
	00 00		 mov	 rax, QWORD PTR this$[rbp]
  00030	48 8b c8	 mov	 rcx, rax
  00033	e8 00 00 00 00	 call	 ??0?$_String_val@U?$_Simple_types@D@std@@@std@@QEAA@XZ ; std::_String_val<std::_Simple_types<char> >::_String_val<std::_Simple_types<char> >
  00038	90		 npad	 1
  00039	48 8b 85 e0 00
	00 00		 mov	 rax, QWORD PTR this$[rbp]
  00040	48 8d a5 c8 00
	00 00		 lea	 rsp, QWORD PTR [rbp+200]
  00047	5f		 pop	 rdi
  00048	5d		 pop	 rbp
  00049	c3		 ret	 0
??$?0V?$allocator@D@std@@$$V@?$_Compressed_pair@V?$allocator@D@std@@V?$_String_val@U?$_Simple_types@D@std@@@2@$00@std@@QEAA@U_One_then_variadic_args_t@1@$$QEAV?$allocator@D@1@@Z ENDP ; std::_Compressed_pair<std::allocator<char>,std::_String_val<std::_Simple_types<char> >,1>::_Compressed_pair<std::allocator<char>,std::_String_val<std::_Simple_types<char> >,1><std::allocator<char> >
_TEXT	ENDS
; Function compile flags: /Odtp /RTCsu /ZI
; File C:\Program Files\Microsoft Visual Studio\18\Community\VC\Tools\MSVC\14.50.35717\include\xmemory
;	COMDAT ??$?0D@?$allocator@U_Container_proxy@std@@@std@@QEAA@AEBV?$allocator@D@1@@Z
_TEXT	SEGMENT
this$ = 224
__formal$ = 232
??$?0D@?$allocator@U_Container_proxy@std@@@std@@QEAA@AEBV?$allocator@D@1@@Z PROC ; std::allocator<std::_Container_proxy>::allocator<std::_Container_proxy><char>, COMDAT

; 982  :     constexpr allocator(const allocator<_Other>&) noexcept {}

$LN4:
  00000	48 89 54 24 10	 mov	 QWORD PTR [rsp+16], rdx
  00005	48 89 4c 24 08	 mov	 QWORD PTR [rsp+8], rcx
  0000a	55		 push	 rbp
  0000b	57		 push	 rdi
  0000c	48 81 ec e8 00
	00 00		 sub	 rsp, 232		; 000000e8H
  00013	48 8d 6c 24 20	 lea	 rbp, QWORD PTR [rsp+32]
  00018	48 8d 0d 00 00
	00 00		 lea	 rcx, OFFSET FLAT:__B41741EF_xmemory
  0001f	e8 00 00 00 00	 call	 __CheckForDebuggerJustMyCode
  00024	90		 npad	 1
  00025	48 8b 85 e0 00
	00 00		 mov	 rax, QWORD PTR this$[rbp]
  0002c	48 8d a5 c8 00
	00 00		 lea	 rsp, QWORD PTR [rbp+200]
  00033	5f		 pop	 rdi
  00034	5d		 pop	 rbp
  00035	c3		 ret	 0
??$?0D@?$allocator@U_Container_proxy@std@@@std@@QEAA@AEBV?$allocator@D@1@@Z ENDP ; std::allocator<std::_Container_proxy>::allocator<std::_Container_proxy><char>
_TEXT	ENDS
; Function compile flags: /Odtp /RTCsu /ZI
; File C:\Program Files\Microsoft Visual Studio\18\Community\VC\Tools\MSVC\14.50.35717\include\xmemory
;	COMDAT ??$_Get_proxy_allocator@V?$allocator@D@std@@@std@@YA?AV?$allocator@U_Container_proxy@std@@@0@AEBV?$allocator@D@0@@Z
_TEXT	SEGMENT
__$ReturnUdt$ = 224
_Al$ = 232
??$_Get_proxy_allocator@V?$allocator@D@std@@@std@@YA?AV?$allocator@U_Container_proxy@std@@@0@AEBV?$allocator@D@0@@Z PROC ; std::_Get_proxy_allocator<std::allocator<char> >, COMDAT

; 1525 :     noexcept(noexcept(static_cast<_Rebind_alloc_t<_Alloc, _Container_proxy>>(_Al))) {

$LN4:
  00000	48 89 54 24 10	 mov	 QWORD PTR [rsp+16], rdx
  00005	48 89 4c 24 08	 mov	 QWORD PTR [rsp+8], rcx
  0000a	55		 push	 rbp
  0000b	57		 push	 rdi
  0000c	48 81 ec e8 00
	00 00		 sub	 rsp, 232		; 000000e8H
  00013	48 8d 6c 24 20	 lea	 rbp, QWORD PTR [rsp+32]
  00018	48 8d 0d 00 00
	00 00		 lea	 rcx, OFFSET FLAT:__B41741EF_xmemory
  0001f	e8 00 00 00 00	 call	 __CheckForDebuggerJustMyCode
  00024	90		 npad	 1

; 1526 :     return static_cast<_Rebind_alloc_t<_Alloc, _Container_proxy>>(_Al);

  00025	48 8b 95 e8 00
	00 00		 mov	 rdx, QWORD PTR _Al$[rbp]
  0002c	48 8b 8d e0 00
	00 00		 mov	 rcx, QWORD PTR __$ReturnUdt$[rbp]
  00033	e8 00 00 00 00	 call	 ??$?0D@?$allocator@U_Container_proxy@std@@@std@@QEAA@AEBV?$allocator@D@1@@Z ; std::allocator<std::_Container_proxy>::allocator<std::_Container_proxy><char>
  00038	90		 npad	 1
  00039	48 8b 85 e0 00
	00 00		 mov	 rax, QWORD PTR __$ReturnUdt$[rbp]

; 1527 : }

  00040	48 8d a5 c8 00
	00 00		 lea	 rsp, QWORD PTR [rbp+200]
  00047	5f		 pop	 rdi
  00048	5d		 pop	 rbp
  00049	c3		 ret	 0
??$_Get_proxy_allocator@V?$allocator@D@std@@@std@@YA?AV?$allocator@U_Container_proxy@std@@@0@AEBV?$allocator@D@0@@Z ENDP ; std::_Get_proxy_allocator<std::allocator<char> >
_TEXT	ENDS
; Function compile flags: /Odtp /RTCsu /ZI
; File C:\Program Files\Microsoft Visual Studio\18\Community\VC\Tools\MSVC\14.50.35717\include\xstring
;	COMDAT ??$_Append@D@?$basic_string@DU?$char_traits@D@std@@V?$allocator@D@2@@std@@AEAAAEAV01@QEBD_K@Z
_TEXT	SEGMENT
_Old_size$ = 8
_Old_ptr$1 = 40
$T2 = 260
$T3 = 292
this$ = 352
_Ptr$ = 360
_Count$ = 368
??$_Append@D@?$basic_string@DU?$char_traits@D@std@@V?$allocator@D@2@@std@@AEAAAEAV01@QEBD_K@Z PROC ; std::basic_string<char,std::char_traits<char>,std::allocator<char> >::_Append<char>, COMDAT

; 2989 :         _In_reads_(_Count) const _UElem* const _Ptr, _CRT_GUARDOVERFLOW const size_type _Count) {

$LN4:
  00000	4c 89 44 24 18	 mov	 QWORD PTR [rsp+24], r8
  00005	48 89 54 24 10	 mov	 QWORD PTR [rsp+16], rdx
  0000a	48 89 4c 24 08	 mov	 QWORD PTR [rsp+8], rcx
  0000f	55		 push	 rbp
  00010	57		 push	 rdi
  00011	48 81 ec 78 01
	00 00		 sub	 rsp, 376		; 00000178H
  00018	48 8d 6c 24 30	 lea	 rbp, QWORD PTR [rsp+48]
  0001d	48 8d 0d 00 00
	00 00		 lea	 rcx, OFFSET FLAT:__C0C4C773_xstring
  00024	e8 00 00 00 00	 call	 __CheckForDebuggerJustMyCode
  00029	90		 npad	 1

; 2990 :         // append [_Ptr, _Ptr + _Count), handling volatile-qualified _Elem
; 2991 :         _STL_INTERNAL_STATIC_ASSERT(_Is_any_of_v<_UElem, _Elem, volatile _Elem>);
; 2992 : 
; 2993 :         const size_type _Old_size = _Mypair._Myval2._Mysize;

  0002a	48 8b 85 60 01
	00 00		 mov	 rax, QWORD PTR this$[rbp]
  00031	48 8b 40 18	 mov	 rax, QWORD PTR [rax+24]
  00035	48 89 45 08	 mov	 QWORD PTR _Old_size$[rbp], rax

; 2994 :         if (_Count <= _Mypair._Myval2._Myres - _Old_size) {

  00039	48 8b 85 60 01
	00 00		 mov	 rax, QWORD PTR this$[rbp]
  00040	48 8b 4d 08	 mov	 rcx, QWORD PTR _Old_size$[rbp]
  00044	48 8b 40 20	 mov	 rax, QWORD PTR [rax+32]
  00048	48 2b c1	 sub	 rax, rcx
  0004b	48 39 85 70 01
	00 00		 cmp	 QWORD PTR _Count$[rbp], rax
  00052	0f 87 8f 00 00
	00		 ja	 $LN2@Append

; 2995 :             _ASAN_STRING_MODIFY(*this, _Old_size, _Old_size + _Count);
; 2996 :             _Mypair._Myval2._Mysize = _Old_size + _Count;

  00058	48 8b 85 70 01
	00 00		 mov	 rax, QWORD PTR _Count$[rbp]
  0005f	48 8b 4d 08	 mov	 rcx, QWORD PTR _Old_size$[rbp]
  00063	48 03 c8	 add	 rcx, rax
  00066	48 8b c1	 mov	 rax, rcx
  00069	48 8b 8d 60 01
	00 00		 mov	 rcx, QWORD PTR this$[rbp]
  00070	48 89 41 18	 mov	 QWORD PTR [rcx+24], rax

; 2997 :             _Elem* const _Old_ptr   = _Mypair._Myval2._Myptr();

  00074	48 8b 85 60 01
	00 00		 mov	 rax, QWORD PTR this$[rbp]
  0007b	48 8b c8	 mov	 rcx, rax
  0007e	e8 00 00 00 00	 call	 ?_Myptr@?$_String_val@U?$_Simple_types@D@std@@@std@@QEAAPEADXZ ; std::_String_val<std::_Simple_types<char> >::_Myptr
  00083	48 89 45 28	 mov	 QWORD PTR _Old_ptr$1[rbp], rax

; 2998 :             _STD _Traits_move_batch<_Traits>(_Old_ptr + _Old_size, _Ptr, _Count);

  00087	48 8b 45 08	 mov	 rax, QWORD PTR _Old_size$[rbp]
  0008b	48 8b 4d 28	 mov	 rcx, QWORD PTR _Old_ptr$1[rbp]
  0008f	48 03 c8	 add	 rcx, rax
  00092	48 8b c1	 mov	 rax, rcx
  00095	4c 8b 85 70 01
	00 00		 mov	 r8, QWORD PTR _Count$[rbp]
  0009c	48 8b 95 68 01
	00 00		 mov	 rdx, QWORD PTR _Ptr$[rbp]
  000a3	48 8b c8	 mov	 rcx, rax
  000a6	e8 00 00 00 00	 call	 ??$_Traits_move_batch@U?$char_traits@D@std@@D@std@@YAXQEADQEBD_K@Z ; std::_Traits_move_batch<std::char_traits<char>,char>
  000ab	90		 npad	 1

; 2999 :             _Traits::assign(_Old_ptr[_Old_size + _Count], _Elem());

  000ac	c6 85 04 01 00
	00 00		 mov	 BYTE PTR $T2[rbp], 0
  000b3	48 8b 85 70 01
	00 00		 mov	 rax, QWORD PTR _Count$[rbp]
  000ba	48 8b 4d 08	 mov	 rcx, QWORD PTR _Old_size$[rbp]
  000be	48 03 c8	 add	 rcx, rax
  000c1	48 8b c1	 mov	 rax, rcx
  000c4	48 8b 4d 28	 mov	 rcx, QWORD PTR _Old_ptr$1[rbp]
  000c8	48 03 c8	 add	 rcx, rax
  000cb	48 8b c1	 mov	 rax, rcx
  000ce	48 8d 95 04 01
	00 00		 lea	 rdx, QWORD PTR $T2[rbp]
  000d5	48 8b c8	 mov	 rcx, rax
  000d8	e8 00 00 00 00	 call	 ?assign@?$_Narrow_char_traits@DH@std@@SAXAEADAEBD@Z ; std::_Narrow_char_traits<char,int>::assign
  000dd	90		 npad	 1

; 3000 :             return *this;

  000de	48 8b 85 60 01
	00 00		 mov	 rax, QWORD PTR this$[rbp]
  000e5	eb 2e		 jmp	 SHORT $LN1@Append
$LN2@Append:

; 3001 :         }
; 3002 : 
; 3003 :         return _Reallocate_grow_by(

  000e7	48 8b 85 70 01
	00 00		 mov	 rax, QWORD PTR _Count$[rbp]
  000ee	48 89 44 24 20	 mov	 QWORD PTR [rsp+32], rax
  000f3	4c 8b 8d 68 01
	00 00		 mov	 r9, QWORD PTR _Ptr$[rbp]
  000fa	44 0f b6 85 24
	01 00 00	 movzx	 r8d, BYTE PTR $T3[rbp]
  00102	48 8b 95 70 01
	00 00		 mov	 rdx, QWORD PTR _Count$[rbp]
  00109	48 8b 8d 60 01
	00 00		 mov	 rcx, QWORD PTR this$[rbp]
  00110	e8 00 00 00 00	 call	 ??$_Reallocate_grow_by@V<lambda_1>@?1???$_Append@D@?$basic_string@DU?$char_traits@D@std@@V?$allocator@D@2@@std@@AEAAAEAV23@QEBD_K@Z@PEBD_K@?$basic_string@DU?$char_traits@D@std@@V?$allocator@D@2@@std@@AEAAAEAV01@_KV<lambda_1>@?1???$_Append@D@01@AEAAAEAV01@QEBD0@Z@PEBD_K@Z ; std::basic_string<char,std::char_traits<char>,std::allocator<char> >::_Reallocate_grow_by<`std::basic_string<char,std::char_traits<char>,std::allocator<char> >::_Append<char>'::`2'::<lambda_1>,char const *,unsigned __int64>
$LN1@Append:

; 3004 :             _Count,
; 3005 :             [](_Elem* const _New_ptr, const _Elem* const _Old_ptr, const size_type _Old_size, const _UElem* const _Ptr,
; 3006 :                 const size_type _Count) _STATIC_LAMBDA {
; 3007 :                 _Traits::copy(_New_ptr, _Old_ptr, _Old_size);
; 3008 :                 _STD _Traits_copy_batch<_Traits>(_New_ptr + _Old_size, _Ptr, _Count);
; 3009 :                 _Traits::assign(_New_ptr[_Old_size + _Count], _Elem());
; 3010 :             },
; 3011 :             _Ptr, _Count);
; 3012 :     }

  00115	48 8d a5 48 01
	00 00		 lea	 rsp, QWORD PTR [rbp+328]
  0011c	5f		 pop	 rdi
  0011d	5d		 pop	 rbp
  0011e	c3		 ret	 0
??$_Append@D@?$basic_string@DU?$char_traits@D@std@@V?$allocator@D@2@@std@@AEAAAEAV01@QEBD_K@Z ENDP ; std::basic_string<char,std::char_traits<char>,std::allocator<char> >::_Append<char>
_TEXT	ENDS
; Function compile flags: /Odtp /RTCsu /ZI
; File C:\Program Files\Microsoft Visual Studio\18\Community\VC\Tools\MSVC\14.50.35717\include\xmemory
;	COMDAT ??$_Alloc_proxy@V?$allocator@U_Container_proxy@std@@@std@@@_Container_base12@std@@QEAAX$$QEAV?$allocator@U_Container_proxy@std@@@1@@Z
_TEXT	SEGMENT
_New_proxy$ = 8
$T1 = 232
this$ = 288
_Al$ = 296
??$_Alloc_proxy@V?$allocator@U_Container_proxy@std@@@std@@@_Container_base12@std@@QEAAX$$QEAV?$allocator@U_Container_proxy@std@@@1@@Z PROC ; std::_Container_base12::_Alloc_proxy<std::allocator<std::_Container_proxy> >, COMDAT

; 1231 :     _CONSTEXPR20 void _Alloc_proxy(_Alloc&& _Al) {

$LN3:
  00000	48 89 54 24 10	 mov	 QWORD PTR [rsp+16], rdx
  00005	48 89 4c 24 08	 mov	 QWORD PTR [rsp+8], rcx
  0000a	55		 push	 rbp
  0000b	57		 push	 rdi
  0000c	48 81 ec 28 01
	00 00		 sub	 rsp, 296		; 00000128H
  00013	48 8d 6c 24 20	 lea	 rbp, QWORD PTR [rsp+32]
  00018	48 8d 0d 00 00
	00 00		 lea	 rcx, OFFSET FLAT:__B41741EF_xmemory
  0001f	e8 00 00 00 00	 call	 __CheckForDebuggerJustMyCode
  00024	90		 npad	 1

; 1232 :         _Container_proxy* const _New_proxy = _Unfancy(_Al.allocate(1));

  00025	ba 01 00 00 00	 mov	 edx, 1
  0002a	48 8b 8d 28 01
	00 00		 mov	 rcx, QWORD PTR _Al$[rbp]
  00031	e8 00 00 00 00	 call	 ?allocate@?$allocator@U_Container_proxy@std@@@std@@QEAAPEAU_Container_proxy@2@_K@Z ; std::allocator<std::_Container_proxy>::allocate
  00036	48 8b c8	 mov	 rcx, rax
  00039	e8 00 00 00 00	 call	 ??$_Unfancy@U_Container_proxy@std@@@std@@YAPEAU_Container_proxy@0@PEAU10@@Z ; std::_Unfancy<std::_Container_proxy>
  0003e	48 89 45 08	 mov	 QWORD PTR _New_proxy$[rbp], rax

; 1233 :         _Construct_in_place(*_New_proxy, this);

  00042	48 8b 85 20 01
	00 00		 mov	 rax, QWORD PTR this$[rbp]
  00049	48 89 85 e8 00
	00 00		 mov	 QWORD PTR $T1[rbp], rax
  00050	48 8d 95 e8 00
	00 00		 lea	 rdx, QWORD PTR $T1[rbp]
  00057	48 8b 4d 08	 mov	 rcx, QWORD PTR _New_proxy$[rbp]
  0005b	e8 00 00 00 00	 call	 ??$_Construct_in_place@U_Container_proxy@std@@PEAU_Container_base12@2@@std@@YAXAEAU_Container_proxy@0@$$QEAPEAU_Container_base12@0@@Z ; std::_Construct_in_place<std::_Container_proxy,std::_Container_base12 *>
  00060	90		 npad	 1

; 1234 :         _Myproxy            = _New_proxy;

  00061	48 8b 85 20 01
	00 00		 mov	 rax, QWORD PTR this$[rbp]
  00068	48 8b 4d 08	 mov	 rcx, QWORD PTR _New_proxy$[rbp]
  0006c	48 89 08	 mov	 QWORD PTR [rax], rcx

; 1235 :         _New_proxy->_Mycont = this;

  0006f	48 8b 45 08	 mov	 rax, QWORD PTR _New_proxy$[rbp]
  00073	48 8b 8d 20 01
	00 00		 mov	 rcx, QWORD PTR this$[rbp]
  0007a	48 89 08	 mov	 QWORD PTR [rax], rcx

; 1236 :     }

  0007d	48 8d a5 08 01
	00 00		 lea	 rsp, QWORD PTR [rbp+264]
  00084	5f		 pop	 rdi
  00085	5d		 pop	 rbp
  00086	c3		 ret	 0
??$_Alloc_proxy@V?$allocator@U_Container_proxy@std@@@std@@@_Container_base12@std@@QEAAX$$QEAV?$allocator@U_Container_proxy@std@@@1@@Z ENDP ; std::_Container_base12::_Alloc_proxy<std::allocator<std::_Container_proxy> >
_TEXT	ENDS
; Function compile flags: /Odtp /RTCsu /ZI
; File C:\Program Files\Microsoft Visual Studio\18\Community\VC\Tools\MSVC\14.50.35717\include\xmemory
;	COMDAT ??$_Delete_plain_internal@V?$allocator@U_Container_proxy@std@@@std@@@std@@YAXAEAV?$allocator@U_Container_proxy@std@@@0@QEAU_Container_proxy@0@@Z
_TEXT	SEGMENT
_Al$ = 224
_Ptr$ = 232
??$_Delete_plain_internal@V?$allocator@U_Container_proxy@std@@@std@@@std@@YAXAEAV?$allocator@U_Container_proxy@std@@@0@QEAU_Container_proxy@0@@Z PROC ; std::_Delete_plain_internal<std::allocator<std::_Container_proxy> >, COMDAT

; 1159 : _CONSTEXPR20 void _Delete_plain_internal(_Alloc& _Al, typename _Alloc::value_type* const _Ptr) noexcept {

$LN4:
  00000	48 89 54 24 10	 mov	 QWORD PTR [rsp+16], rdx
  00005	48 89 4c 24 08	 mov	 QWORD PTR [rsp+8], rcx
  0000a	55		 push	 rbp
  0000b	57		 push	 rdi
  0000c	48 81 ec e8 00
	00 00		 sub	 rsp, 232		; 000000e8H
  00013	48 8d 6c 24 20	 lea	 rbp, QWORD PTR [rsp+32]
  00018	48 8d 0d 00 00
	00 00		 lea	 rcx, OFFSET FLAT:__B41741EF_xmemory
  0001f	e8 00 00 00 00	 call	 __CheckForDebuggerJustMyCode
  00024	90		 npad	 1

; 1160 :     // destroy *_Ptr in place, then deallocate _Ptr using _Al; used for internal container types the user didn't name
; 1161 :     using _Ty = typename _Alloc::value_type;
; 1162 :     _Ptr->~_Ty();
; 1163 :     _STD _Deallocate_plain(_Al, _Ptr);

  00025	48 8b 95 e8 00
	00 00		 mov	 rdx, QWORD PTR _Ptr$[rbp]
  0002c	48 8b 8d e0 00
	00 00		 mov	 rcx, QWORD PTR _Al$[rbp]
  00033	e8 00 00 00 00	 call	 ??$_Deallocate_plain@V?$allocator@U_Container_proxy@std@@@std@@@std@@YAXAEAV?$allocator@U_Container_proxy@std@@@0@QEAU_Container_proxy@0@@Z ; std::_Deallocate_plain<std::allocator<std::_Container_proxy> >
  00038	90		 npad	 1

; 1164 : }

  00039	48 8d a5 c8 00
	00 00		 lea	 rsp, QWORD PTR [rbp+200]
  00040	5f		 pop	 rdi
  00041	5d		 pop	 rbp
  00042	c3		 ret	 0
??$_Delete_plain_internal@V?$allocator@U_Container_proxy@std@@@std@@@std@@YAXAEAV?$allocator@U_Container_proxy@std@@@0@QEAU_Container_proxy@0@@Z ENDP ; std::_Delete_plain_internal<std::allocator<std::_Container_proxy> >
_TEXT	ENDS
; Function compile flags: /Odtp /RTCsu /ZI
; File C:\Program Files\Microsoft Visual Studio\18\Community\VC\Tools\MSVC\14.50.35717\include\xmemory
;	COMDAT ?allocate@?$allocator@U_Container_proxy@std@@@std@@QEAAPEAU_Container_proxy@2@_K@Z
_TEXT	SEGMENT
this$ = 224
_Count$ = 232
?allocate@?$allocator@U_Container_proxy@std@@@std@@QEAAPEAU_Container_proxy@2@_K@Z PROC ; std::allocator<std::_Container_proxy>::allocate, COMDAT

; 992  :     _NODISCARD_RAW_PTR_ALLOC _CONSTEXPR20 __declspec(allocator) _Ty* allocate(_CRT_GUARDOVERFLOW const size_t _Count) {

$LN3:
  00000	48 89 54 24 10	 mov	 QWORD PTR [rsp+16], rdx
  00005	48 89 4c 24 08	 mov	 QWORD PTR [rsp+8], rcx
  0000a	55		 push	 rbp
  0000b	57		 push	 rdi
  0000c	48 81 ec e8 00
	00 00		 sub	 rsp, 232		; 000000e8H
  00013	48 8d 6c 24 20	 lea	 rbp, QWORD PTR [rsp+32]
  00018	48 8d 0d 00 00
	00 00		 lea	 rcx, OFFSET FLAT:__B41741EF_xmemory
  0001f	e8 00 00 00 00	 call	 __CheckForDebuggerJustMyCode
  00024	90		 npad	 1

; 993  :         static_assert(sizeof(value_type) > 0, "value_type must be complete before calling allocate.");
; 994  :         return static_cast<_Ty*>(_STD _Allocate<_New_alignof<_Ty>>(_Get_size_of_n<sizeof(_Ty)>(_Count)));

  00025	48 8b 8d e8 00
	00 00		 mov	 rcx, QWORD PTR _Count$[rbp]
  0002c	e8 00 00 00 00	 call	 ??$_Get_size_of_n@$0BA@@std@@YA_K_K@Z ; std::_Get_size_of_n<16>
  00031	48 8b c8	 mov	 rcx, rax
  00034	e8 00 00 00 00	 call	 ??$_Allocate@$0BA@U_Default_allocate_traits@std@@@std@@YAPEAX_K@Z ; std::_Allocate<16,std::_Default_allocate_traits>

; 995  :     }

  00039	48 8d a5 c8 00
	00 00		 lea	 rsp, QWORD PTR [rbp+200]
  00040	5f		 pop	 rdi
  00041	5d		 pop	 rbp
  00042	c3		 ret	 0
?allocate@?$allocator@U_Container_proxy@std@@@std@@QEAAPEAU_Container_proxy@2@_K@Z ENDP ; std::allocator<std::_Container_proxy>::allocate
_TEXT	ENDS
; Function compile flags: /Odtp /RTCsu /ZI
; File C:\Program Files\Microsoft Visual Studio\18\Community\VC\Tools\MSVC\14.50.35717\include\xmemory
;	COMDAT ?deallocate@?$allocator@U_Container_proxy@std@@@std@@QEAAXQEAU_Container_proxy@2@_K@Z
_TEXT	SEGMENT
this$ = 224
_Ptr$ = 232
_Count$ = 240
?deallocate@?$allocator@U_Container_proxy@std@@@std@@QEAAXQEAU_Container_proxy@2@_K@Z PROC ; std::allocator<std::_Container_proxy>::deallocate, COMDAT

; 986  :     _CONSTEXPR20 void deallocate(_Ty* const _Ptr, const size_t _Count) noexcept /* strengthened */ {

$LN6:
  00000	4c 89 44 24 18	 mov	 QWORD PTR [rsp+24], r8
  00005	48 89 54 24 10	 mov	 QWORD PTR [rsp+16], rdx
  0000a	48 89 4c 24 08	 mov	 QWORD PTR [rsp+8], rcx
  0000f	55		 push	 rbp
  00010	57		 push	 rdi
  00011	48 81 ec f8 00
	00 00		 sub	 rsp, 248		; 000000f8H
  00018	48 8d 6c 24 30	 lea	 rbp, QWORD PTR [rsp+48]
  0001d	48 8d 0d 00 00
	00 00		 lea	 rcx, OFFSET FLAT:__B41741EF_xmemory
  00024	e8 00 00 00 00	 call	 __CheckForDebuggerJustMyCode
  00029	90		 npad	 1

; 987  :         _STL_ASSERT(_Ptr != nullptr || _Count == 0, "null pointer cannot point to a block of non-zero size");

  0002a	48 83 bd e8 00
	00 00 00	 cmp	 QWORD PTR _Ptr$[rbp], 0
  00032	75 4c		 jne	 SHORT $LN2@deallocate
  00034	48 83 bd f0 00
	00 00 00	 cmp	 QWORD PTR _Count$[rbp], 0
  0003c	74 42		 je	 SHORT $LN2@deallocate
  0003e	48 8d 05 00 00
	00 00		 lea	 rax, OFFSET FLAT:??_C@_0DG@KGHKKGBC@null?5pointer?5cannot?5point?5to?5a?5@
  00045	48 89 44 24 28	 mov	 QWORD PTR [rsp+40], rax
  0004a	48 8d 05 00 00
	00 00		 lea	 rax, OFFSET FLAT:??_C@_02DKCKIIND@?$CFs@
  00051	48 89 44 24 20	 mov	 QWORD PTR [rsp+32], rax
  00056	45 33 c9	 xor	 r9d, r9d
  00059	41 b8 db 03 00
	00		 mov	 r8d, 987		; 000003dbH
  0005f	48 8d 15 00 00
	00 00		 lea	 rdx, OFFSET FLAT:??_C@_0GA@HFAKHCPJ@C?3?2Program?5Files?2Microsoft?5Visu@
  00066	b9 02 00 00 00	 mov	 ecx, 2
  0006b	ff 15 00 00 00
	00		 call	 QWORD PTR __imp__CrtDbgReport
  00071	83 f8 01	 cmp	 eax, 1
  00074	75 03		 jne	 SHORT $LN4@deallocate
  00076	cc		 int	 3
  00077	33 c0		 xor	 eax, eax
$LN4@deallocate:
  00079	b9 05 00 00 00	 mov	 ecx, 5
  0007e	cd 29		 int	 41			; 00000029H
$LN2@deallocate:

; 988  :         // no overflow check on the following multiply; we assume _Allocate did that check
; 989  :         _STD _Deallocate<_New_alignof<_Ty>>(_Ptr, sizeof(_Ty) * _Count);

  00080	48 6b 85 f0 00
	00 00 10	 imul	 rax, QWORD PTR _Count$[rbp], 16
  00088	48 8b d0	 mov	 rdx, rax
  0008b	48 8b 8d e8 00
	00 00		 mov	 rcx, QWORD PTR _Ptr$[rbp]
  00092	e8 00 00 00 00	 call	 ??$_Deallocate@$0BA@@std@@YAXPEAX_K@Z ; std::_Deallocate<16>
  00097	90		 npad	 1

; 990  :     }

  00098	48 8d a5 c8 00
	00 00		 lea	 rsp, QWORD PTR [rbp+200]
  0009f	5f		 pop	 rdi
  000a0	5d		 pop	 rbp
  000a1	c3		 ret	 0
?deallocate@?$allocator@U_Container_proxy@std@@@std@@QEAAXQEAU_Container_proxy@2@_K@Z ENDP ; std::allocator<std::_Container_proxy>::deallocate
_TEXT	ENDS
; Function compile flags: /Odtp /RTCsu /ZI
; File C:\Program Files\Microsoft Visual Studio\18\Community\VC\Tools\MSVC\14.50.35717\include\xstring
;	COMDAT ??$_Construct@$00PEBD@?$basic_string@DU?$char_traits@D@std@@V?$allocator@D@2@@std@@AEAAXQEBD_K@Z
_TEXT	SEGMENT
_My_data$ = 8
_Al$ = 40
_Alproxy$ = 68
_Proxy$ = 104
_New_capacity$ = 152
_New_ptr$ = 184
$T7 = 404
$T8 = 436
__$ArrayPad$ = 456
this$ = 496
_Arg$ = 504
_Count$ = 512
??$_Construct@$00PEBD@?$basic_string@DU?$char_traits@D@std@@V?$allocator@D@2@@std@@AEAAXQEBD_K@Z PROC ; std::basic_string<char,std::char_traits<char>,std::allocator<char> >::_Construct<1,char const *>, COMDAT

; 921  :     _CONSTEXPR20 void _Construct(const _Char_or_ptr _Arg, _CRT_GUARDOVERFLOW const size_type _Count) {

$LN7:
  00000	4c 89 44 24 18	 mov	 QWORD PTR [rsp+24], r8
  00005	48 89 54 24 10	 mov	 QWORD PTR [rsp+16], rdx
  0000a	48 89 4c 24 08	 mov	 QWORD PTR [rsp+8], rcx
  0000f	55		 push	 rbp
  00010	57		 push	 rdi
  00011	48 81 ec f8 01
	00 00		 sub	 rsp, 504		; 000001f8H
  00018	48 8d 6c 24 20	 lea	 rbp, QWORD PTR [rsp+32]
  0001d	48 8d 7c 24 20	 lea	 rdi, QWORD PTR [rsp+32]
  00022	b9 46 00 00 00	 mov	 ecx, 70			; 00000046H
  00027	b8 cc cc cc cc	 mov	 eax, -858993460		; ccccccccH
  0002c	f3 ab		 rep stosd
  0002e	48 8b 8c 24 18
	02 00 00	 mov	 rcx, QWORD PTR [rsp+536]
  00036	48 8b 05 00 00
	00 00		 mov	 rax, QWORD PTR __security_cookie
  0003d	48 33 c5	 xor	 rax, rbp
  00040	48 89 85 c8 01
	00 00		 mov	 QWORD PTR __$ArrayPad$[rbp], rax
  00047	48 8d 0d 00 00
	00 00		 lea	 rcx, OFFSET FLAT:__C0C4C773_xstring
  0004e	e8 00 00 00 00	 call	 __CheckForDebuggerJustMyCode
  00053	90		 npad	 1

; 922  :         auto& _My_data = _Mypair._Myval2;

  00054	48 8b 85 f0 01
	00 00		 mov	 rax, QWORD PTR this$[rbp]
  0005b	48 89 45 08	 mov	 QWORD PTR _My_data$[rbp], rax

; 923  :         _STL_INTERNAL_CHECK(!_My_data._Large_mode_engaged());
; 924  : 
; 925  :         if constexpr (_Strat == _Construct_strategy::_From_char) {
; 926  :             _STL_INTERNAL_STATIC_ASSERT(is_same_v<_Char_or_ptr, _Elem>);
; 927  :         } else {
; 928  :             _STL_INTERNAL_STATIC_ASSERT(_Is_elem_cvptr<_Char_or_ptr>::value);
; 929  :         }
; 930  : 
; 931  :         if (_Count > max_size()) {

  0005f	48 8b 8d f0 01
	00 00		 mov	 rcx, QWORD PTR this$[rbp]
  00066	e8 00 00 00 00	 call	 ?max_size@?$basic_string@DU?$char_traits@D@std@@V?$allocator@D@2@@std@@QEBA_KXZ ; std::basic_string<char,std::char_traits<char>,std::allocator<char> >::max_size
  0006b	48 39 85 00 02
	00 00		 cmp	 QWORD PTR _Count$[rbp], rax
  00072	76 06		 jbe	 SHORT $LN2@Construct

; 932  :             _Xlen_string(); // result too long

  00074	e8 00 00 00 00	 call	 ?_Xlen_string@std@@YAXXZ ; std::_Xlen_string
  00079	90		 npad	 1
$LN2@Construct:

; 933  :         }
; 934  : 
; 935  :         auto& _Al     = _Getal();

  0007a	48 8b 8d f0 01
	00 00		 mov	 rcx, QWORD PTR this$[rbp]
  00081	e8 00 00 00 00	 call	 ?_Getal@?$basic_string@DU?$char_traits@D@std@@V?$allocator@D@2@@std@@AEAAAEAV?$allocator@D@2@XZ ; std::basic_string<char,std::char_traits<char>,std::allocator<char> >::_Getal
  00086	48 89 45 28	 mov	 QWORD PTR _Al$[rbp], rax

; 936  :         auto _Alproxy = _STD _Get_proxy_allocator(_Al);

  0008a	48 8b 55 28	 mov	 rdx, QWORD PTR _Al$[rbp]
  0008e	48 8d 4d 44	 lea	 rcx, QWORD PTR _Alproxy$[rbp]
  00092	e8 00 00 00 00	 call	 ??$_Get_proxy_allocator@V?$allocator@D@std@@@std@@YA?AV?$allocator@U_Container_proxy@std@@@0@AEBV?$allocator@D@0@@Z ; std::_Get_proxy_allocator<std::allocator<char> >
  00097	90		 npad	 1

; 937  :         _Container_proxy_ptr<_Alty> _Proxy(_Alproxy, _My_data);

  00098	4c 8b 45 08	 mov	 r8, QWORD PTR _My_data$[rbp]
  0009c	48 8d 55 44	 lea	 rdx, QWORD PTR _Alproxy$[rbp]
  000a0	48 8d 4d 68	 lea	 rcx, QWORD PTR _Proxy$[rbp]
  000a4	e8 00 00 00 00	 call	 ??0?$_Container_proxy_ptr12@V?$allocator@U_Container_proxy@std@@@std@@@std@@QEAA@AEAV?$allocator@U_Container_proxy@std@@@1@AEAU_Container_base12@1@@Z ; std::_Container_proxy_ptr12<std::allocator<std::_Container_proxy> >::_Container_proxy_ptr12<std::allocator<std::_Container_proxy> >
  000a9	90		 npad	 1

; 938  : 
; 939  :         if (_Count <= _Small_string_capacity) {

  000aa	48 83 bd 00 02
	00 00 0f	 cmp	 QWORD PTR _Count$[rbp], 15
  000b2	77 7a		 ja	 SHORT $LN3@Construct

; 940  :             _My_data._Mysize = _Count;

  000b4	48 8b 45 08	 mov	 rax, QWORD PTR _My_data$[rbp]
  000b8	48 8b 8d 00 02
	00 00		 mov	 rcx, QWORD PTR _Count$[rbp]
  000bf	48 89 48 18	 mov	 QWORD PTR [rax+24], rcx

; 941  :             _My_data._Myres  = _Small_string_capacity;

  000c3	48 8b 45 08	 mov	 rax, QWORD PTR _My_data$[rbp]
  000c7	48 c7 40 20 0f
	00 00 00	 mov	 QWORD PTR [rax+32], 15

; 942  : 
; 943  :             if constexpr (_Strat == _Construct_strategy::_From_char) {
; 944  :                 _Traits::assign(_My_data._Bx._Buf, _Count, _Arg);
; 945  :                 _Traits::assign(_My_data._Bx._Buf[_Count], _Elem());
; 946  :             } else if constexpr (_Strat == _Construct_strategy::_From_ptr) {
; 947  :                 _STD _Traits_copy_batch<_Traits>(_My_data._Bx._Buf, _Arg, _Count);

  000cf	48 8b 45 08	 mov	 rax, QWORD PTR _My_data$[rbp]
  000d3	48 83 c0 08	 add	 rax, 8
  000d7	4c 8b 85 00 02
	00 00		 mov	 r8, QWORD PTR _Count$[rbp]
  000de	48 8b 95 f8 01
	00 00		 mov	 rdx, QWORD PTR _Arg$[rbp]
  000e5	48 8b c8	 mov	 rcx, rax
  000e8	e8 00 00 00 00	 call	 ??$_Traits_copy_batch@U?$char_traits@D@std@@D@std@@YAXQEADQEBD_K@Z ; std::_Traits_copy_batch<std::char_traits<char>,char>
  000ed	90		 npad	 1

; 948  :                 _Traits::assign(_My_data._Bx._Buf[_Count], _Elem());

  000ee	c6 85 94 01 00
	00 00		 mov	 BYTE PTR $T7[rbp], 0
  000f5	48 8b 45 08	 mov	 rax, QWORD PTR _My_data$[rbp]
  000f9	48 8b 8d 00 02
	00 00		 mov	 rcx, QWORD PTR _Count$[rbp]
  00100	48 8d 44 08 08	 lea	 rax, QWORD PTR [rax+rcx+8]
  00105	48 8d 95 94 01
	00 00		 lea	 rdx, QWORD PTR $T7[rbp]
  0010c	48 8b c8	 mov	 rcx, rax
  0010f	e8 00 00 00 00	 call	 ?assign@?$_Narrow_char_traits@DH@std@@SAXAEADAEBD@Z ; std::_Narrow_char_traits<char,int>::assign
  00114	90		 npad	 1

; 949  :             } else { // _Strat == _Construct_strategy::_From_string
; 950  : #ifdef _INSERT_STRING_ANNOTATION
; 951  :                 _Traits::copy(_My_data._Bx._Buf, _Arg, _Count + 1);
; 952  : #else // ^^^ _INSERT_STRING_ANNOTATION / !_INSERT_STRING_ANNOTATION vvv
; 953  :                 _Traits::copy(_My_data._Bx._Buf, _Arg, _BUF_SIZE);
; 954  : #endif // ^^^ !_INSERT_STRING_ANNOTATION ^^^
; 955  :             }
; 956  : 
; 957  :             _Proxy._Release();

  00115	48 8d 4d 68	 lea	 rcx, QWORD PTR _Proxy$[rbp]
  00119	e8 00 00 00 00	 call	 ?_Release@_Basic_container_proxy_ptr12@std@@QEAAXXZ ; std::_Basic_container_proxy_ptr12::_Release
  0011e	90		 npad	 1

; 958  :             return;

  0011f	48 8d 4d 68	 lea	 rcx, QWORD PTR _Proxy$[rbp]
  00123	e8 00 00 00 00	 call	 ??1?$_Container_proxy_ptr12@V?$allocator@U_Container_proxy@std@@@std@@@std@@QEAA@XZ ; std::_Container_proxy_ptr12<std::allocator<std::_Container_proxy> >::~_Container_proxy_ptr12<std::allocator<std::_Container_proxy> >
  00128	90		 npad	 1
  00129	e9 d5 00 00 00	 jmp	 $LN4@Construct
$LN3@Construct:

; 959  :         }
; 960  : 
; 961  :         size_type _New_capacity = _Calculate_growth(_Count, _Small_string_capacity, max_size());

  0012e	48 8b 8d f0 01
	00 00		 mov	 rcx, QWORD PTR this$[rbp]
  00135	e8 00 00 00 00	 call	 ?max_size@?$basic_string@DU?$char_traits@D@std@@V?$allocator@D@2@@std@@QEBA_KXZ ; std::basic_string<char,std::char_traits<char>,std::allocator<char> >::max_size
  0013a	4c 8b c0	 mov	 r8, rax
  0013d	ba 0f 00 00 00	 mov	 edx, 15
  00142	48 8b 8d 00 02
	00 00		 mov	 rcx, QWORD PTR _Count$[rbp]
  00149	e8 00 00 00 00	 call	 ?_Calculate_growth@?$basic_string@DU?$char_traits@D@std@@V?$allocator@D@2@@std@@CA_K_K00@Z ; std::basic_string<char,std::char_traits<char>,std::allocator<char> >::_Calculate_growth
  0014e	48 89 85 98 00
	00 00		 mov	 QWORD PTR _New_capacity$[rbp], rax

; 962  :         const pointer _New_ptr  = _Allocate_for_capacity(_Al, _New_capacity); // throws

  00155	48 8d 95 98 00
	00 00		 lea	 rdx, QWORD PTR _New_capacity$[rbp]
  0015c	48 8b 4d 28	 mov	 rcx, QWORD PTR _Al$[rbp]
  00160	e8 00 00 00 00	 call	 ??$_Allocate_for_capacity@$0A@@?$basic_string@DU?$char_traits@D@std@@V?$allocator@D@2@@std@@CAPEADAEAV?$allocator@D@1@AEA_K@Z ; std::basic_string<char,std::char_traits<char>,std::allocator<char> >::_Allocate_for_capacity<0>
  00165	48 89 85 b8 00
	00 00		 mov	 QWORD PTR _New_ptr$[rbp], rax

; 963  :         _Construct_in_place(_My_data._Bx._Ptr, _New_ptr);

  0016c	48 8b 45 08	 mov	 rax, QWORD PTR _My_data$[rbp]
  00170	48 83 c0 08	 add	 rax, 8
  00174	48 8d 95 b8 00
	00 00		 lea	 rdx, QWORD PTR _New_ptr$[rbp]
  0017b	48 8b c8	 mov	 rcx, rax
  0017e	e8 00 00 00 00	 call	 ??$_Construct_in_place@PEADAEBQEAD@std@@YAXAEAPEADAEBQEAD@Z ; std::_Construct_in_place<char *,char * const &>
  00183	90		 npad	 1

; 964  : 
; 965  :         _My_data._Mysize = _Count;

  00184	48 8b 45 08	 mov	 rax, QWORD PTR _My_data$[rbp]
  00188	48 8b 8d 00 02
	00 00		 mov	 rcx, QWORD PTR _Count$[rbp]
  0018f	48 89 48 18	 mov	 QWORD PTR [rax+24], rcx

; 966  :         _My_data._Myres  = _New_capacity;

  00193	48 8b 45 08	 mov	 rax, QWORD PTR _My_data$[rbp]
  00197	48 8b 8d 98 00
	00 00		 mov	 rcx, QWORD PTR _New_capacity$[rbp]
  0019e	48 89 48 20	 mov	 QWORD PTR [rax+32], rcx

; 967  :         if constexpr (_Strat == _Construct_strategy::_From_char) {
; 968  :             _Traits::assign(_Unfancy(_New_ptr), _Count, _Arg);
; 969  :             _Traits::assign(_Unfancy(_New_ptr)[_Count], _Elem());
; 970  :         } else if constexpr (_Strat == _Construct_strategy::_From_ptr) {
; 971  :             _STD _Traits_copy_batch<_Traits>(_Unfancy(_New_ptr), _Arg, _Count);

  001a2	48 8b 8d b8 00
	00 00		 mov	 rcx, QWORD PTR _New_ptr$[rbp]
  001a9	e8 00 00 00 00	 call	 ??$_Unfancy@D@std@@YAPEADPEAD@Z ; std::_Unfancy<char>
  001ae	4c 8b 85 00 02
	00 00		 mov	 r8, QWORD PTR _Count$[rbp]
  001b5	48 8b 95 f8 01
	00 00		 mov	 rdx, QWORD PTR _Arg$[rbp]
  001bc	48 8b c8	 mov	 rcx, rax
  001bf	e8 00 00 00 00	 call	 ??$_Traits_copy_batch@U?$char_traits@D@std@@D@std@@YAXQEADQEBD_K@Z ; std::_Traits_copy_batch<std::char_traits<char>,char>
  001c4	90		 npad	 1

; 972  :             _Traits::assign(_Unfancy(_New_ptr)[_Count], _Elem());

  001c5	c6 85 b4 01 00
	00 00		 mov	 BYTE PTR $T8[rbp], 0
  001cc	48 8b 8d b8 00
	00 00		 mov	 rcx, QWORD PTR _New_ptr$[rbp]
  001d3	e8 00 00 00 00	 call	 ??$_Unfancy@D@std@@YAPEADPEAD@Z ; std::_Unfancy<char>
  001d8	48 03 85 00 02
	00 00		 add	 rax, QWORD PTR _Count$[rbp]
  001df	48 8d 95 b4 01
	00 00		 lea	 rdx, QWORD PTR $T8[rbp]
  001e6	48 8b c8	 mov	 rcx, rax
  001e9	e8 00 00 00 00	 call	 ?assign@?$_Narrow_char_traits@DH@std@@SAXAEADAEBD@Z ; std::_Narrow_char_traits<char,int>::assign
  001ee	90		 npad	 1

; 973  :         } else { // _Strat == _Construct_strategy::_From_string
; 974  :             _Traits::copy(_Unfancy(_New_ptr), _Arg, _Count + 1);
; 975  :         }
; 976  : 
; 977  :         _ASAN_STRING_CREATE(*this);
; 978  :         _Proxy._Release();

  001ef	48 8d 4d 68	 lea	 rcx, QWORD PTR _Proxy$[rbp]
  001f3	e8 00 00 00 00	 call	 ?_Release@_Basic_container_proxy_ptr12@std@@QEAAXXZ ; std::_Basic_container_proxy_ptr12::_Release
  001f8	90		 npad	 1

; 979  :     }

  001f9	48 8d 4d 68	 lea	 rcx, QWORD PTR _Proxy$[rbp]
  001fd	e8 00 00 00 00	 call	 ??1?$_Container_proxy_ptr12@V?$allocator@U_Container_proxy@std@@@std@@@std@@QEAA@XZ ; std::_Container_proxy_ptr12<std::allocator<std::_Container_proxy> >::~_Container_proxy_ptr12<std::allocator<std::_Container_proxy> >
  00202	90		 npad	 1
$LN4@Construct:
  00203	48 8d 4d e0	 lea	 rcx, QWORD PTR [rbp-32]
  00207	48 8d 15 00 00
	00 00		 lea	 rdx, OFFSET FLAT:??$_Construct@$00PEBD@?$basic_string@DU?$char_traits@D@std@@V?$allocator@D@2@@std@@AEAAXQEBD_K@Z$rtcFrameData
  0020e	e8 00 00 00 00	 call	 _RTC_CheckStackVars
  00213	48 8b 8d c8 01
	00 00		 mov	 rcx, QWORD PTR __$ArrayPad$[rbp]
  0021a	48 33 cd	 xor	 rcx, rbp
  0021d	e8 00 00 00 00	 call	 __security_check_cookie
  00222	48 8d a5 d8 01
	00 00		 lea	 rsp, QWORD PTR [rbp+472]
  00229	5f		 pop	 rdi
  0022a	5d		 pop	 rbp
  0022b	c3		 ret	 0
$LN6@Construct:
??$_Construct@$00PEBD@?$basic_string@DU?$char_traits@D@std@@V?$allocator@D@2@@std@@AEAAXQEBD_K@Z ENDP ; std::basic_string<char,std::char_traits<char>,std::allocator<char> >::_Construct<1,char const *>
_TEXT	ENDS
; Function compile flags: /Odtp /RTCsu /ZI
;	COMDAT text$x
text$x	SEGMENT
_My_data$ = 8
_Al$ = 40
_Alproxy$ = 68
_Proxy$ = 104
_New_capacity$ = 152
_New_ptr$ = 184
$T7 = 404
$T8 = 436
__$ArrayPad$ = 456
this$ = 496
_Arg$ = 504
_Count$ = 512
?dtor$0@?0???$_Construct@$00PEBD@?$basic_string@DU?$char_traits@D@std@@V?$allocator@D@2@@std@@AEAAXQEBD_K@Z@4HA PROC ; `std::basic_string<char,std::char_traits<char>,std::allocator<char> >::_Construct<1,char const *>'::`1'::dtor$0
  00000	48 89 4c 24 08	 mov	 QWORD PTR [rsp+8], rcx
  00005	48 89 54 24 10	 mov	 QWORD PTR [rsp+16], rdx
  0000a	55		 push	 rbp
  0000b	57		 push	 rdi
  0000c	48 83 ec 28	 sub	 rsp, 40			; 00000028H
  00010	48 8d 6a 20	 lea	 rbp, QWORD PTR [rdx+32]
  00014	48 8d 4d 68	 lea	 rcx, QWORD PTR _Proxy$[rbp]
  00018	e8 00 00 00 00	 call	 ??1?$_Container_proxy_ptr12@V?$allocator@U_Container_proxy@std@@@std@@@std@@QEAA@XZ ; std::_Container_proxy_ptr12<std::allocator<std::_Container_proxy> >::~_Container_proxy_ptr12<std::allocator<std::_Container_proxy> >
  0001d	48 83 c4 28	 add	 rsp, 40			; 00000028H
  00021	5f		 pop	 rdi
  00022	5d		 pop	 rbp
  00023	c3		 ret	 0
?dtor$0@?0???$_Construct@$00PEBD@?$basic_string@DU?$char_traits@D@std@@V?$allocator@D@2@@std@@AEAAXQEBD_K@Z@4HA ENDP ; `std::basic_string<char,std::char_traits<char>,std::allocator<char> >::_Construct<1,char const *>'::`1'::dtor$0
text$x	ENDS
; Function compile flags: /Odtp /RTCsu /ZI
; File C:\Program Files\Microsoft Visual Studio\18\Community\VC\Tools\MSVC\14.50.35717\include\xmemory
;	COMDAT ??$_Convert_size@_K_K@std@@YA_K_K@Z
_TEXT	SEGMENT
_Len$ = 224
??$_Convert_size@_K_K@std@@YA_K_K@Z PROC		; std::_Convert_size<unsigned __int64,unsigned __int64>, COMDAT

; 1132 :     noexcept(sizeof(_Unsigned_type) <= sizeof(_Size_type)) {

$LN4:
  00000	48 89 4c 24 08	 mov	 QWORD PTR [rsp+8], rcx
  00005	55		 push	 rbp
  00006	57		 push	 rdi
  00007	48 81 ec e8 00
	00 00		 sub	 rsp, 232		; 000000e8H
  0000e	48 8d 6c 24 20	 lea	 rbp, QWORD PTR [rsp+32]
  00013	48 8d 0d 00 00
	00 00		 lea	 rcx, OFFSET FLAT:__B41741EF_xmemory
  0001a	e8 00 00 00 00	 call	 __CheckForDebuggerJustMyCode
  0001f	90		 npad	 1

; 1133 :     // convert _Unsigned_type to _Size_type, avoiding truncation
; 1134 :     _STL_INTERNAL_STATIC_ASSERT(_Unsigned_type(-1) > 0);
; 1135 :     _STL_INTERNAL_STATIC_ASSERT(_Size_type(-1) > 0);
; 1136 : 
; 1137 :     if constexpr (sizeof(_Unsigned_type) > sizeof(_Size_type)) {
; 1138 :         if (_Len > _STD _Max_limit<_Size_type>()) {
; 1139 :             _Xlength_error("size is too long for _Size_type");
; 1140 :         }
; 1141 :     }
; 1142 : 
; 1143 :     return static_cast<_Size_type>(_Len);

  00020	48 8b 85 e0 00
	00 00		 mov	 rax, QWORD PTR _Len$[rbp]

; 1144 : }

  00027	48 8d a5 c8 00
	00 00		 lea	 rsp, QWORD PTR [rbp+200]
  0002e	5f		 pop	 rdi
  0002f	5d		 pop	 rbp
  00030	c3		 ret	 0
??$_Convert_size@_K_K@std@@YA_K_K@Z ENDP		; std::_Convert_size<unsigned __int64,unsigned __int64>
_TEXT	ENDS
; Function compile flags: /Odtp /RTCsu /ZI
;	COMDAT ??_Gui512_stub_testing@ui512_Unit_Tests@@UEAAPEAXI@Z
_TEXT	SEGMENT
this$ = 224
__flags$ = 232
??_Gui512_stub_testing@ui512_Unit_Tests@@UEAAPEAXI@Z PROC ; ui512_Unit_Tests::ui512_stub_testing::`scalar deleting destructor', COMDAT
$LN4:
  00000	89 54 24 10	 mov	 DWORD PTR [rsp+16], edx
  00004	48 89 4c 24 08	 mov	 QWORD PTR [rsp+8], rcx
  00009	55		 push	 rbp
  0000a	57		 push	 rdi
  0000b	48 81 ec e8 00
	00 00		 sub	 rsp, 232		; 000000e8H
  00012	48 8d 6c 24 20	 lea	 rbp, QWORD PTR [rsp+32]
  00017	48 8b 8d e0 00
	00 00		 mov	 rcx, QWORD PTR this$[rbp]
  0001e	e8 00 00 00 00	 call	 ??1ui512_stub_testing@ui512_Unit_Tests@@UEAA@XZ
  00023	90		 npad	 1
  00024	8b 85 e8 00 00
	00		 mov	 eax, DWORD PTR __flags$[rbp]
  0002a	83 e0 01	 and	 eax, 1
  0002d	85 c0		 test	 eax, eax
  0002f	74 12		 je	 SHORT $LN2@scalar
  00031	ba 08 00 00 00	 mov	 edx, 8
  00036	48 8b 8d e0 00
	00 00		 mov	 rcx, QWORD PTR this$[rbp]
  0003d	e8 00 00 00 00	 call	 ??3@YAXPEAX_K@Z		; operator delete
  00042	90		 npad	 1
$LN2@scalar:
  00043	48 8b 85 e0 00
	00 00		 mov	 rax, QWORD PTR this$[rbp]
  0004a	48 8d a5 c8 00
	00 00		 lea	 rsp, QWORD PTR [rbp+200]
  00051	5f		 pop	 rdi
  00052	5d		 pop	 rbp
  00053	c3		 ret	 0
??_Gui512_stub_testing@ui512_Unit_Tests@@UEAAPEAXI@Z ENDP ; ui512_Unit_Tests::ui512_stub_testing::`scalar deleting destructor'
_TEXT	ENDS
; Function compile flags: /Odtp /RTCsu /ZI
;	COMDAT ??1ui512_stub_testing@ui512_Unit_Tests@@UEAA@XZ
_TEXT	SEGMENT
this$ = 224
??1ui512_stub_testing@ui512_Unit_Tests@@UEAA@XZ PROC	; ui512_Unit_Tests::ui512_stub_testing::~ui512_stub_testing, COMDAT
$LN4:
  00000	48 89 4c 24 08	 mov	 QWORD PTR [rsp+8], rcx
  00005	55		 push	 rbp
  00006	57		 push	 rdi
  00007	48 81 ec e8 00
	00 00		 sub	 rsp, 232		; 000000e8H
  0000e	48 8d 6c 24 20	 lea	 rbp, QWORD PTR [rsp+32]
  00013	48 8b 8d e0 00
	00 00		 mov	 rcx, QWORD PTR this$[rbp]
  0001a	e8 00 00 00 00	 call	 ??1?$TestClass@Vui512_stub_testing@ui512_Unit_Tests@@@CppUnitTestFramework@VisualStudio@Microsoft@@UEAA@XZ ; Microsoft::VisualStudio::CppUnitTestFramework::TestClass<ui512_Unit_Tests::ui512_stub_testing>::~TestClass<ui512_Unit_Tests::ui512_stub_testing>
  0001f	90		 npad	 1
  00020	48 8d a5 c8 00
	00 00		 lea	 rsp, QWORD PTR [rbp+200]
  00027	5f		 pop	 rdi
  00028	5d		 pop	 rbp
  00029	c3		 ret	 0
??1ui512_stub_testing@ui512_Unit_Tests@@UEAA@XZ ENDP	; ui512_Unit_Tests::ui512_stub_testing::~ui512_stub_testing
_TEXT	ENDS
; Function compile flags: /Odtp /RTCsu /ZI
;	COMDAT ??0ui512_stub_testing@ui512_Unit_Tests@@QEAA@XZ
_TEXT	SEGMENT
this$ = 224
??0ui512_stub_testing@ui512_Unit_Tests@@QEAA@XZ PROC	; ui512_Unit_Tests::ui512_stub_testing::ui512_stub_testing, COMDAT
$LN4:
  00000	48 89 4c 24 08	 mov	 QWORD PTR [rsp+8], rcx
  00005	55		 push	 rbp
  00006	57		 push	 rdi
  00007	48 81 ec e8 00
	00 00		 sub	 rsp, 232		; 000000e8H
  0000e	48 8d 6c 24 20	 lea	 rbp, QWORD PTR [rsp+32]
  00013	48 8b 8d e0 00
	00 00		 mov	 rcx, QWORD PTR this$[rbp]
  0001a	e8 00 00 00 00	 call	 ??0?$TestClass@Vui512_stub_testing@ui512_Unit_Tests@@@CppUnitTestFramework@VisualStudio@Microsoft@@QEAA@XZ
  0001f	90		 npad	 1
  00020	48 8b 85 e0 00
	00 00		 mov	 rax, QWORD PTR this$[rbp]
  00027	48 8d 0d 00 00
	00 00		 lea	 rcx, OFFSET FLAT:??_7ui512_stub_testing@ui512_Unit_Tests@@6B@
  0002e	48 89 08	 mov	 QWORD PTR [rax], rcx
  00031	48 8b 85 e0 00
	00 00		 mov	 rax, QWORD PTR this$[rbp]
  00038	48 8d a5 c8 00
	00 00		 lea	 rsp, QWORD PTR [rbp+200]
  0003f	5f		 pop	 rdi
  00040	5d		 pop	 rbp
  00041	c3		 ret	 0
??0ui512_stub_testing@ui512_Unit_Tests@@QEAA@XZ ENDP	; ui512_Unit_Tests::ui512_stub_testing::ui512_stub_testing
_TEXT	ENDS
; Function compile flags: /Odtp /RTCsu /ZI
; File C:\Users\John Lynch\source\repos\ui512\ui512_unit_tests\ui512_stub_testing.cpp
;	COMDAT ?ui512_01@ui512_stub_testing@ui512_Unit_Tests@@AEAAXXZ
_TEXT	SEGMENT
test_message$ = 8
$T4 = 264
$T5 = 328
tv89 = 376
tv85 = 384
tv90 = 392
tv87 = 400
__$ArrayPad$ = 408
this$ = 448
?ui512_01@ui512_stub_testing@ui512_Unit_Tests@@AEAAXXZ PROC ; ui512_Unit_Tests::ui512_stub_testing::ui512_01, COMDAT

; 29   : 		{

$LN6:
  00000	48 89 4c 24 08	 mov	 QWORD PTR [rsp+8], rcx
  00005	55		 push	 rbp
  00006	57		 push	 rdi
  00007	48 81 ec c8 01
	00 00		 sub	 rsp, 456		; 000001c8H
  0000e	48 8d 6c 24 20	 lea	 rbp, QWORD PTR [rsp+32]
  00013	48 8d 7c 24 20	 lea	 rdi, QWORD PTR [rsp+32]
  00018	b9 3a 00 00 00	 mov	 ecx, 58			; 0000003aH
  0001d	b8 cc cc cc cc	 mov	 eax, -858993460		; ccccccccH
  00022	f3 ab		 rep stosd
  00024	48 8b 8c 24 e8
	01 00 00	 mov	 rcx, QWORD PTR [rsp+488]
  0002c	48 8b 05 00 00
	00 00		 mov	 rax, QWORD PTR __security_cookie
  00033	48 33 c5	 xor	 rax, rbp
  00036	48 89 85 98 01
	00 00		 mov	 QWORD PTR __$ArrayPad$[rbp], rax
  0003d	48 8d 0d 00 00
	00 00		 lea	 rcx, OFFSET FLAT:__249C6933_ui512_stub_testing@cpp
  00044	e8 00 00 00 00	 call	 __CheckForDebuggerJustMyCode
  00049	90		 npad	 1

; 30   : 			string test_message = string( "***\t\t\t" ) + "Stub Test 01" + "\t\t\t***\n";

  0004a	48 8d 15 00 00
	00 00		 lea	 rdx, OFFSET FLAT:??_C@_06IHADJIOK@?$CK?$CK?$CK?7?7?7@
  00051	48 8d 8d 08 01
	00 00		 lea	 rcx, QWORD PTR $T4[rbp]
  00058	e8 00 00 00 00	 call	 ??0?$basic_string@DU?$char_traits@D@std@@V?$allocator@D@2@@std@@QEAA@QEBD@Z ; std::basic_string<char,std::char_traits<char>,std::allocator<char> >::basic_string<char,std::char_traits<char>,std::allocator<char> >
  0005d	48 89 85 78 01
	00 00		 mov	 QWORD PTR tv89[rbp], rax
  00064	48 8b 85 78 01
	00 00		 mov	 rax, QWORD PTR tv89[rbp]
  0006b	48 89 85 80 01
	00 00		 mov	 QWORD PTR tv85[rbp], rax
  00072	4c 8d 05 00 00
	00 00		 lea	 r8, OFFSET FLAT:??_C@_0N@HABDBKBE@Stub?5Test?501@
  00079	48 8b 95 80 01
	00 00		 mov	 rdx, QWORD PTR tv85[rbp]
  00080	48 8d 8d 48 01
	00 00		 lea	 rcx, QWORD PTR $T5[rbp]
  00087	e8 00 00 00 00	 call	 ??$?HDU?$char_traits@D@std@@V?$allocator@D@1@@std@@YA?AV?$basic_string@DU?$char_traits@D@std@@V?$allocator@D@2@@0@$$QEAV10@QEBD@Z ; std::operator+<char,std::char_traits<char>,std::allocator<char> >
  0008c	48 89 85 88 01
	00 00		 mov	 QWORD PTR tv90[rbp], rax
  00093	48 8b 85 88 01
	00 00		 mov	 rax, QWORD PTR tv90[rbp]
  0009a	48 89 85 90 01
	00 00		 mov	 QWORD PTR tv87[rbp], rax
  000a1	4c 8d 05 00 00
	00 00		 lea	 r8, OFFSET FLAT:??_C@_07LMMOHMOF@?7?7?7?$CK?$CK?$CK?6@
  000a8	48 8b 95 90 01
	00 00		 mov	 rdx, QWORD PTR tv87[rbp]
  000af	48 8d 4d 08	 lea	 rcx, QWORD PTR test_message$[rbp]
  000b3	e8 00 00 00 00	 call	 ??$?HDU?$char_traits@D@std@@V?$allocator@D@1@@std@@YA?AV?$basic_string@DU?$char_traits@D@std@@V?$allocator@D@2@@0@$$QEAV10@QEBD@Z ; std::operator+<char,std::char_traits<char>,std::allocator<char> >
  000b8	90		 npad	 1
  000b9	48 8d 8d 48 01
	00 00		 lea	 rcx, QWORD PTR $T5[rbp]
  000c0	e8 00 00 00 00	 call	 ??1?$basic_string@DU?$char_traits@D@std@@V?$allocator@D@2@@std@@QEAA@XZ ; std::basic_string<char,std::char_traits<char>,std::allocator<char> >::~basic_string<char,std::char_traits<char>,std::allocator<char> >
  000c5	90		 npad	 1
  000c6	48 8d 8d 08 01
	00 00		 lea	 rcx, QWORD PTR $T4[rbp]
  000cd	e8 00 00 00 00	 call	 ??1?$basic_string@DU?$char_traits@D@std@@V?$allocator@D@2@@std@@QEAA@XZ ; std::basic_string<char,std::char_traits<char>,std::allocator<char> >::~basic_string<char,std::char_traits<char>,std::allocator<char> >
  000d2	90		 npad	 1

; 31   : 			//test_message += format( "Samples run:\t\t\t\t{:9d}\n", stat->timing_count );
; 32   : 			//test_message += format( "Total target function (including c calling set - up) execution cycles :{:10.0f}\n", stat->total );
; 33   : 			//test_message += format( "Average clock cycles per call: \t{:6.2f}\n", stat->mean );
; 34   : 			//test_message += format( "Minimum in \t\t\t\t\t\t{:6.0f}\n", stat->min );
; 35   : 			//test_message += format( "Maximum in \t\t\t\t\t\t{:6.0f}\n", stat->max );
; 36   : 			//test_message += format( "Sample Variance: \t\t\t{:10.3f}\n", stat->sample_variance );
; 37   : 			//test_message += format( "Standard Deviation :\t \t{:9.3f}\n", stat->stddev );
; 38   : 			//test_message += format( "Coefficient of Variation: \t{:10.2f}\n\n", stat->coefficient_of_variation );
; 39   : 
; 40   : 			Logger::WriteMessage( test_message.c_str( ) );

  000d3	48 8d 4d 08	 lea	 rcx, QWORD PTR test_message$[rbp]
  000d7	e8 00 00 00 00	 call	 ?c_str@?$basic_string@DU?$char_traits@D@std@@V?$allocator@D@2@@std@@QEBAPEBDXZ ; std::basic_string<char,std::char_traits<char>,std::allocator<char> >::c_str
  000dc	48 8b c8	 mov	 rcx, rax
  000df	e8 00 00 00 00	 call	 ?WriteMessage@Logger@CppUnitTestFramework@VisualStudio@Microsoft@@SAXPEBD@Z ; Microsoft::VisualStudio::CppUnitTestFramework::Logger::WriteMessage
  000e4	90		 npad	 1

; 41   : 		};

  000e5	48 8d 4d 08	 lea	 rcx, QWORD PTR test_message$[rbp]
  000e9	e8 00 00 00 00	 call	 ??1?$basic_string@DU?$char_traits@D@std@@V?$allocator@D@2@@std@@QEAA@XZ ; std::basic_string<char,std::char_traits<char>,std::allocator<char> >::~basic_string<char,std::char_traits<char>,std::allocator<char> >
  000ee	90		 npad	 1
  000ef	48 8d 4d e0	 lea	 rcx, QWORD PTR [rbp-32]
  000f3	48 8d 15 00 00
	00 00		 lea	 rdx, OFFSET FLAT:?ui512_01@ui512_stub_testing@ui512_Unit_Tests@@AEAAXXZ$rtcFrameData
  000fa	e8 00 00 00 00	 call	 _RTC_CheckStackVars
  000ff	48 8b 8d 98 01
	00 00		 mov	 rcx, QWORD PTR __$ArrayPad$[rbp]
  00106	48 33 cd	 xor	 rcx, rbp
  00109	e8 00 00 00 00	 call	 __security_check_cookie
  0010e	48 8d a5 a8 01
	00 00		 lea	 rsp, QWORD PTR [rbp+424]
  00115	5f		 pop	 rdi
  00116	5d		 pop	 rbp
  00117	c3		 ret	 0
?ui512_01@ui512_stub_testing@ui512_Unit_Tests@@AEAAXXZ ENDP ; ui512_Unit_Tests::ui512_stub_testing::ui512_01
_TEXT	ENDS
; Function compile flags: /Odtp /RTCsu /ZI
;	COMDAT text$x
text$x	SEGMENT
test_message$ = 8
$T4 = 264
$T5 = 328
tv89 = 376
tv85 = 384
tv90 = 392
tv87 = 400
__$ArrayPad$ = 408
this$ = 448
?dtor$0@?0??ui512_01@ui512_stub_testing@ui512_Unit_Tests@@AEAAXXZ@4HA PROC ; `ui512_Unit_Tests::ui512_stub_testing::ui512_01'::`1'::dtor$0
  00000	48 89 4c 24 08	 mov	 QWORD PTR [rsp+8], rcx
  00005	48 89 54 24 10	 mov	 QWORD PTR [rsp+16], rdx
  0000a	55		 push	 rbp
  0000b	57		 push	 rdi
  0000c	48 83 ec 28	 sub	 rsp, 40			; 00000028H
  00010	48 8d 6a 20	 lea	 rbp, QWORD PTR [rdx+32]
  00014	48 8d 8d 08 01
	00 00		 lea	 rcx, QWORD PTR $T4[rbp]
  0001b	e8 00 00 00 00	 call	 ??1?$basic_string@DU?$char_traits@D@std@@V?$allocator@D@2@@std@@QEAA@XZ ; std::basic_string<char,std::char_traits<char>,std::allocator<char> >::~basic_string<char,std::char_traits<char>,std::allocator<char> >
  00020	48 83 c4 28	 add	 rsp, 40			; 00000028H
  00024	5f		 pop	 rdi
  00025	5d		 pop	 rbp
  00026	c3		 ret	 0
?dtor$0@?0??ui512_01@ui512_stub_testing@ui512_Unit_Tests@@AEAAXXZ@4HA ENDP ; `ui512_Unit_Tests::ui512_stub_testing::ui512_01'::`1'::dtor$0
text$x	ENDS
; Function compile flags: /Odtp /RTCsu /ZI
;	COMDAT text$x
text$x	SEGMENT
test_message$ = 8
$T4 = 264
$T5 = 328
tv89 = 376
tv85 = 384
tv90 = 392
tv87 = 400
__$ArrayPad$ = 408
this$ = 448
?dtor$1@?0??ui512_01@ui512_stub_testing@ui512_Unit_Tests@@AEAAXXZ@4HA PROC ; `ui512_Unit_Tests::ui512_stub_testing::ui512_01'::`1'::dtor$1
  00000	48 89 4c 24 08	 mov	 QWORD PTR [rsp+8], rcx
  00005	48 89 54 24 10	 mov	 QWORD PTR [rsp+16], rdx
  0000a	55		 push	 rbp
  0000b	57		 push	 rdi
  0000c	48 83 ec 28	 sub	 rsp, 40			; 00000028H
  00010	48 8d 6a 20	 lea	 rbp, QWORD PTR [rdx+32]
  00014	48 8d 8d 48 01
	00 00		 lea	 rcx, QWORD PTR $T5[rbp]
  0001b	e8 00 00 00 00	 call	 ??1?$basic_string@DU?$char_traits@D@std@@V?$allocator@D@2@@std@@QEAA@XZ ; std::basic_string<char,std::char_traits<char>,std::allocator<char> >::~basic_string<char,std::char_traits<char>,std::allocator<char> >
  00020	48 83 c4 28	 add	 rsp, 40			; 00000028H
  00024	5f		 pop	 rdi
  00025	5d		 pop	 rbp
  00026	c3		 ret	 0
?dtor$1@?0??ui512_01@ui512_stub_testing@ui512_Unit_Tests@@AEAAXXZ@4HA ENDP ; `ui512_Unit_Tests::ui512_stub_testing::ui512_01'::`1'::dtor$1
text$x	ENDS
; Function compile flags: /Odtp /RTCsu /ZI
;	COMDAT text$x
text$x	SEGMENT
test_message$ = 8
$T4 = 264
$T5 = 328
tv89 = 376
tv85 = 384
tv90 = 392
tv87 = 400
__$ArrayPad$ = 408
this$ = 448
?dtor$2@?0??ui512_01@ui512_stub_testing@ui512_Unit_Tests@@AEAAXXZ@4HA PROC ; `ui512_Unit_Tests::ui512_stub_testing::ui512_01'::`1'::dtor$2
  00000	48 89 4c 24 08	 mov	 QWORD PTR [rsp+8], rcx
  00005	48 89 54 24 10	 mov	 QWORD PTR [rsp+16], rdx
  0000a	55		 push	 rbp
  0000b	57		 push	 rdi
  0000c	48 83 ec 28	 sub	 rsp, 40			; 00000028H
  00010	48 8d 6a 20	 lea	 rbp, QWORD PTR [rdx+32]
  00014	48 8d 4d 08	 lea	 rcx, QWORD PTR test_message$[rbp]
  00018	e8 00 00 00 00	 call	 ??1?$basic_string@DU?$char_traits@D@std@@V?$allocator@D@2@@std@@QEAA@XZ ; std::basic_string<char,std::char_traits<char>,std::allocator<char> >::~basic_string<char,std::char_traits<char>,std::allocator<char> >
  0001d	48 83 c4 28	 add	 rsp, 40			; 00000028H
  00021	5f		 pop	 rdi
  00022	5d		 pop	 rbp
  00023	c3		 ret	 0
?dtor$2@?0??ui512_01@ui512_stub_testing@ui512_Unit_Tests@@AEAAXXZ@4HA ENDP ; `ui512_Unit_Tests::ui512_stub_testing::ui512_01'::`1'::dtor$2
text$x	ENDS
; Function compile flags: /Odtp /RTCsu /ZI
; File C:\Users\John Lynch\source\repos\ui512\ui512_unit_tests\ui512_stub_testing.cpp
;	COMDAT ?__GetTestMethodInfo_ui512_01@ui512_stub_testing@ui512_Unit_Tests@@CAPEBUMemberMethodInfo@CppUnitTestFramework@VisualStudio@Microsoft@@XZ
_TEXT	SEGMENT
?__GetTestMethodInfo_ui512_01@ui512_stub_testing@ui512_Unit_Tests@@CAPEBUMemberMethodInfo@CppUnitTestFramework@VisualStudio@Microsoft@@XZ PROC ; ui512_Unit_Tests::ui512_stub_testing::__GetTestMethodInfo_ui512_01, COMDAT

; 28   : 		TEST_METHOD( ui512_01 )

$LN3:
  00000	40 55		 push	 rbp
  00002	57		 push	 rdi
  00003	48 81 ec e8 00
	00 00		 sub	 rsp, 232		; 000000e8H
  0000a	48 8d 6c 24 20	 lea	 rbp, QWORD PTR [rsp+32]
  0000f	48 8d 0d 00 00
	00 00		 lea	 rcx, OFFSET FLAT:__249C6933_ui512_stub_testing@cpp
  00016	e8 00 00 00 00	 call	 __CheckForDebuggerJustMyCode
  0001b	90		 npad	 1
  0001c	e8 00 00 00 00	 call	 ?__GetTestClassInfo@?$TestClass@Vui512_stub_testing@ui512_Unit_Tests@@@CppUnitTestFramework@VisualStudio@Microsoft@@SAPEBUTestClassInfo@234@XZ ; Microsoft::VisualStudio::CppUnitTestFramework::TestClass<ui512_Unit_Tests::ui512_stub_testing>::__GetTestClassInfo
  00021	90		 npad	 1
  00022	e8 00 00 00 00	 call	 ?__GetTestVersion@?$TestClass@Vui512_stub_testing@ui512_Unit_Tests@@@CppUnitTestFramework@VisualStudio@Microsoft@@SAPEBUTestDataVersion@234@XZ ; Microsoft::VisualStudio::CppUnitTestFramework::TestClass<ui512_Unit_Tests::ui512_stub_testing>::__GetTestVersion
  00027	90		 npad	 1
  00028	48 8d 05 00 00
	00 00		 lea	 rax, OFFSET FLAT:?ui512_01@ui512_stub_testing@ui512_Unit_Tests@@AEAAXXZ ; ui512_Unit_Tests::ui512_stub_testing::ui512_01
  0002f	48 89 05 08 00
	00 00		 mov	 QWORD PTR ?s_Info@?1??__GetTestMethodInfo_ui512_01@ui512_stub_testing@ui512_Unit_Tests@@CAPEBUMemberMethodInfo@CppUnitTestFramework@VisualStudio@Microsoft@@XZ@4U4567@A+8, rax
  00036	48 8d 05 00 00
	00 00		 lea	 rax, OFFSET FLAT:?s_Info@?1??__GetTestMethodInfo_ui512_01@ui512_stub_testing@ui512_Unit_Tests@@CAPEBUMemberMethodInfo@CppUnitTestFramework@VisualStudio@Microsoft@@XZ@4U4567@A ; `ui512_Unit_Tests::ui512_stub_testing::__GetTestMethodInfo_ui512_01'::`2'::s_Info
  0003d	48 8d a5 c8 00
	00 00		 lea	 rsp, QWORD PTR [rbp+200]
  00044	5f		 pop	 rdi
  00045	5d		 pop	 rbp
  00046	c3		 ret	 0
?__GetTestMethodInfo_ui512_01@ui512_stub_testing@ui512_Unit_Tests@@CAPEBUMemberMethodInfo@CppUnitTestFramework@VisualStudio@Microsoft@@XZ ENDP ; ui512_Unit_Tests::ui512_stub_testing::__GetTestMethodInfo_ui512_01
_TEXT	ENDS
; Function compile flags: /Odtp /RTCsu /ZI
;	COMDAT ??_G?$TestClass@Vui512_stub_testing@ui512_Unit_Tests@@@CppUnitTestFramework@VisualStudio@Microsoft@@UEAAPEAXI@Z
_TEXT	SEGMENT
this$ = 224
__flags$ = 232
??_G?$TestClass@Vui512_stub_testing@ui512_Unit_Tests@@@CppUnitTestFramework@VisualStudio@Microsoft@@UEAAPEAXI@Z PROC ; Microsoft::VisualStudio::CppUnitTestFramework::TestClass<ui512_Unit_Tests::ui512_stub_testing>::`scalar deleting destructor', COMDAT
$LN4:
  00000	89 54 24 10	 mov	 DWORD PTR [rsp+16], edx
  00004	48 89 4c 24 08	 mov	 QWORD PTR [rsp+8], rcx
  00009	55		 push	 rbp
  0000a	57		 push	 rdi
  0000b	48 81 ec e8 00
	00 00		 sub	 rsp, 232		; 000000e8H
  00012	48 8d 6c 24 20	 lea	 rbp, QWORD PTR [rsp+32]
  00017	48 8b 8d e0 00
	00 00		 mov	 rcx, QWORD PTR this$[rbp]
  0001e	e8 00 00 00 00	 call	 ??1?$TestClass@Vui512_stub_testing@ui512_Unit_Tests@@@CppUnitTestFramework@VisualStudio@Microsoft@@UEAA@XZ ; Microsoft::VisualStudio::CppUnitTestFramework::TestClass<ui512_Unit_Tests::ui512_stub_testing>::~TestClass<ui512_Unit_Tests::ui512_stub_testing>
  00023	90		 npad	 1
  00024	8b 85 e8 00 00
	00		 mov	 eax, DWORD PTR __flags$[rbp]
  0002a	83 e0 01	 and	 eax, 1
  0002d	85 c0		 test	 eax, eax
  0002f	74 12		 je	 SHORT $LN2@scalar
  00031	ba 08 00 00 00	 mov	 edx, 8
  00036	48 8b 8d e0 00
	00 00		 mov	 rcx, QWORD PTR this$[rbp]
  0003d	e8 00 00 00 00	 call	 ??3@YAXPEAX_K@Z		; operator delete
  00042	90		 npad	 1
$LN2@scalar:
  00043	48 8b 85 e0 00
	00 00		 mov	 rax, QWORD PTR this$[rbp]
  0004a	48 8d a5 c8 00
	00 00		 lea	 rsp, QWORD PTR [rbp+200]
  00051	5f		 pop	 rdi
  00052	5d		 pop	 rbp
  00053	c3		 ret	 0
??_G?$TestClass@Vui512_stub_testing@ui512_Unit_Tests@@@CppUnitTestFramework@VisualStudio@Microsoft@@UEAAPEAXI@Z ENDP ; Microsoft::VisualStudio::CppUnitTestFramework::TestClass<ui512_Unit_Tests::ui512_stub_testing>::`scalar deleting destructor'
_TEXT	ENDS
; Function compile flags: /Odtp /RTCsu /ZI
;	COMDAT ??0?$TestClass@Vui512_stub_testing@ui512_Unit_Tests@@@CppUnitTestFramework@VisualStudio@Microsoft@@QEAA@XZ
_TEXT	SEGMENT
this$ = 224
??0?$TestClass@Vui512_stub_testing@ui512_Unit_Tests@@@CppUnitTestFramework@VisualStudio@Microsoft@@QEAA@XZ PROC ; Microsoft::VisualStudio::CppUnitTestFramework::TestClass<ui512_Unit_Tests::ui512_stub_testing>::TestClass<ui512_Unit_Tests::ui512_stub_testing>, COMDAT
$LN4:
  00000	48 89 4c 24 08	 mov	 QWORD PTR [rsp+8], rcx
  00005	55		 push	 rbp
  00006	57		 push	 rdi
  00007	48 81 ec e8 00
	00 00		 sub	 rsp, 232		; 000000e8H
  0000e	48 8d 6c 24 20	 lea	 rbp, QWORD PTR [rsp+32]
  00013	48 8b 8d e0 00
	00 00		 mov	 rcx, QWORD PTR this$[rbp]
  0001a	e8 00 00 00 00	 call	 ??0TestClassImpl@CppUnitTestFramework@VisualStudio@Microsoft@@QEAA@XZ ; Microsoft::VisualStudio::CppUnitTestFramework::TestClassImpl::TestClassImpl
  0001f	90		 npad	 1
  00020	48 8b 85 e0 00
	00 00		 mov	 rax, QWORD PTR this$[rbp]
  00027	48 8d 0d 00 00
	00 00		 lea	 rcx, OFFSET FLAT:??_7?$TestClass@Vui512_stub_testing@ui512_Unit_Tests@@@CppUnitTestFramework@VisualStudio@Microsoft@@6B@
  0002e	48 89 08	 mov	 QWORD PTR [rax], rcx
  00031	48 8b 85 e0 00
	00 00		 mov	 rax, QWORD PTR this$[rbp]
  00038	48 8d a5 c8 00
	00 00		 lea	 rsp, QWORD PTR [rbp+200]
  0003f	5f		 pop	 rdi
  00040	5d		 pop	 rbp
  00041	c3		 ret	 0
??0?$TestClass@Vui512_stub_testing@ui512_Unit_Tests@@@CppUnitTestFramework@VisualStudio@Microsoft@@QEAA@XZ ENDP ; Microsoft::VisualStudio::CppUnitTestFramework::TestClass<ui512_Unit_Tests::ui512_stub_testing>::TestClass<ui512_Unit_Tests::ui512_stub_testing>
_TEXT	ENDS
; Function compile flags: /Odtp /RTCsu /ZI
; File C:\Program Files\Microsoft Visual Studio\18\Community\VC\Auxiliary\VS\UnitTest\include\CppUnitTest.h
;	COMDAT ?__GetTestVersion@?$TestClass@Vui512_stub_testing@ui512_Unit_Tests@@@CppUnitTestFramework@VisualStudio@Microsoft@@SAPEBUTestDataVersion@234@XZ
_TEXT	SEGMENT
?__GetTestVersion@?$TestClass@Vui512_stub_testing@ui512_Unit_Tests@@@CppUnitTestFramework@VisualStudio@Microsoft@@SAPEBUTestDataVersion@234@XZ PROC ; Microsoft::VisualStudio::CppUnitTestFramework::TestClass<ui512_Unit_Tests::ui512_stub_testing>::__GetTestVersion, COMDAT

; 489  : 		{

$LN3:
  00000	40 55		 push	 rbp
  00002	57		 push	 rdi
  00003	48 81 ec e8 00
	00 00		 sub	 rsp, 232		; 000000e8H
  0000a	48 8d 6c 24 20	 lea	 rbp, QWORD PTR [rsp+32]
  0000f	48 8d 0d 00 00
	00 00		 lea	 rcx, OFFSET FLAT:__A9AD3190_CppUnitTest@h
  00016	e8 00 00 00 00	 call	 __CheckForDebuggerJustMyCode
  0001b	90		 npad	 1

; 490  : 			ALLOCATE_TESTDATA_SECTION_VERSION
; 491  : 			static ::Microsoft::VisualStudio::CppUnitTestFramework::TestDataVersion s_version = { __CPPUNITTEST_VERSION__ };
; 492  : 
; 493  : 			return &s_version;

  0001c	48 8d 05 00 00
	00 00		 lea	 rax, OFFSET FLAT:?s_version@?1??__GetTestVersion@?$TestClass@Vui512_stub_testing@ui512_Unit_Tests@@@CppUnitTestFramework@VisualStudio@Microsoft@@SAPEBUTestDataVersion@345@XZ@4U6345@A ; `Microsoft::VisualStudio::CppUnitTestFramework::TestClass<ui512_Unit_Tests::ui512_stub_testing>::__GetTestVersion'::`2'::s_version

; 494  : 		}

  00023	48 8d a5 c8 00
	00 00		 lea	 rsp, QWORD PTR [rbp+200]
  0002a	5f		 pop	 rdi
  0002b	5d		 pop	 rbp
  0002c	c3		 ret	 0
?__GetTestVersion@?$TestClass@Vui512_stub_testing@ui512_Unit_Tests@@@CppUnitTestFramework@VisualStudio@Microsoft@@SAPEBUTestDataVersion@234@XZ ENDP ; Microsoft::VisualStudio::CppUnitTestFramework::TestClass<ui512_Unit_Tests::ui512_stub_testing>::__GetTestVersion
_TEXT	ENDS
; Function compile flags: /Odtp /RTCsu /ZI
; File C:\Program Files\Microsoft Visual Studio\18\Community\VC\Auxiliary\VS\UnitTest\include\CppUnitTest.h
;	COMDAT ?__GetTestClassInfo@?$TestClass@Vui512_stub_testing@ui512_Unit_Tests@@@CppUnitTestFramework@VisualStudio@Microsoft@@SAPEBUTestClassInfo@234@XZ
_TEXT	SEGMENT
?__GetTestClassInfo@?$TestClass@Vui512_stub_testing@ui512_Unit_Tests@@@CppUnitTestFramework@VisualStudio@Microsoft@@SAPEBUTestClassInfo@234@XZ PROC ; Microsoft::VisualStudio::CppUnitTestFramework::TestClass<ui512_Unit_Tests::ui512_stub_testing>::__GetTestClassInfo, COMDAT

; 480  : 		{

$LN3:
  00000	40 55		 push	 rbp
  00002	57		 push	 rdi
  00003	48 81 ec e8 00
	00 00		 sub	 rsp, 232		; 000000e8H
  0000a	48 8d 6c 24 20	 lea	 rbp, QWORD PTR [rsp+32]
  0000f	48 8d 0d 00 00
	00 00		 lea	 rcx, OFFSET FLAT:__A9AD3190_CppUnitTest@h
  00016	e8 00 00 00 00	 call	 __CheckForDebuggerJustMyCode
  0001b	90		 npad	 1

; 481  : 			ALLOCATE_TESTDATA_SECTION_CLASS
; 482  : 			static const ::Microsoft::VisualStudio::CppUnitTestFramework::ClassMetadata s_Metadata = {L"TestClassInfo", reinterpret_cast<const unsigned char*>(__FUNCTION__), reinterpret_cast<const unsigned char*>(__FUNCDNAME__)};
; 483  : 
; 484  : 			static const ::Microsoft::VisualStudio::CppUnitTestFramework::TestClassInfo s_Info = {&__New, &__Delete, &s_Metadata};
; 485  : 			return &s_Info;

  0001c	48 8d 05 00 00
	00 00		 lea	 rax, OFFSET FLAT:?s_Info@?1??__GetTestClassInfo@?$TestClass@Vui512_stub_testing@ui512_Unit_Tests@@@CppUnitTestFramework@VisualStudio@Microsoft@@SAPEBUTestClassInfo@345@XZ@4U6345@B ; `Microsoft::VisualStudio::CppUnitTestFramework::TestClass<ui512_Unit_Tests::ui512_stub_testing>::__GetTestClassInfo'::`2'::s_Info

; 486  : 		}

  00023	48 8d a5 c8 00
	00 00		 lea	 rsp, QWORD PTR [rbp+200]
  0002a	5f		 pop	 rdi
  0002b	5d		 pop	 rbp
  0002c	c3		 ret	 0
?__GetTestClassInfo@?$TestClass@Vui512_stub_testing@ui512_Unit_Tests@@@CppUnitTestFramework@VisualStudio@Microsoft@@SAPEBUTestClassInfo@234@XZ ENDP ; Microsoft::VisualStudio::CppUnitTestFramework::TestClass<ui512_Unit_Tests::ui512_stub_testing>::__GetTestClassInfo
_TEXT	ENDS
; Function compile flags: /Odtp /RTCsu /ZI
; File C:\Program Files\Microsoft Visual Studio\18\Community\VC\Auxiliary\VS\UnitTest\include\CppUnitTest.h
;	COMDAT ?__Invoke@?$TestClass@Vui512_stub_testing@ui512_Unit_Tests@@@CppUnitTestFramework@VisualStudio@Microsoft@@UEAAXP8TestClassImpl@234@EAAXXZ@Z
_TEXT	SEGMENT
method2$ = 8
setter$ = 40
__$ArrayPad$ = 280
this$ = 320
method$ = 328
?__Invoke@?$TestClass@Vui512_stub_testing@ui512_Unit_Tests@@@CppUnitTestFramework@VisualStudio@Microsoft@@UEAAXP8TestClassImpl@234@EAAXXZ@Z PROC ; Microsoft::VisualStudio::CppUnitTestFramework::TestClass<ui512_Unit_Tests::ui512_stub_testing>::__Invoke, COMDAT

; 471  : 		{

$LN4:
  00000	48 89 54 24 10	 mov	 QWORD PTR [rsp+16], rdx
  00005	48 89 4c 24 08	 mov	 QWORD PTR [rsp+8], rcx
  0000a	55		 push	 rbp
  0000b	57		 push	 rdi
  0000c	48 81 ec 48 01
	00 00		 sub	 rsp, 328		; 00000148H
  00013	48 8d 6c 24 20	 lea	 rbp, QWORD PTR [rsp+32]
  00018	48 8d 7c 24 20	 lea	 rdi, QWORD PTR [rsp+32]
  0001d	b9 1a 00 00 00	 mov	 ecx, 26
  00022	b8 cc cc cc cc	 mov	 eax, -858993460		; ccccccccH
  00027	f3 ab		 rep stosd
  00029	48 8b 8c 24 68
	01 00 00	 mov	 rcx, QWORD PTR [rsp+360]
  00031	48 8b 05 00 00
	00 00		 mov	 rax, QWORD PTR __security_cookie
  00038	48 33 c5	 xor	 rax, rbp
  0003b	48 89 85 18 01
	00 00		 mov	 QWORD PTR __$ArrayPad$[rbp], rax
  00042	48 8d 0d 00 00
	00 00		 lea	 rcx, OFFSET FLAT:__A9AD3190_CppUnitTest@h
  00049	e8 00 00 00 00	 call	 __CheckForDebuggerJustMyCode
  0004e	90		 npad	 1

; 472  : 			typedef void (ThisClass::*voidFunc2)();
; 473  : 			voidFunc2 method2 = static_cast<voidFunc2>(method);

  0004f	48 8b 85 48 01
	00 00		 mov	 rax, QWORD PTR method$[rbp]
  00056	48 89 45 08	 mov	 QWORD PTR method2$[rbp], rax

; 474  : 
; 475  :             CrtHandlersSetter setter;

  0005a	48 8d 4d 28	 lea	 rcx, QWORD PTR setter$[rbp]
  0005e	e8 00 00 00 00	 call	 ??0CrtHandlersSetter@TestClassImpl@CppUnitTestFramework@VisualStudio@Microsoft@@QEAA@XZ ; Microsoft::VisualStudio::CppUnitTestFramework::TestClassImpl::CrtHandlersSetter::CrtHandlersSetter
  00063	90		 npad	 1

; 476  : 			(static_cast<ThisClass *>(this)->*method2)();

  00064	48 8b 8d 40 01
	00 00		 mov	 rcx, QWORD PTR this$[rbp]
  0006b	ff 55 08	 call	 QWORD PTR method2$[rbp]
  0006e	90		 npad	 1

; 477  : 		}

  0006f	48 8d 4d 28	 lea	 rcx, QWORD PTR setter$[rbp]
  00073	e8 00 00 00 00	 call	 ??1CrtHandlersSetter@TestClassImpl@CppUnitTestFramework@VisualStudio@Microsoft@@QEAA@XZ ; Microsoft::VisualStudio::CppUnitTestFramework::TestClassImpl::CrtHandlersSetter::~CrtHandlersSetter
  00078	90		 npad	 1
  00079	48 8d 4d e0	 lea	 rcx, QWORD PTR [rbp-32]
  0007d	48 8d 15 00 00
	00 00		 lea	 rdx, OFFSET FLAT:?__Invoke@?$TestClass@Vui512_stub_testing@ui512_Unit_Tests@@@CppUnitTestFramework@VisualStudio@Microsoft@@UEAAXP8TestClassImpl@234@EAAXXZ@Z$rtcFrameData
  00084	e8 00 00 00 00	 call	 _RTC_CheckStackVars
  00089	48 8b 8d 18 01
	00 00		 mov	 rcx, QWORD PTR __$ArrayPad$[rbp]
  00090	48 33 cd	 xor	 rcx, rbp
  00093	e8 00 00 00 00	 call	 __security_check_cookie
  00098	48 8d a5 28 01
	00 00		 lea	 rsp, QWORD PTR [rbp+296]
  0009f	5f		 pop	 rdi
  000a0	5d		 pop	 rbp
  000a1	c3		 ret	 0
?__Invoke@?$TestClass@Vui512_stub_testing@ui512_Unit_Tests@@@CppUnitTestFramework@VisualStudio@Microsoft@@UEAAXP8TestClassImpl@234@EAAXXZ@Z ENDP ; Microsoft::VisualStudio::CppUnitTestFramework::TestClass<ui512_Unit_Tests::ui512_stub_testing>::__Invoke
_TEXT	ENDS
; Function compile flags: /Odtp /RTCsu /ZI
;	COMDAT text$x
text$x	SEGMENT
method2$ = 8
setter$ = 40
__$ArrayPad$ = 280
this$ = 320
method$ = 328
?dtor$0@?0??__Invoke@?$TestClass@Vui512_stub_testing@ui512_Unit_Tests@@@CppUnitTestFramework@VisualStudio@Microsoft@@UEAAXP8TestClassImpl@234@EAAXXZ@Z@4HA PROC ; `Microsoft::VisualStudio::CppUnitTestFramework::TestClass<ui512_Unit_Tests::ui512_stub_testing>::__Invoke'::`1'::dtor$0
  00000	48 89 4c 24 08	 mov	 QWORD PTR [rsp+8], rcx
  00005	48 89 54 24 10	 mov	 QWORD PTR [rsp+16], rdx
  0000a	55		 push	 rbp
  0000b	57		 push	 rdi
  0000c	48 83 ec 28	 sub	 rsp, 40			; 00000028H
  00010	48 8d 6a 20	 lea	 rbp, QWORD PTR [rdx+32]
  00014	48 8d 4d 28	 lea	 rcx, QWORD PTR setter$[rbp]
  00018	e8 00 00 00 00	 call	 ??1CrtHandlersSetter@TestClassImpl@CppUnitTestFramework@VisualStudio@Microsoft@@QEAA@XZ ; Microsoft::VisualStudio::CppUnitTestFramework::TestClassImpl::CrtHandlersSetter::~CrtHandlersSetter
  0001d	48 83 c4 28	 add	 rsp, 40			; 00000028H
  00021	5f		 pop	 rdi
  00022	5d		 pop	 rbp
  00023	c3		 ret	 0
?dtor$0@?0??__Invoke@?$TestClass@Vui512_stub_testing@ui512_Unit_Tests@@@CppUnitTestFramework@VisualStudio@Microsoft@@UEAAXP8TestClassImpl@234@EAAXXZ@Z@4HA ENDP ; `Microsoft::VisualStudio::CppUnitTestFramework::TestClass<ui512_Unit_Tests::ui512_stub_testing>::__Invoke'::`1'::dtor$0
text$x	ENDS
; Function compile flags: /Odtp /RTCsu /ZI
; File C:\Program Files\Microsoft Visual Studio\18\Community\VC\Auxiliary\VS\UnitTest\include\CppUnitTest.h
;	COMDAT ??1?$TestClass@Vui512_stub_testing@ui512_Unit_Tests@@@CppUnitTestFramework@VisualStudio@Microsoft@@UEAA@XZ
_TEXT	SEGMENT
this$ = 224
??1?$TestClass@Vui512_stub_testing@ui512_Unit_Tests@@@CppUnitTestFramework@VisualStudio@Microsoft@@UEAA@XZ PROC ; Microsoft::VisualStudio::CppUnitTestFramework::TestClass<ui512_Unit_Tests::ui512_stub_testing>::~TestClass<ui512_Unit_Tests::ui512_stub_testing>, COMDAT

; 464  : 		{

$LN4:
  00000	48 89 4c 24 08	 mov	 QWORD PTR [rsp+8], rcx
  00005	55		 push	 rbp
  00006	57		 push	 rdi
  00007	48 81 ec e8 00
	00 00		 sub	 rsp, 232		; 000000e8H
  0000e	48 8d 6c 24 20	 lea	 rbp, QWORD PTR [rsp+32]
  00013	48 8d 0d 00 00
	00 00		 lea	 rcx, OFFSET FLAT:__A9AD3190_CppUnitTest@h
  0001a	e8 00 00 00 00	 call	 __CheckForDebuggerJustMyCode
  0001f	90		 npad	 1
  00020	48 8b 85 e0 00
	00 00		 mov	 rax, QWORD PTR this$[rbp]
  00027	48 8d 0d 00 00
	00 00		 lea	 rcx, OFFSET FLAT:??_7?$TestClass@Vui512_stub_testing@ui512_Unit_Tests@@@CppUnitTestFramework@VisualStudio@Microsoft@@6B@
  0002e	48 89 08	 mov	 QWORD PTR [rax], rcx

; 465  : 		}

  00031	48 8b 8d e0 00
	00 00		 mov	 rcx, QWORD PTR this$[rbp]
  00038	e8 00 00 00 00	 call	 ??1TestClassImpl@CppUnitTestFramework@VisualStudio@Microsoft@@UEAA@XZ ; Microsoft::VisualStudio::CppUnitTestFramework::TestClassImpl::~TestClassImpl
  0003d	90		 npad	 1
  0003e	48 8d a5 c8 00
	00 00		 lea	 rsp, QWORD PTR [rbp+200]
  00045	5f		 pop	 rdi
  00046	5d		 pop	 rbp
  00047	c3		 ret	 0
??1?$TestClass@Vui512_stub_testing@ui512_Unit_Tests@@@CppUnitTestFramework@VisualStudio@Microsoft@@UEAA@XZ ENDP ; Microsoft::VisualStudio::CppUnitTestFramework::TestClass<ui512_Unit_Tests::ui512_stub_testing>::~TestClass<ui512_Unit_Tests::ui512_stub_testing>
_TEXT	ENDS
; Function compile flags: /Odtp /RTCsu /ZI
; File C:\Program Files\Microsoft Visual Studio\18\Community\VC\Auxiliary\VS\UnitTest\include\CppUnitTest.h
;	COMDAT ?__Delete@?$TestClass@Vui512_stub_testing@ui512_Unit_Tests@@@CppUnitTestFramework@VisualStudio@Microsoft@@SAXPEAVTestClassImpl@234@@Z
_TEXT	SEGMENT
setter$ = 8
$T4 = 264
tv74 = 280
tv75 = 288
__$ArrayPad$ = 296
p$ = 336
?__Delete@?$TestClass@Vui512_stub_testing@ui512_Unit_Tests@@@CppUnitTestFramework@VisualStudio@Microsoft@@SAXPEAVTestClassImpl@234@@Z PROC ; Microsoft::VisualStudio::CppUnitTestFramework::TestClass<ui512_Unit_Tests::ui512_stub_testing>::__Delete, COMDAT

; 453  : 		{

$LN6:
  00000	48 89 4c 24 08	 mov	 QWORD PTR [rsp+8], rcx
  00005	55		 push	 rbp
  00006	57		 push	 rdi
  00007	48 81 ec 58 01
	00 00		 sub	 rsp, 344		; 00000158H
  0000e	48 8d 6c 24 20	 lea	 rbp, QWORD PTR [rsp+32]
  00013	48 8d 7c 24 20	 lea	 rdi, QWORD PTR [rsp+32]
  00018	b9 1e 00 00 00	 mov	 ecx, 30
  0001d	b8 cc cc cc cc	 mov	 eax, -858993460		; ccccccccH
  00022	f3 ab		 rep stosd
  00024	48 8b 8c 24 78
	01 00 00	 mov	 rcx, QWORD PTR [rsp+376]
  0002c	48 8b 05 00 00
	00 00		 mov	 rax, QWORD PTR __security_cookie
  00033	48 33 c5	 xor	 rax, rbp
  00036	48 89 85 28 01
	00 00		 mov	 QWORD PTR __$ArrayPad$[rbp], rax
  0003d	48 8d 0d 00 00
	00 00		 lea	 rcx, OFFSET FLAT:__A9AD3190_CppUnitTest@h
  00044	e8 00 00 00 00	 call	 __CheckForDebuggerJustMyCode
  00049	90		 npad	 1

; 454  :             CrtHandlersSetter setter;

  0004a	48 8d 4d 08	 lea	 rcx, QWORD PTR setter$[rbp]
  0004e	e8 00 00 00 00	 call	 ??0CrtHandlersSetter@TestClassImpl@CppUnitTestFramework@VisualStudio@Microsoft@@QEAA@XZ ; Microsoft::VisualStudio::CppUnitTestFramework::TestClassImpl::CrtHandlersSetter::CrtHandlersSetter
  00053	90		 npad	 1

; 455  : 			delete p;

  00054	48 8b 85 50 01
	00 00		 mov	 rax, QWORD PTR p$[rbp]
  0005b	48 89 85 08 01
	00 00		 mov	 QWORD PTR $T4[rbp], rax
  00062	48 83 bd 08 01
	00 00 00	 cmp	 QWORD PTR $T4[rbp], 0
  0006a	74 2f		 je	 SHORT $LN3@Delete
  0006c	48 8b 85 08 01
	00 00		 mov	 rax, QWORD PTR $T4[rbp]
  00073	48 8b 00	 mov	 rax, QWORD PTR [rax]
  00076	48 8b 00	 mov	 rax, QWORD PTR [rax]
  00079	48 89 85 18 01
	00 00		 mov	 QWORD PTR tv74[rbp], rax
  00080	ba 01 00 00 00	 mov	 edx, 1
  00085	48 8b 8d 08 01
	00 00		 mov	 rcx, QWORD PTR $T4[rbp]
  0008c	ff 95 18 01 00
	00		 call	 QWORD PTR tv74[rbp]
  00092	48 89 85 20 01
	00 00		 mov	 QWORD PTR tv75[rbp], rax
  00099	eb 0b		 jmp	 SHORT $LN4@Delete
$LN3@Delete:
  0009b	48 c7 85 20 01
	00 00 00 00 00
	00		 mov	 QWORD PTR tv75[rbp], 0
$LN4@Delete:

; 456  : 		}

  000a6	48 8d 4d 08	 lea	 rcx, QWORD PTR setter$[rbp]
  000aa	e8 00 00 00 00	 call	 ??1CrtHandlersSetter@TestClassImpl@CppUnitTestFramework@VisualStudio@Microsoft@@QEAA@XZ ; Microsoft::VisualStudio::CppUnitTestFramework::TestClassImpl::CrtHandlersSetter::~CrtHandlersSetter
  000af	90		 npad	 1
  000b0	48 8d 4d e0	 lea	 rcx, QWORD PTR [rbp-32]
  000b4	48 8d 15 00 00
	00 00		 lea	 rdx, OFFSET FLAT:?__Delete@?$TestClass@Vui512_stub_testing@ui512_Unit_Tests@@@CppUnitTestFramework@VisualStudio@Microsoft@@SAXPEAVTestClassImpl@234@@Z$rtcFrameData
  000bb	e8 00 00 00 00	 call	 _RTC_CheckStackVars
  000c0	48 8b 8d 28 01
	00 00		 mov	 rcx, QWORD PTR __$ArrayPad$[rbp]
  000c7	48 33 cd	 xor	 rcx, rbp
  000ca	e8 00 00 00 00	 call	 __security_check_cookie
  000cf	48 8d a5 38 01
	00 00		 lea	 rsp, QWORD PTR [rbp+312]
  000d6	5f		 pop	 rdi
  000d7	5d		 pop	 rbp
  000d8	c3		 ret	 0
?__Delete@?$TestClass@Vui512_stub_testing@ui512_Unit_Tests@@@CppUnitTestFramework@VisualStudio@Microsoft@@SAXPEAVTestClassImpl@234@@Z ENDP ; Microsoft::VisualStudio::CppUnitTestFramework::TestClass<ui512_Unit_Tests::ui512_stub_testing>::__Delete
_TEXT	ENDS
; Function compile flags: /Odtp /RTCsu /ZI
;	COMDAT text$x
text$x	SEGMENT
setter$ = 8
$T4 = 264
tv74 = 280
tv75 = 288
__$ArrayPad$ = 296
p$ = 336
?dtor$0@?0??__Delete@?$TestClass@Vui512_stub_testing@ui512_Unit_Tests@@@CppUnitTestFramework@VisualStudio@Microsoft@@SAXPEAVTestClassImpl@234@@Z@4HA PROC ; `Microsoft::VisualStudio::CppUnitTestFramework::TestClass<ui512_Unit_Tests::ui512_stub_testing>::__Delete'::`1'::dtor$0
  00000	48 89 4c 24 08	 mov	 QWORD PTR [rsp+8], rcx
  00005	48 89 54 24 10	 mov	 QWORD PTR [rsp+16], rdx
  0000a	55		 push	 rbp
  0000b	57		 push	 rdi
  0000c	48 83 ec 28	 sub	 rsp, 40			; 00000028H
  00010	48 8d 6a 20	 lea	 rbp, QWORD PTR [rdx+32]
  00014	48 8d 4d 08	 lea	 rcx, QWORD PTR setter$[rbp]
  00018	e8 00 00 00 00	 call	 ??1CrtHandlersSetter@TestClassImpl@CppUnitTestFramework@VisualStudio@Microsoft@@QEAA@XZ ; Microsoft::VisualStudio::CppUnitTestFramework::TestClassImpl::CrtHandlersSetter::~CrtHandlersSetter
  0001d	48 83 c4 28	 add	 rsp, 40			; 00000028H
  00021	5f		 pop	 rdi
  00022	5d		 pop	 rbp
  00023	c3		 ret	 0
?dtor$0@?0??__Delete@?$TestClass@Vui512_stub_testing@ui512_Unit_Tests@@@CppUnitTestFramework@VisualStudio@Microsoft@@SAXPEAVTestClassImpl@234@@Z@4HA ENDP ; `Microsoft::VisualStudio::CppUnitTestFramework::TestClass<ui512_Unit_Tests::ui512_stub_testing>::__Delete'::`1'::dtor$0
text$x	ENDS
; Function compile flags: /Odtp /RTCsu /ZI
; File C:\Program Files\Microsoft Visual Studio\18\Community\VC\Auxiliary\VS\UnitTest\include\CppUnitTest.h
;	COMDAT ?__New@?$TestClass@Vui512_stub_testing@ui512_Unit_Tests@@@CppUnitTestFramework@VisualStudio@Microsoft@@SAPEAVTestClassImpl@234@XZ
_TEXT	SEGMENT
setter$ = 8
$T4 = 264
$T5 = 296
$T6 = 328
tv79 = 344
__$ArrayPad$ = 352
?__New@?$TestClass@Vui512_stub_testing@ui512_Unit_Tests@@@CppUnitTestFramework@VisualStudio@Microsoft@@SAPEAVTestClassImpl@234@XZ PROC ; Microsoft::VisualStudio::CppUnitTestFramework::TestClass<ui512_Unit_Tests::ui512_stub_testing>::__New, COMDAT

; 447  : 		{

$LN7:
  00000	40 55		 push	 rbp
  00002	57		 push	 rdi
  00003	48 81 ec 98 01
	00 00		 sub	 rsp, 408		; 00000198H
  0000a	48 8d 6c 24 20	 lea	 rbp, QWORD PTR [rsp+32]
  0000f	48 8d 7c 24 20	 lea	 rdi, QWORD PTR [rsp+32]
  00014	b9 2e 00 00 00	 mov	 ecx, 46			; 0000002eH
  00019	b8 cc cc cc cc	 mov	 eax, -858993460		; ccccccccH
  0001e	f3 ab		 rep stosd
  00020	48 8b 05 00 00
	00 00		 mov	 rax, QWORD PTR __security_cookie
  00027	48 33 c5	 xor	 rax, rbp
  0002a	48 89 85 60 01
	00 00		 mov	 QWORD PTR __$ArrayPad$[rbp], rax
  00031	48 8d 0d 00 00
	00 00		 lea	 rcx, OFFSET FLAT:__A9AD3190_CppUnitTest@h
  00038	e8 00 00 00 00	 call	 __CheckForDebuggerJustMyCode
  0003d	90		 npad	 1

; 448  :             CrtHandlersSetter setter;

  0003e	48 8d 4d 08	 lea	 rcx, QWORD PTR setter$[rbp]
  00042	e8 00 00 00 00	 call	 ??0CrtHandlersSetter@TestClassImpl@CppUnitTestFramework@VisualStudio@Microsoft@@QEAA@XZ ; Microsoft::VisualStudio::CppUnitTestFramework::TestClassImpl::CrtHandlersSetter::CrtHandlersSetter
  00047	90		 npad	 1

; 449  : 			return new T();

  00048	b9 08 00 00 00	 mov	 ecx, 8
  0004d	e8 00 00 00 00	 call	 ??2@YAPEAX_K@Z		; operator new
  00052	48 89 85 48 01
	00 00		 mov	 QWORD PTR $T6[rbp], rax
  00059	48 83 bd 48 01
	00 00 00	 cmp	 QWORD PTR $T6[rbp], 0
  00061	74 25		 je	 SHORT $LN3@New
  00063	48 8b bd 48 01
	00 00		 mov	 rdi, QWORD PTR $T6[rbp]
  0006a	33 c0		 xor	 eax, eax
  0006c	b9 08 00 00 00	 mov	 ecx, 8
  00071	f3 aa		 rep stosb
  00073	48 8b 8d 48 01
	00 00		 mov	 rcx, QWORD PTR $T6[rbp]
  0007a	e8 00 00 00 00	 call	 ??0ui512_stub_testing@ui512_Unit_Tests@@QEAA@XZ
  0007f	48 89 85 58 01
	00 00		 mov	 QWORD PTR tv79[rbp], rax
  00086	eb 0b		 jmp	 SHORT $LN4@New
$LN3@New:
  00088	48 c7 85 58 01
	00 00 00 00 00
	00		 mov	 QWORD PTR tv79[rbp], 0
$LN4@New:
  00093	48 8b 85 58 01
	00 00		 mov	 rax, QWORD PTR tv79[rbp]
  0009a	48 89 85 28 01
	00 00		 mov	 QWORD PTR $T5[rbp], rax
  000a1	48 8b 85 28 01
	00 00		 mov	 rax, QWORD PTR $T5[rbp]
  000a8	48 89 85 08 01
	00 00		 mov	 QWORD PTR $T4[rbp], rax
  000af	48 8d 4d 08	 lea	 rcx, QWORD PTR setter$[rbp]
  000b3	e8 00 00 00 00	 call	 ??1CrtHandlersSetter@TestClassImpl@CppUnitTestFramework@VisualStudio@Microsoft@@QEAA@XZ ; Microsoft::VisualStudio::CppUnitTestFramework::TestClassImpl::CrtHandlersSetter::~CrtHandlersSetter
  000b8	48 8b 85 08 01
	00 00		 mov	 rax, QWORD PTR $T4[rbp]

; 450  : 		}

  000bf	48 8b f8	 mov	 rdi, rax
  000c2	48 8d 4d e0	 lea	 rcx, QWORD PTR [rbp-32]
  000c6	48 8d 15 00 00
	00 00		 lea	 rdx, OFFSET FLAT:?__New@?$TestClass@Vui512_stub_testing@ui512_Unit_Tests@@@CppUnitTestFramework@VisualStudio@Microsoft@@SAPEAVTestClassImpl@234@XZ$rtcFrameData
  000cd	e8 00 00 00 00	 call	 _RTC_CheckStackVars
  000d2	48 8b c7	 mov	 rax, rdi
  000d5	48 8b 8d 60 01
	00 00		 mov	 rcx, QWORD PTR __$ArrayPad$[rbp]
  000dc	48 33 cd	 xor	 rcx, rbp
  000df	e8 00 00 00 00	 call	 __security_check_cookie
  000e4	48 8d a5 78 01
	00 00		 lea	 rsp, QWORD PTR [rbp+376]
  000eb	5f		 pop	 rdi
  000ec	5d		 pop	 rbp
  000ed	c3		 ret	 0
?__New@?$TestClass@Vui512_stub_testing@ui512_Unit_Tests@@@CppUnitTestFramework@VisualStudio@Microsoft@@SAPEAVTestClassImpl@234@XZ ENDP ; Microsoft::VisualStudio::CppUnitTestFramework::TestClass<ui512_Unit_Tests::ui512_stub_testing>::__New
_TEXT	ENDS
; Function compile flags: /Odtp /RTCsu /ZI
;	COMDAT text$x
text$x	SEGMENT
setter$ = 8
$T4 = 264
$T5 = 296
$T6 = 328
tv79 = 344
__$ArrayPad$ = 352
?dtor$0@?0??__New@?$TestClass@Vui512_stub_testing@ui512_Unit_Tests@@@CppUnitTestFramework@VisualStudio@Microsoft@@SAPEAVTestClassImpl@234@XZ@4HA PROC ; `Microsoft::VisualStudio::CppUnitTestFramework::TestClass<ui512_Unit_Tests::ui512_stub_testing>::__New'::`1'::dtor$0
  00000	48 89 4c 24 08	 mov	 QWORD PTR [rsp+8], rcx
  00005	48 89 54 24 10	 mov	 QWORD PTR [rsp+16], rdx
  0000a	55		 push	 rbp
  0000b	57		 push	 rdi
  0000c	48 83 ec 28	 sub	 rsp, 40			; 00000028H
  00010	48 8d 6a 20	 lea	 rbp, QWORD PTR [rdx+32]
  00014	48 8d 4d 08	 lea	 rcx, QWORD PTR setter$[rbp]
  00018	e8 00 00 00 00	 call	 ??1CrtHandlersSetter@TestClassImpl@CppUnitTestFramework@VisualStudio@Microsoft@@QEAA@XZ ; Microsoft::VisualStudio::CppUnitTestFramework::TestClassImpl::CrtHandlersSetter::~CrtHandlersSetter
  0001d	48 83 c4 28	 add	 rsp, 40			; 00000028H
  00021	5f		 pop	 rdi
  00022	5d		 pop	 rbp
  00023	c3		 ret	 0
?dtor$0@?0??__New@?$TestClass@Vui512_stub_testing@ui512_Unit_Tests@@@CppUnitTestFramework@VisualStudio@Microsoft@@SAPEAVTestClassImpl@234@XZ@4HA ENDP ; `Microsoft::VisualStudio::CppUnitTestFramework::TestClass<ui512_Unit_Tests::ui512_stub_testing>::__New'::`1'::dtor$0
text$x	ENDS
; Function compile flags: /Odtp /RTCsu /ZI
;	COMDAT text$x
text$x	SEGMENT
setter$ = 8
$T4 = 264
$T5 = 296
$T6 = 328
tv79 = 344
__$ArrayPad$ = 352
?dtor$1@?0??__New@?$TestClass@Vui512_stub_testing@ui512_Unit_Tests@@@CppUnitTestFramework@VisualStudio@Microsoft@@SAPEAVTestClassImpl@234@XZ@4HA PROC ; `Microsoft::VisualStudio::CppUnitTestFramework::TestClass<ui512_Unit_Tests::ui512_stub_testing>::__New'::`1'::dtor$1
  00000	48 89 4c 24 08	 mov	 QWORD PTR [rsp+8], rcx
  00005	48 89 54 24 10	 mov	 QWORD PTR [rsp+16], rdx
  0000a	55		 push	 rbp
  0000b	57		 push	 rdi
  0000c	48 83 ec 28	 sub	 rsp, 40			; 00000028H
  00010	48 8d 6a 20	 lea	 rbp, QWORD PTR [rdx+32]
  00014	ba 08 00 00 00	 mov	 edx, 8
  00019	48 8b 8d 48 01
	00 00		 mov	 rcx, QWORD PTR $T6[rbp]
  00020	e8 00 00 00 00	 call	 ??3@YAXPEAX_K@Z		; operator delete
  00025	48 83 c4 28	 add	 rsp, 40			; 00000028H
  00029	5f		 pop	 rdi
  0002a	5d		 pop	 rbp
  0002b	c3		 ret	 0
?dtor$1@?0??__New@?$TestClass@Vui512_stub_testing@ui512_Unit_Tests@@@CppUnitTestFramework@VisualStudio@Microsoft@@SAPEAVTestClassImpl@234@XZ@4HA ENDP ; `Microsoft::VisualStudio::CppUnitTestFramework::TestClass<ui512_Unit_Tests::ui512_stub_testing>::__New'::`1'::dtor$1
text$x	ENDS
; Function compile flags: /Odtp /RTCsu /ZI
; File C:\Program Files\Microsoft Visual Studio\18\Community\VC\Tools\MSVC\14.50.35717\include\xstring
;	COMDAT ??$?HDU?$char_traits@D@std@@V?$allocator@D@1@@std@@YA?AV?$basic_string@DU?$char_traits@D@std@@V?$allocator@D@2@@0@$$QEAV10@QEBD@Z
_TEXT	SEGMENT
$T1 = 196
__$ReturnUdt$ = 256
_Left$ = 264
_Right$ = 272
??$?HDU?$char_traits@D@std@@V?$allocator@D@1@@std@@YA?AV?$basic_string@DU?$char_traits@D@std@@V?$allocator@D@2@@0@$$QEAV10@QEBD@Z PROC ; std::operator+<char,std::char_traits<char>,std::allocator<char> >, COMDAT

; 3333 :     basic_string<_Elem, _Traits, _Alloc>&& _Left, _In_z_ const _Elem* const _Right) {

$LN5:
  00000	4c 89 44 24 18	 mov	 QWORD PTR [rsp+24], r8
  00005	48 89 54 24 10	 mov	 QWORD PTR [rsp+16], rdx
  0000a	48 89 4c 24 08	 mov	 QWORD PTR [rsp+8], rcx
  0000f	55		 push	 rbp
  00010	57		 push	 rdi
  00011	48 81 ec 08 01
	00 00		 sub	 rsp, 264		; 00000108H
  00018	48 8d 6c 24 20	 lea	 rbp, QWORD PTR [rsp+32]
  0001d	c7 85 c4 00 00
	00 00 00 00 00	 mov	 DWORD PTR $T1[rbp], 0
  00027	48 8d 0d 00 00
	00 00		 lea	 rcx, OFFSET FLAT:__C0C4C773_xstring
  0002e	e8 00 00 00 00	 call	 __CheckForDebuggerJustMyCode
  00033	90		 npad	 1

; 3334 :     return _STD move(_Left.append(_Right));

  00034	48 8b 95 10 01
	00 00		 mov	 rdx, QWORD PTR _Right$[rbp]
  0003b	48 8b 8d 08 01
	00 00		 mov	 rcx, QWORD PTR _Left$[rbp]
  00042	e8 00 00 00 00	 call	 ?append@?$basic_string@DU?$char_traits@D@std@@V?$allocator@D@2@@std@@QEAAAEAV12@QEBD@Z ; std::basic_string<char,std::char_traits<char>,std::allocator<char> >::append
  00047	48 8b d0	 mov	 rdx, rax
  0004a	48 8b 8d 00 01
	00 00		 mov	 rcx, QWORD PTR __$ReturnUdt$[rbp]
  00051	e8 00 00 00 00	 call	 ??0?$basic_string@DU?$char_traits@D@std@@V?$allocator@D@2@@std@@QEAA@$$QEAV01@@Z ; std::basic_string<char,std::char_traits<char>,std::allocator<char> >::basic_string<char,std::char_traits<char>,std::allocator<char> >
  00056	8b 85 c4 00 00
	00		 mov	 eax, DWORD PTR $T1[rbp]
  0005c	83 c8 01	 or	 eax, 1
  0005f	89 85 c4 00 00
	00		 mov	 DWORD PTR $T1[rbp], eax
  00065	48 8b 85 00 01
	00 00		 mov	 rax, QWORD PTR __$ReturnUdt$[rbp]

; 3335 : }

  0006c	48 8d a5 e8 00
	00 00		 lea	 rsp, QWORD PTR [rbp+232]
  00073	5f		 pop	 rdi
  00074	5d		 pop	 rbp
  00075	c3		 ret	 0
??$?HDU?$char_traits@D@std@@V?$allocator@D@1@@std@@YA?AV?$basic_string@DU?$char_traits@D@std@@V?$allocator@D@2@@0@$$QEAV10@QEBD@Z ENDP ; std::operator+<char,std::char_traits<char>,std::allocator<char> >
_TEXT	ENDS
; Function compile flags: /Odtp /RTCsu /ZI
; File C:\Program Files\Microsoft Visual Studio\18\Community\VC\Tools\MSVC\14.50.35717\include\utility
;	COMDAT ??$max@_K@std@@YAAEB_KAEB_K0@Z
_TEXT	SEGMENT
$T1 = 200
tv65 = 216
_Left$ = 256
_Right$ = 264
??$max@_K@std@@YAAEB_KAEB_K0@Z PROC			; std::max<unsigned __int64>, COMDAT

; 75   :         noexcept(noexcept(_Left < _Right)) /* strengthened */ {

$LN6:
  00000	48 89 54 24 10	 mov	 QWORD PTR [rsp+16], rdx
  00005	48 89 4c 24 08	 mov	 QWORD PTR [rsp+8], rcx
  0000a	55		 push	 rbp
  0000b	57		 push	 rdi
  0000c	48 81 ec 08 01
	00 00		 sub	 rsp, 264		; 00000108H
  00013	48 8d 6c 24 20	 lea	 rbp, QWORD PTR [rsp+32]
  00018	48 8d 0d 00 00
	00 00		 lea	 rcx, OFFSET FLAT:__DE82222C_utility
  0001f	e8 00 00 00 00	 call	 __CheckForDebuggerJustMyCode
  00024	90		 npad	 1

; 76   :     // return larger of _Left and _Right
; 77   :     return _Left < _Right ? _Right : _Left;

  00025	48 8b 85 00 01
	00 00		 mov	 rax, QWORD PTR _Left$[rbp]
  0002c	48 8b 8d 08 01
	00 00		 mov	 rcx, QWORD PTR _Right$[rbp]
  00033	48 8b 09	 mov	 rcx, QWORD PTR [rcx]
  00036	48 39 08	 cmp	 QWORD PTR [rax], rcx
  00039	73 10		 jae	 SHORT $LN3@max
  0003b	48 8b 85 08 01
	00 00		 mov	 rax, QWORD PTR _Right$[rbp]
  00042	48 89 85 d8 00
	00 00		 mov	 QWORD PTR tv65[rbp], rax
  00049	eb 0e		 jmp	 SHORT $LN4@max
$LN3@max:
  0004b	48 8b 85 00 01
	00 00		 mov	 rax, QWORD PTR _Left$[rbp]
  00052	48 89 85 d8 00
	00 00		 mov	 QWORD PTR tv65[rbp], rax
$LN4@max:
  00059	48 8b 85 d8 00
	00 00		 mov	 rax, QWORD PTR tv65[rbp]
  00060	48 89 85 c8 00
	00 00		 mov	 QWORD PTR $T1[rbp], rax
  00067	48 8b 85 c8 00
	00 00		 mov	 rax, QWORD PTR $T1[rbp]

; 78   : }

  0006e	48 8d a5 e8 00
	00 00		 lea	 rsp, QWORD PTR [rbp+232]
  00075	5f		 pop	 rdi
  00076	5d		 pop	 rbp
  00077	c3		 ret	 0
??$max@_K@std@@YAAEB_KAEB_K0@Z ENDP			; std::max<unsigned __int64>
_TEXT	ENDS
; Function compile flags: /Odtp /RTCsu /ZI
; File C:\Program Files\Microsoft Visual Studio\18\Community\VC\Tools\MSVC\14.50.35717\include\xloctime
;	COMDAT ??$_Getvals@_W@?$time_get@_WV?$istreambuf_iterator@_WU?$char_traits@_W@std@@@std@@@std@@IEAAX_WAEBV_Locinfo@1@@Z
_TEXT	SEGMENT
$T1 = 200
this$ = 304
__formal$ = 312
_Lobj$ = 320
??$_Getvals@_W@?$time_get@_WV?$istreambuf_iterator@_WU?$char_traits@_W@std@@@std@@@std@@IEAAX_WAEBV_Locinfo@1@@Z PROC ; std::time_get<wchar_t,std::istreambuf_iterator<wchar_t,std::char_traits<wchar_t> > >::_Getvals<wchar_t>, COMDAT

; 238  :     void __CLR_OR_THIS_CALL _Getvals(_Elem2, const _Locinfo& _Lobj) { // get values

$LN3:
  00000	4c 89 44 24 18	 mov	 QWORD PTR [rsp+24], r8
  00005	66 89 54 24 10	 mov	 WORD PTR [rsp+16], dx
  0000a	48 89 4c 24 08	 mov	 QWORD PTR [rsp+8], rcx
  0000f	55		 push	 rbp
  00010	56		 push	 rsi
  00011	57		 push	 rdi
  00012	48 81 ec 30 01
	00 00		 sub	 rsp, 304		; 00000130H
  00019	48 8d 6c 24 20	 lea	 rbp, QWORD PTR [rsp+32]
  0001e	48 8d 0d 00 00
	00 00		 lea	 rcx, OFFSET FLAT:__0CC0A096_xloctime
  00025	e8 00 00 00 00	 call	 __CheckForDebuggerJustMyCode
  0002a	90		 npad	 1

; 239  :         _Cvt = _Lobj._Getcvt();

  0002b	48 8d 95 c8 00
	00 00		 lea	 rdx, QWORD PTR $T1[rbp]
  00032	48 8b 8d 40 01
	00 00		 mov	 rcx, QWORD PTR _Lobj$[rbp]
  00039	ff 15 00 00 00
	00		 call	 QWORD PTR __imp_?_Getcvt@_Locinfo@std@@QEBA?AU_Cvtvec@@XZ
  0003f	48 8b 8d 30 01
	00 00		 mov	 rcx, QWORD PTR this$[rbp]
  00046	48 8d 79 2c	 lea	 rdi, QWORD PTR [rcx+44]
  0004a	48 8b f0	 mov	 rsi, rax
  0004d	b9 2c 00 00 00	 mov	 ecx, 44			; 0000002cH
  00052	f3 a4		 rep movsb

; 240  : 
; 241  :         if constexpr (is_same_v<_Elem2, wchar_t>) {
; 242  :             _Days = reinterpret_cast<const _Elem*>(_Maklocwcs(reinterpret_cast<const wchar_t*>(_Lobj._W_Getdays())));

  00054	48 8b 8d 40 01
	00 00		 mov	 rcx, QWORD PTR _Lobj$[rbp]
  0005b	ff 15 00 00 00
	00		 call	 QWORD PTR __imp_?_W_Getdays@_Locinfo@std@@QEBAPEBGXZ
  00061	48 8b c8	 mov	 rcx, rax
  00064	e8 00 00 00 00	 call	 ?_Maklocwcs@std@@YAPEA_WPEB_W@Z ; std::_Maklocwcs
  00069	48 8b 8d 30 01
	00 00		 mov	 rcx, QWORD PTR this$[rbp]
  00070	48 89 41 10	 mov	 QWORD PTR [rcx+16], rax

; 243  :             _Months =

  00074	48 8b 8d 40 01
	00 00		 mov	 rcx, QWORD PTR _Lobj$[rbp]
  0007b	ff 15 00 00 00
	00		 call	 QWORD PTR __imp_?_W_Getmonths@_Locinfo@std@@QEBAPEBGXZ
  00081	48 8b c8	 mov	 rcx, rax
  00084	e8 00 00 00 00	 call	 ?_Maklocwcs@std@@YAPEA_WPEB_W@Z ; std::_Maklocwcs
  00089	48 8b 8d 30 01
	00 00		 mov	 rcx, QWORD PTR this$[rbp]
  00090	48 89 41 18	 mov	 QWORD PTR [rcx+24], rax

; 244  :                 reinterpret_cast<const _Elem*>(_Maklocwcs(reinterpret_cast<const wchar_t*>(_Lobj._W_Getmonths())));
; 245  :             _Ampm = reinterpret_cast<const _Elem*>(_Maklocwcs(L":AM:am:PM:pm"));

  00094	48 8d 0d 00 00
	00 00		 lea	 rcx, OFFSET FLAT:??_C@_1BK@MHIKGOKE@?$AA?3?$AAA?$AAM?$AA?3?$AAa?$AAm?$AA?3?$AAP?$AAM?$AA?3?$AAp?$AAm@
  0009b	e8 00 00 00 00	 call	 ?_Maklocwcs@std@@YAPEA_WPEB_W@Z ; std::_Maklocwcs
  000a0	48 8b 8d 30 01
	00 00		 mov	 rcx, QWORD PTR this$[rbp]
  000a7	48 89 41 20	 mov	 QWORD PTR [rcx+32], rax

; 246  :         } else {
; 247  :             _Days   = _Maklocstr(_Lobj._Getdays(), static_cast<_Elem*>(nullptr), _Cvt);
; 248  :             _Months = _Maklocstr(_Lobj._Getmonths(), static_cast<_Elem*>(nullptr), _Cvt);
; 249  :             _Ampm   = _Maklocstr(":AM:am:PM:pm", static_cast<_Elem*>(nullptr), _Cvt);
; 250  :         }
; 251  :     }

  000ab	48 8d a5 10 01
	00 00		 lea	 rsp, QWORD PTR [rbp+272]
  000b2	5f		 pop	 rdi
  000b3	5e		 pop	 rsi
  000b4	5d		 pop	 rbp
  000b5	c3		 ret	 0
??$_Getvals@_W@?$time_get@_WV?$istreambuf_iterator@_WU?$char_traits@_W@std@@@std@@@std@@IEAAX_WAEBV_Locinfo@1@@Z ENDP ; std::time_get<wchar_t,std::istreambuf_iterator<wchar_t,std::char_traits<wchar_t> > >::_Getvals<wchar_t>
_TEXT	ENDS
; Function compile flags: /Odtp /RTCsu /ZI
; File C:\Program Files\Microsoft Visual Studio\18\Community\VC\Tools\MSVC\14.50.35717\include\xloctime
;	COMDAT ??$_Getvals@_W@?$time_get@DV?$istreambuf_iterator@DU?$char_traits@D@std@@@std@@@std@@IEAAX_WAEBV_Locinfo@1@@Z
_TEXT	SEGMENT
$T1 = 200
this$ = 304
__formal$ = 312
_Lobj$ = 320
??$_Getvals@_W@?$time_get@DV?$istreambuf_iterator@DU?$char_traits@D@std@@@std@@@std@@IEAAX_WAEBV_Locinfo@1@@Z PROC ; std::time_get<char,std::istreambuf_iterator<char,std::char_traits<char> > >::_Getvals<wchar_t>, COMDAT

; 238  :     void __CLR_OR_THIS_CALL _Getvals(_Elem2, const _Locinfo& _Lobj) { // get values

$LN3:
  00000	4c 89 44 24 18	 mov	 QWORD PTR [rsp+24], r8
  00005	66 89 54 24 10	 mov	 WORD PTR [rsp+16], dx
  0000a	48 89 4c 24 08	 mov	 QWORD PTR [rsp+8], rcx
  0000f	55		 push	 rbp
  00010	56		 push	 rsi
  00011	57		 push	 rdi
  00012	48 81 ec 30 01
	00 00		 sub	 rsp, 304		; 00000130H
  00019	48 8d 6c 24 20	 lea	 rbp, QWORD PTR [rsp+32]
  0001e	48 8d 0d 00 00
	00 00		 lea	 rcx, OFFSET FLAT:__0CC0A096_xloctime
  00025	e8 00 00 00 00	 call	 __CheckForDebuggerJustMyCode
  0002a	90		 npad	 1

; 239  :         _Cvt = _Lobj._Getcvt();

  0002b	48 8d 95 c8 00
	00 00		 lea	 rdx, QWORD PTR $T1[rbp]
  00032	48 8b 8d 40 01
	00 00		 mov	 rcx, QWORD PTR _Lobj$[rbp]
  00039	ff 15 00 00 00
	00		 call	 QWORD PTR __imp_?_Getcvt@_Locinfo@std@@QEBA?AU_Cvtvec@@XZ
  0003f	48 8b 8d 30 01
	00 00		 mov	 rcx, QWORD PTR this$[rbp]
  00046	48 8d 79 2c	 lea	 rdi, QWORD PTR [rcx+44]
  0004a	48 8b f0	 mov	 rsi, rax
  0004d	b9 2c 00 00 00	 mov	 ecx, 44			; 0000002cH
  00052	f3 a4		 rep movsb

; 240  : 
; 241  :         if constexpr (is_same_v<_Elem2, wchar_t>) {
; 242  :             _Days = reinterpret_cast<const _Elem*>(_Maklocwcs(reinterpret_cast<const wchar_t*>(_Lobj._W_Getdays())));

  00054	48 8b 8d 40 01
	00 00		 mov	 rcx, QWORD PTR _Lobj$[rbp]
  0005b	ff 15 00 00 00
	00		 call	 QWORD PTR __imp_?_W_Getdays@_Locinfo@std@@QEBAPEBGXZ
  00061	48 8b c8	 mov	 rcx, rax
  00064	e8 00 00 00 00	 call	 ?_Maklocwcs@std@@YAPEA_WPEB_W@Z ; std::_Maklocwcs
  00069	48 8b 8d 30 01
	00 00		 mov	 rcx, QWORD PTR this$[rbp]
  00070	48 89 41 10	 mov	 QWORD PTR [rcx+16], rax

; 243  :             _Months =

  00074	48 8b 8d 40 01
	00 00		 mov	 rcx, QWORD PTR _Lobj$[rbp]
  0007b	ff 15 00 00 00
	00		 call	 QWORD PTR __imp_?_W_Getmonths@_Locinfo@std@@QEBAPEBGXZ
  00081	48 8b c8	 mov	 rcx, rax
  00084	e8 00 00 00 00	 call	 ?_Maklocwcs@std@@YAPEA_WPEB_W@Z ; std::_Maklocwcs
  00089	48 8b 8d 30 01
	00 00		 mov	 rcx, QWORD PTR this$[rbp]
  00090	48 89 41 18	 mov	 QWORD PTR [rcx+24], rax

; 244  :                 reinterpret_cast<const _Elem*>(_Maklocwcs(reinterpret_cast<const wchar_t*>(_Lobj._W_Getmonths())));
; 245  :             _Ampm = reinterpret_cast<const _Elem*>(_Maklocwcs(L":AM:am:PM:pm"));

  00094	48 8d 0d 00 00
	00 00		 lea	 rcx, OFFSET FLAT:??_C@_1BK@MHIKGOKE@?$AA?3?$AAA?$AAM?$AA?3?$AAa?$AAm?$AA?3?$AAP?$AAM?$AA?3?$AAp?$AAm@
  0009b	e8 00 00 00 00	 call	 ?_Maklocwcs@std@@YAPEA_WPEB_W@Z ; std::_Maklocwcs
  000a0	48 8b 8d 30 01
	00 00		 mov	 rcx, QWORD PTR this$[rbp]
  000a7	48 89 41 20	 mov	 QWORD PTR [rcx+32], rax

; 246  :         } else {
; 247  :             _Days   = _Maklocstr(_Lobj._Getdays(), static_cast<_Elem*>(nullptr), _Cvt);
; 248  :             _Months = _Maklocstr(_Lobj._Getmonths(), static_cast<_Elem*>(nullptr), _Cvt);
; 249  :             _Ampm   = _Maklocstr(":AM:am:PM:pm", static_cast<_Elem*>(nullptr), _Cvt);
; 250  :         }
; 251  :     }

  000ab	48 8d a5 10 01
	00 00		 lea	 rsp, QWORD PTR [rbp+272]
  000b2	5f		 pop	 rdi
  000b3	5e		 pop	 rsi
  000b4	5d		 pop	 rbp
  000b5	c3		 ret	 0
??$_Getvals@_W@?$time_get@DV?$istreambuf_iterator@DU?$char_traits@D@std@@@std@@@std@@IEAAX_WAEBV_Locinfo@1@@Z ENDP ; std::time_get<char,std::istreambuf_iterator<char,std::char_traits<char> > >::_Getvals<wchar_t>
_TEXT	ENDS
; Function compile flags: /Odtp /RTCsu /ZI
;	COMDAT ??_GTestClassImpl@CppUnitTestFramework@VisualStudio@Microsoft@@UEAAPEAXI@Z
_TEXT	SEGMENT
this$ = 224
__flags$ = 232
??_GTestClassImpl@CppUnitTestFramework@VisualStudio@Microsoft@@UEAAPEAXI@Z PROC ; Microsoft::VisualStudio::CppUnitTestFramework::TestClassImpl::`scalar deleting destructor', COMDAT
$LN4:
  00000	89 54 24 10	 mov	 DWORD PTR [rsp+16], edx
  00004	48 89 4c 24 08	 mov	 QWORD PTR [rsp+8], rcx
  00009	55		 push	 rbp
  0000a	57		 push	 rdi
  0000b	48 81 ec e8 00
	00 00		 sub	 rsp, 232		; 000000e8H
  00012	48 8d 6c 24 20	 lea	 rbp, QWORD PTR [rsp+32]
  00017	48 8b 8d e0 00
	00 00		 mov	 rcx, QWORD PTR this$[rbp]
  0001e	e8 00 00 00 00	 call	 ??1TestClassImpl@CppUnitTestFramework@VisualStudio@Microsoft@@UEAA@XZ ; Microsoft::VisualStudio::CppUnitTestFramework::TestClassImpl::~TestClassImpl
  00023	90		 npad	 1
  00024	8b 85 e8 00 00
	00		 mov	 eax, DWORD PTR __flags$[rbp]
  0002a	83 e0 01	 and	 eax, 1
  0002d	85 c0		 test	 eax, eax
  0002f	74 12		 je	 SHORT $LN2@scalar
  00031	ba 08 00 00 00	 mov	 edx, 8
  00036	48 8b 8d e0 00
	00 00		 mov	 rcx, QWORD PTR this$[rbp]
  0003d	e8 00 00 00 00	 call	 ??3@YAXPEAX_K@Z		; operator delete
  00042	90		 npad	 1
$LN2@scalar:
  00043	48 8b 85 e0 00
	00 00		 mov	 rax, QWORD PTR this$[rbp]
  0004a	48 8d a5 c8 00
	00 00		 lea	 rsp, QWORD PTR [rbp+200]
  00051	5f		 pop	 rdi
  00052	5d		 pop	 rbp
  00053	c3		 ret	 0
??_GTestClassImpl@CppUnitTestFramework@VisualStudio@Microsoft@@UEAAPEAXI@Z ENDP ; Microsoft::VisualStudio::CppUnitTestFramework::TestClassImpl::`scalar deleting destructor'
_TEXT	ENDS
; Function compile flags: /Odtp /RTCsu /ZI
; File C:\Program Files\Microsoft Visual Studio\18\Community\VC\Auxiliary\VS\UnitTest\include\CppUnitTest.h
;	COMDAT ??1CrtHandlersSetter@TestClassImpl@CppUnitTestFramework@VisualStudio@Microsoft@@QEAA@XZ
_TEXT	SEGMENT
this$ = 224
??1CrtHandlersSetter@TestClassImpl@CppUnitTestFramework@VisualStudio@Microsoft@@QEAA@XZ PROC ; Microsoft::VisualStudio::CppUnitTestFramework::TestClassImpl::CrtHandlersSetter::~CrtHandlersSetter, COMDAT

; 366  :             {

$LN5:
  00000	48 89 4c 24 08	 mov	 QWORD PTR [rsp+8], rcx
  00005	55		 push	 rbp
  00006	57		 push	 rdi
  00007	48 81 ec e8 00
	00 00		 sub	 rsp, 232		; 000000e8H
  0000e	48 8d 6c 24 20	 lea	 rbp, QWORD PTR [rsp+32]
  00013	48 8d 0d 00 00
	00 00		 lea	 rcx, OFFSET FLAT:__A9AD3190_CppUnitTest@h
  0001a	e8 00 00 00 00	 call	 __CheckForDebuggerJustMyCode
  0001f	90		 npad	 1

; 367  :                 if(debuggerAttached)

  00020	48 8b 85 e0 00
	00 00		 mov	 rax, QWORD PTR this$[rbp]
  00027	0f b6 40 18	 movzx	 eax, BYTE PTR [rax+24]
  0002b	85 c0		 test	 eax, eax
  0002d	74 02		 je	 SHORT $LN2@CrtHandler

; 368  :                 {
; 369  :                     return;

  0002f	eb 3e		 jmp	 SHORT $LN1@CrtHandler
$LN2@CrtHandler:

; 370  :                 }
; 371  : 
; 372  :                 _CrtSetReportMode(_CRT_ASSERT, oldReportMode);

  00031	48 8b 85 e0 00
	00 00		 mov	 rax, QWORD PTR this$[rbp]
  00038	8b 50 08	 mov	 edx, DWORD PTR [rax+8]
  0003b	b9 02 00 00 00	 mov	 ecx, 2
  00040	ff 15 00 00 00
	00		 call	 QWORD PTR __imp__CrtSetReportMode
  00046	90		 npad	 1

; 373  :                 _CrtSetReportFile(_CRT_ASSERT, oldReportFile);

  00047	48 8b 85 e0 00
	00 00		 mov	 rax, QWORD PTR this$[rbp]
  0004e	48 8b 50 10	 mov	 rdx, QWORD PTR [rax+16]
  00052	b9 02 00 00 00	 mov	 ecx, 2
  00057	ff 15 00 00 00
	00		 call	 QWORD PTR __imp__CrtSetReportFile
  0005d	90		 npad	 1

; 374  :                 _set_invalid_parameter_handler(oldInvalidParameterHandler);

  0005e	48 8b 85 e0 00
	00 00		 mov	 rax, QWORD PTR this$[rbp]
  00065	48 8b 08	 mov	 rcx, QWORD PTR [rax]
  00068	ff 15 00 00 00
	00		 call	 QWORD PTR __imp__set_invalid_parameter_handler
  0006e	90		 npad	 1
$LN1@CrtHandler:

; 375  :             }

  0006f	48 8d a5 c8 00
	00 00		 lea	 rsp, QWORD PTR [rbp+200]
  00076	5f		 pop	 rdi
  00077	5d		 pop	 rbp
  00078	c3		 ret	 0
??1CrtHandlersSetter@TestClassImpl@CppUnitTestFramework@VisualStudio@Microsoft@@QEAA@XZ ENDP ; Microsoft::VisualStudio::CppUnitTestFramework::TestClassImpl::CrtHandlersSetter::~CrtHandlersSetter
_TEXT	ENDS
; Function compile flags: /Odtp /RTCsu /ZI
; File C:\Program Files\Microsoft Visual Studio\18\Community\VC\Auxiliary\VS\UnitTest\include\CppUnitTest.h
;	COMDAT ??0CrtHandlersSetter@TestClassImpl@CppUnitTestFramework@VisualStudio@Microsoft@@QEAA@XZ
_TEXT	SEGMENT
this$ = 224
??0CrtHandlersSetter@TestClassImpl@CppUnitTestFramework@VisualStudio@Microsoft@@QEAA@XZ PROC ; Microsoft::VisualStudio::CppUnitTestFramework::TestClassImpl::CrtHandlersSetter::CrtHandlersSetter, COMDAT

; 349  :             CrtHandlersSetter()

$LN4:
  00000	48 89 4c 24 08	 mov	 QWORD PTR [rsp+8], rcx
  00005	55		 push	 rbp
  00006	57		 push	 rdi
  00007	48 81 ec e8 00
	00 00		 sub	 rsp, 232		; 000000e8H
  0000e	48 8d 6c 24 20	 lea	 rbp, QWORD PTR [rsp+32]
  00013	48 8d 0d 00 00
	00 00		 lea	 rcx, OFFSET FLAT:__A9AD3190_CppUnitTest@h
  0001a	e8 00 00 00 00	 call	 __CheckForDebuggerJustMyCode
  0001f	90		 npad	 1

; 350  :             {
; 351  :                 if(IsDebuggerAttached())

  00020	e8 00 00 00 00	 call	 ?IsDebuggerAttached@CrtHandlersSetter@TestClassImpl@CppUnitTestFramework@VisualStudio@Microsoft@@CA_NXZ ; Microsoft::VisualStudio::CppUnitTestFramework::TestClassImpl::CrtHandlersSetter::IsDebuggerAttached
  00025	0f b6 c0	 movzx	 eax, al
  00028	85 c0		 test	 eax, eax
  0002a	74 0d		 je	 SHORT $LN2@CrtHandler

; 352  :                 {
; 353  :                     debuggerAttached = true;

  0002c	48 8b 85 e0 00
	00 00		 mov	 rax, QWORD PTR this$[rbp]
  00033	c6 40 18 01	 mov	 BYTE PTR [rax+24], 1

; 354  :                     return;

  00037	eb 59		 jmp	 SHORT $LN1@CrtHandler
$LN2@CrtHandler:

; 355  :                 }
; 356  : 
; 357  :                 debuggerAttached = false;

  00039	48 8b 85 e0 00
	00 00		 mov	 rax, QWORD PTR this$[rbp]
  00040	c6 40 18 00	 mov	 BYTE PTR [rax+24], 0

; 358  :                 // Suppress the assert failure dialog.
; 359  :                 oldReportMode = _CrtSetReportMode(_CRT_ASSERT, _CRTDBG_MODE_FILE);

  00044	ba 01 00 00 00	 mov	 edx, 1
  00049	b9 02 00 00 00	 mov	 ecx, 2
  0004e	ff 15 00 00 00
	00		 call	 QWORD PTR __imp__CrtSetReportMode
  00054	48 8b 8d e0 00
	00 00		 mov	 rcx, QWORD PTR this$[rbp]
  0005b	89 41 08	 mov	 DWORD PTR [rcx+8], eax

; 360  :                 oldReportFile = _CrtSetReportFile(_CRT_ASSERT, _CRTDBG_FILE_STDERR);

  0005e	48 c7 c2 fb ff
	ff ff		 mov	 rdx, -5
  00065	b9 02 00 00 00	 mov	 ecx, 2
  0006a	ff 15 00 00 00
	00		 call	 QWORD PTR __imp__CrtSetReportFile
  00070	48 8b 8d e0 00
	00 00		 mov	 rcx, QWORD PTR this$[rbp]
  00077	48 89 41 10	 mov	 QWORD PTR [rcx+16], rax

; 361  :                 // Set the handler
; 362  :                 oldInvalidParameterHandler = _set_invalid_parameter_handler(reinterpret_cast<INVALID_PARAMETER_HANDLER>(InvalidParameterHandler));

  0007b	48 8d 0d 00 00
	00 00		 lea	 rcx, OFFSET FLAT:?InvalidParameterHandler@CrtHandlersSetter@TestClassImpl@CppUnitTestFramework@VisualStudio@Microsoft@@CAXPEBG00I_K@Z ; Microsoft::VisualStudio::CppUnitTestFramework::TestClassImpl::CrtHandlersSetter::InvalidParameterHandler
  00082	ff 15 00 00 00
	00		 call	 QWORD PTR __imp__set_invalid_parameter_handler
  00088	48 8b 8d e0 00
	00 00		 mov	 rcx, QWORD PTR this$[rbp]
  0008f	48 89 01	 mov	 QWORD PTR [rcx], rax
$LN1@CrtHandler:

; 363  :             }

  00092	48 8b 85 e0 00
	00 00		 mov	 rax, QWORD PTR this$[rbp]
  00099	48 8d a5 c8 00
	00 00		 lea	 rsp, QWORD PTR [rbp+200]
  000a0	5f		 pop	 rdi
  000a1	5d		 pop	 rbp
  000a2	c3		 ret	 0
??0CrtHandlersSetter@TestClassImpl@CppUnitTestFramework@VisualStudio@Microsoft@@QEAA@XZ ENDP ; Microsoft::VisualStudio::CppUnitTestFramework::TestClassImpl::CrtHandlersSetter::CrtHandlersSetter
_TEXT	ENDS
; Function compile flags: /Odtp /RTCsu /ZI
; File C:\Program Files\Microsoft Visual Studio\18\Community\VC\Auxiliary\VS\UnitTest\include\CppUnitTest.h
;	COMDAT ??1TestClassImpl@CppUnitTestFramework@VisualStudio@Microsoft@@UEAA@XZ
_TEXT	SEGMENT
this$ = 224
??1TestClassImpl@CppUnitTestFramework@VisualStudio@Microsoft@@UEAA@XZ PROC ; Microsoft::VisualStudio::CppUnitTestFramework::TestClassImpl::~TestClassImpl, COMDAT

; 333  : 		virtual ~TestClassImpl() noexcept(false) {}

$LN3:
  00000	48 89 4c 24 08	 mov	 QWORD PTR [rsp+8], rcx
  00005	55		 push	 rbp
  00006	57		 push	 rdi
  00007	48 81 ec e8 00
	00 00		 sub	 rsp, 232		; 000000e8H
  0000e	48 8d 6c 24 20	 lea	 rbp, QWORD PTR [rsp+32]
  00013	48 8d 0d 00 00
	00 00		 lea	 rcx, OFFSET FLAT:__A9AD3190_CppUnitTest@h
  0001a	e8 00 00 00 00	 call	 __CheckForDebuggerJustMyCode
  0001f	90		 npad	 1
  00020	48 8b 85 e0 00
	00 00		 mov	 rax, QWORD PTR this$[rbp]
  00027	48 8d 0d 00 00
	00 00		 lea	 rcx, OFFSET FLAT:??_7TestClassImpl@CppUnitTestFramework@VisualStudio@Microsoft@@6B@
  0002e	48 89 08	 mov	 QWORD PTR [rax], rcx
  00031	48 8d a5 c8 00
	00 00		 lea	 rsp, QWORD PTR [rbp+200]
  00038	5f		 pop	 rdi
  00039	5d		 pop	 rbp
  0003a	c3		 ret	 0
??1TestClassImpl@CppUnitTestFramework@VisualStudio@Microsoft@@UEAA@XZ ENDP ; Microsoft::VisualStudio::CppUnitTestFramework::TestClassImpl::~TestClassImpl
_TEXT	ENDS
; Function compile flags: /Odtp /RTCsu /ZI
; File C:\Program Files\Microsoft Visual Studio\18\Community\VC\Auxiliary\VS\UnitTest\include\CppUnitTest.h
;	COMDAT ??0TestClassImpl@CppUnitTestFramework@VisualStudio@Microsoft@@QEAA@XZ
_TEXT	SEGMENT
this$ = 224
??0TestClassImpl@CppUnitTestFramework@VisualStudio@Microsoft@@QEAA@XZ PROC ; Microsoft::VisualStudio::CppUnitTestFramework::TestClassImpl::TestClassImpl, COMDAT

; 329  : 		TestClassImpl() {}

$LN3:
  00000	48 89 4c 24 08	 mov	 QWORD PTR [rsp+8], rcx
  00005	55		 push	 rbp
  00006	57		 push	 rdi
  00007	48 81 ec e8 00
	00 00		 sub	 rsp, 232		; 000000e8H
  0000e	48 8d 6c 24 20	 lea	 rbp, QWORD PTR [rsp+32]
  00013	48 8d 0d 00 00
	00 00		 lea	 rcx, OFFSET FLAT:__A9AD3190_CppUnitTest@h
  0001a	e8 00 00 00 00	 call	 __CheckForDebuggerJustMyCode
  0001f	90		 npad	 1
  00020	48 8b 85 e0 00
	00 00		 mov	 rax, QWORD PTR this$[rbp]
  00027	48 8d 0d 00 00
	00 00		 lea	 rcx, OFFSET FLAT:??_7TestClassImpl@CppUnitTestFramework@VisualStudio@Microsoft@@6B@
  0002e	48 89 08	 mov	 QWORD PTR [rax], rcx
  00031	48 8b 85 e0 00
	00 00		 mov	 rax, QWORD PTR this$[rbp]
  00038	48 8d a5 c8 00
	00 00		 lea	 rsp, QWORD PTR [rbp+200]
  0003f	5f		 pop	 rdi
  00040	5d		 pop	 rbp
  00041	c3		 ret	 0
??0TestClassImpl@CppUnitTestFramework@VisualStudio@Microsoft@@QEAA@XZ ENDP ; Microsoft::VisualStudio::CppUnitTestFramework::TestClassImpl::TestClassImpl
_TEXT	ENDS
; Function compile flags: /Odtp /RTCsu /ZI
; File C:\Program Files\Microsoft Visual Studio\18\Community\VC\Auxiliary\VS\UnitTest\include\CppUnitTestLogger.h
;	COMDAT ?WriteMessage@Logger@CppUnitTestFramework@VisualStudio@Microsoft@@SAXPEBD@Z
_TEXT	SEGMENT
message$ = 224
?WriteMessage@Logger@CppUnitTestFramework@VisualStudio@Microsoft@@SAXPEBD@Z PROC ; Microsoft::VisualStudio::CppUnitTestFramework::Logger::WriteMessage, COMDAT

; 27   :         {

$LN3:
  00000	48 89 4c 24 08	 mov	 QWORD PTR [rsp+8], rcx
  00005	55		 push	 rbp
  00006	57		 push	 rdi
  00007	48 81 ec e8 00
	00 00		 sub	 rsp, 232		; 000000e8H
  0000e	48 8d 6c 24 20	 lea	 rbp, QWORD PTR [rsp+32]
  00013	48 8d 0d 00 00
	00 00		 lea	 rcx, OFFSET FLAT:__92E676FC_CppUnitTestLogger@h
  0001a	e8 00 00 00 00	 call	 __CheckForDebuggerJustMyCode
  0001f	90		 npad	 1

; 28   :             WriteMessageImplA(message);

  00020	48 8b 8d e0 00
	00 00		 mov	 rcx, QWORD PTR message$[rbp]
  00027	e8 00 00 00 00	 call	 ?WriteMessageImplA@Logger@CppUnitTestFramework@VisualStudio@Microsoft@@CAXPEBD@Z ; Microsoft::VisualStudio::CppUnitTestFramework::Logger::WriteMessageImplA
  0002c	90		 npad	 1

; 29   :         }

  0002d	48 8d a5 c8 00
	00 00		 lea	 rsp, QWORD PTR [rbp+200]
  00034	5f		 pop	 rdi
  00035	5d		 pop	 rbp
  00036	c3		 ret	 0
?WriteMessage@Logger@CppUnitTestFramework@VisualStudio@Microsoft@@SAXPEBD@Z ENDP ; Microsoft::VisualStudio::CppUnitTestFramework::Logger::WriteMessage
_TEXT	ENDS
; Function compile flags: /Odtp /RTCsu /ZI
; File C:\Program Files\Microsoft Visual Studio\18\Community\VC\Tools\MSVC\14.50.35717\include\utility
;	COMDAT ??$_Max_limit@_J@std@@YA_JXZ
_TEXT	SEGMENT
_Unsigned_max$1 = 8
??$_Max_limit@_J@std@@YA_JXZ PROC			; std::_Max_limit<__int64>, COMDAT

; 863  : _NODISCARD constexpr _Ty _Max_limit() noexcept { // same as (numeric_limits<_Ty>::max)(), less throughput cost

$LN4:
  00000	40 55		 push	 rbp
  00002	57		 push	 rdi
  00003	48 81 ec 08 01
	00 00		 sub	 rsp, 264		; 00000108H
  0000a	48 8d 6c 24 20	 lea	 rbp, QWORD PTR [rsp+32]
  0000f	48 8d 0d 00 00
	00 00		 lea	 rcx, OFFSET FLAT:__DE82222C_utility
  00016	e8 00 00 00 00	 call	 __CheckForDebuggerJustMyCode
  0001b	90		 npad	 1

; 864  :     _STL_INTERNAL_STATIC_ASSERT(is_integral_v<_Ty>); // doesn't attempt to handle all types
; 865  :     if constexpr (is_signed_v<_Ty>) {
; 866  :         constexpr auto _Unsigned_max = static_cast<make_unsigned_t<_Ty>>(-1);

  0001c	48 c7 45 08 ff
	ff ff ff	 mov	 QWORD PTR _Unsigned_max$1[rbp], -1

; 867  :         return static_cast<_Ty>(_Unsigned_max >> 1);

  00024	48 b8 ff ff ff
	ff ff ff ff 7f	 mov	 rax, 9223372036854775807 ; 7fffffffffffffffH

; 868  :     } else {
; 869  :         return static_cast<_Ty>(-1);
; 870  :     }
; 871  : }

  0002e	48 8d a5 e8 00
	00 00		 lea	 rsp, QWORD PTR [rbp+232]
  00035	5f		 pop	 rdi
  00036	5d		 pop	 rbp
  00037	c3		 ret	 0
??$_Max_limit@_J@std@@YA_JXZ ENDP			; std::_Max_limit<__int64>
_TEXT	ENDS
; Function compile flags: /Odtp /RTCsu /ZI
; File C:\Program Files\Microsoft Visual Studio\18\Community\VC\Tools\MSVC\14.50.35717\include\xlocnum
;	COMDAT ?_Maklocwcs@std@@YAPEA_WPEB_W@Z
_TEXT	SEGMENT
_Count$ = 8
_Ptrdest$ = 40
_Ptr$ = 288
?_Maklocwcs@std@@YAPEA_WPEB_W@Z PROC			; std::_Maklocwcs, COMDAT

; 73   : inline wchar_t* _Maklocwcs(const wchar_t* _Ptr) { // copy NTWCS to allocated storage

$LN4:
  00000	48 89 4c 24 08	 mov	 QWORD PTR [rsp+8], rcx
  00005	55		 push	 rbp
  00006	57		 push	 rdi
  00007	48 81 ec 38 01
	00 00		 sub	 rsp, 312		; 00000138H
  0000e	48 8d 6c 24 30	 lea	 rbp, QWORD PTR [rsp+48]
  00013	48 8d 0d 00 00
	00 00		 lea	 rcx, OFFSET FLAT:__817DD555_xlocnum
  0001a	e8 00 00 00 00	 call	 __CheckForDebuggerJustMyCode
  0001f	90		 npad	 1

; 74   :     const size_t _Count = _CSTD wcslen(_Ptr) + 1;

  00020	48 8b 8d 20 01
	00 00		 mov	 rcx, QWORD PTR _Ptr$[rbp]
  00027	ff 15 00 00 00
	00		 call	 QWORD PTR __imp_wcslen
  0002d	48 ff c0	 inc	 rax
  00030	48 89 45 08	 mov	 QWORD PTR _Count$[rbp], rax

; 75   : 
; 76   :     wchar_t* _Ptrdest = static_cast<wchar_t*>(_calloc_dbg(_Count, sizeof(wchar_t), _CRT_BLOCK, __FILE__, __LINE__));

  00034	8b 05 00 00 00
	00		 mov	 eax, DWORD PTR ?__LINE__Var@?0??_Maklocwcs@std@@YAPEA_WPEB_W@Z@4JA
  0003a	83 c0 03	 add	 eax, 3
  0003d	89 44 24 20	 mov	 DWORD PTR [rsp+32], eax
  00041	4c 8d 0d 00 00
	00 00		 lea	 r9, OFFSET FLAT:??_C@_0GA@FOILECPP@C?3?2Program?5Files?2Microsoft?5Visu@
  00048	41 b8 02 00 00
	00		 mov	 r8d, 2
  0004e	ba 02 00 00 00	 mov	 edx, 2
  00053	48 8b 4d 08	 mov	 rcx, QWORD PTR _Count$[rbp]
  00057	ff 15 00 00 00
	00		 call	 QWORD PTR __imp__calloc_dbg
  0005d	48 89 45 28	 mov	 QWORD PTR _Ptrdest$[rbp], rax

; 77   : 
; 78   :     if (!_Ptrdest) {

  00061	48 83 7d 28 00	 cmp	 QWORD PTR _Ptrdest$[rbp], 0
  00066	75 06		 jne	 SHORT $LN2@Maklocwcs

; 79   :         _Xbad_alloc();

  00068	e8 00 00 00 00	 call	 ?_Xbad_alloc@std@@YAXXZ	; std::_Xbad_alloc
  0006d	90		 npad	 1
$LN2@Maklocwcs:

; 80   :     }
; 81   : 
; 82   :     _CSTD wmemcpy(_Ptrdest, _Ptr, _Count);

  0006e	4c 8b 45 08	 mov	 r8, QWORD PTR _Count$[rbp]
  00072	48 8b 95 20 01
	00 00		 mov	 rdx, QWORD PTR _Ptr$[rbp]
  00079	48 8b 4d 28	 mov	 rcx, QWORD PTR _Ptrdest$[rbp]
  0007d	e8 00 00 00 00	 call	 wmemcpy
  00082	90		 npad	 1

; 83   :     return _Ptrdest;

  00083	48 8b 45 28	 mov	 rax, QWORD PTR _Ptrdest$[rbp]
$LN3@Maklocwcs:

; 84   : }

  00087	48 8d a5 08 01
	00 00		 lea	 rsp, QWORD PTR [rbp+264]
  0008e	5f		 pop	 rdi
  0008f	5d		 pop	 rbp
  00090	c3		 ret	 0
?_Maklocwcs@std@@YAPEA_WPEB_W@Z ENDP			; std::_Maklocwcs
_TEXT	ENDS
; Function compile flags: /Odtp /RTCsu /ZI
;	COMDAT ??1?$_Compressed_pair@V?$allocator@D@std@@V?$_String_val@U?$_Simple_types@D@std@@@2@$00@std@@QEAA@XZ
_TEXT	SEGMENT
this$ = 224
??1?$_Compressed_pair@V?$allocator@D@std@@V?$_String_val@U?$_Simple_types@D@std@@@2@$00@std@@QEAA@XZ PROC ; std::_Compressed_pair<std::allocator<char>,std::_String_val<std::_Simple_types<char> >,1>::~_Compressed_pair<std::allocator<char>,std::_String_val<std::_Simple_types<char> >,1>, COMDAT
$LN4:
  00000	48 89 4c 24 08	 mov	 QWORD PTR [rsp+8], rcx
  00005	55		 push	 rbp
  00006	57		 push	 rdi
  00007	48 81 ec e8 00
	00 00		 sub	 rsp, 232		; 000000e8H
  0000e	48 8d 6c 24 20	 lea	 rbp, QWORD PTR [rsp+32]
  00013	48 8b 85 e0 00
	00 00		 mov	 rax, QWORD PTR this$[rbp]
  0001a	48 8b c8	 mov	 rcx, rax
  0001d	e8 00 00 00 00	 call	 ??1?$_String_val@U?$_Simple_types@D@std@@@std@@QEAA@XZ
  00022	90		 npad	 1
  00023	48 8d a5 c8 00
	00 00		 lea	 rsp, QWORD PTR [rbp+200]
  0002a	5f		 pop	 rdi
  0002b	5d		 pop	 rbp
  0002c	c3		 ret	 0
??1?$_Compressed_pair@V?$allocator@D@std@@V?$_String_val@U?$_Simple_types@D@std@@@2@$00@std@@QEAA@XZ ENDP ; std::_Compressed_pair<std::allocator<char>,std::_String_val<std::_Simple_types<char> >,1>::~_Compressed_pair<std::allocator<char>,std::_String_val<std::_Simple_types<char> >,1>
_TEXT	ENDS
; Function compile flags: /Odtp /RTCsu /ZI
; File C:\Program Files\Microsoft Visual Studio\18\Community\VC\Tools\MSVC\14.50.35717\include\xmemory
;	COMDAT ?_Get_first@?$_Compressed_pair@V?$allocator@D@std@@V?$_String_val@U?$_Simple_types@D@std@@@2@$00@std@@QEBAAEBV?$allocator@D@2@XZ
_TEXT	SEGMENT
this$ = 224
?_Get_first@?$_Compressed_pair@V?$allocator@D@std@@V?$_String_val@U?$_Simple_types@D@std@@@2@$00@std@@QEBAAEBV?$allocator@D@2@XZ PROC ; std::_Compressed_pair<std::allocator<char>,std::_String_val<std::_Simple_types<char> >,1>::_Get_first, COMDAT

; 1562 :     constexpr const _Ty1& _Get_first() const noexcept {

$LN4:
  00000	48 89 4c 24 08	 mov	 QWORD PTR [rsp+8], rcx
  00005	55		 push	 rbp
  00006	57		 push	 rdi
  00007	48 81 ec e8 00
	00 00		 sub	 rsp, 232		; 000000e8H
  0000e	48 8d 6c 24 20	 lea	 rbp, QWORD PTR [rsp+32]
  00013	48 8d 0d 00 00
	00 00		 lea	 rcx, OFFSET FLAT:__B41741EF_xmemory
  0001a	e8 00 00 00 00	 call	 __CheckForDebuggerJustMyCode
  0001f	90		 npad	 1

; 1563 :         return *this;

  00020	48 8b 85 e0 00
	00 00		 mov	 rax, QWORD PTR this$[rbp]

; 1564 :     }

  00027	48 8d a5 c8 00
	00 00		 lea	 rsp, QWORD PTR [rbp+200]
  0002e	5f		 pop	 rdi
  0002f	5d		 pop	 rbp
  00030	c3		 ret	 0
?_Get_first@?$_Compressed_pair@V?$allocator@D@std@@V?$_String_val@U?$_Simple_types@D@std@@@2@$00@std@@QEBAAEBV?$allocator@D@2@XZ ENDP ; std::_Compressed_pair<std::allocator<char>,std::_String_val<std::_Simple_types<char> >,1>::_Get_first
_TEXT	ENDS
; Function compile flags: /Odtp /RTCsu /ZI
; File C:\Program Files\Microsoft Visual Studio\18\Community\VC\Tools\MSVC\14.50.35717\include\xmemory
;	COMDAT ?_Get_first@?$_Compressed_pair@V?$allocator@D@std@@V?$_String_val@U?$_Simple_types@D@std@@@2@$00@std@@QEAAAEAV?$allocator@D@2@XZ
_TEXT	SEGMENT
this$ = 224
?_Get_first@?$_Compressed_pair@V?$allocator@D@std@@V?$_String_val@U?$_Simple_types@D@std@@@2@$00@std@@QEAAAEAV?$allocator@D@2@XZ PROC ; std::_Compressed_pair<std::allocator<char>,std::_String_val<std::_Simple_types<char> >,1>::_Get_first, COMDAT

; 1558 :     constexpr _Ty1& _Get_first() noexcept {

$LN4:
  00000	48 89 4c 24 08	 mov	 QWORD PTR [rsp+8], rcx
  00005	55		 push	 rbp
  00006	57		 push	 rdi
  00007	48 81 ec e8 00
	00 00		 sub	 rsp, 232		; 000000e8H
  0000e	48 8d 6c 24 20	 lea	 rbp, QWORD PTR [rsp+32]
  00013	48 8d 0d 00 00
	00 00		 lea	 rcx, OFFSET FLAT:__B41741EF_xmemory
  0001a	e8 00 00 00 00	 call	 __CheckForDebuggerJustMyCode
  0001f	90		 npad	 1

; 1559 :         return *this;

  00020	48 8b 85 e0 00
	00 00		 mov	 rax, QWORD PTR this$[rbp]

; 1560 :     }

  00027	48 8d a5 c8 00
	00 00		 lea	 rsp, QWORD PTR [rbp+200]
  0002e	5f		 pop	 rdi
  0002f	5d		 pop	 rbp
  00030	c3		 ret	 0
?_Get_first@?$_Compressed_pair@V?$allocator@D@std@@V?$_String_val@U?$_Simple_types@D@std@@@2@$00@std@@QEAAAEAV?$allocator@D@2@XZ ENDP ; std::_Compressed_pair<std::allocator<char>,std::_String_val<std::_Simple_types<char> >,1>::_Get_first
_TEXT	ENDS
; Function compile flags: /Odtp /RTCsu /ZI
; File C:\Program Files\Microsoft Visual Studio\18\Community\VC\Tools\MSVC\14.50.35717\include\xstring
;	COMDAT ?_Getal@?$basic_string@DU?$char_traits@D@std@@V?$allocator@D@2@@std@@AEBAAEBV?$allocator@D@2@XZ
_TEXT	SEGMENT
this$ = 224
?_Getal@?$basic_string@DU?$char_traits@D@std@@V?$allocator@D@2@@std@@AEBAAEBV?$allocator@D@2@XZ PROC ; std::basic_string<char,std::char_traits<char>,std::allocator<char> >::_Getal, COMDAT

; 3196 :     _CONSTEXPR20 const _Alty& _Getal() const noexcept {

$LN4:
  00000	48 89 4c 24 08	 mov	 QWORD PTR [rsp+8], rcx
  00005	55		 push	 rbp
  00006	57		 push	 rdi
  00007	48 81 ec e8 00
	00 00		 sub	 rsp, 232		; 000000e8H
  0000e	48 8d 6c 24 20	 lea	 rbp, QWORD PTR [rsp+32]
  00013	48 8d 0d 00 00
	00 00		 lea	 rcx, OFFSET FLAT:__C0C4C773_xstring
  0001a	e8 00 00 00 00	 call	 __CheckForDebuggerJustMyCode
  0001f	90		 npad	 1

; 3197 :         return _Mypair._Get_first();

  00020	48 8b 85 e0 00
	00 00		 mov	 rax, QWORD PTR this$[rbp]
  00027	48 8b c8	 mov	 rcx, rax
  0002a	e8 00 00 00 00	 call	 ?_Get_first@?$_Compressed_pair@V?$allocator@D@std@@V?$_String_val@U?$_Simple_types@D@std@@@2@$00@std@@QEBAAEBV?$allocator@D@2@XZ ; std::_Compressed_pair<std::allocator<char>,std::_String_val<std::_Simple_types<char> >,1>::_Get_first

; 3198 :     }

  0002f	48 8d a5 c8 00
	00 00		 lea	 rsp, QWORD PTR [rbp+200]
  00036	5f		 pop	 rdi
  00037	5d		 pop	 rbp
  00038	c3		 ret	 0
?_Getal@?$basic_string@DU?$char_traits@D@std@@V?$allocator@D@2@@std@@AEBAAEBV?$allocator@D@2@XZ ENDP ; std::basic_string<char,std::char_traits<char>,std::allocator<char> >::_Getal
_TEXT	ENDS
; Function compile flags: /Odtp /RTCsu /ZI
; File C:\Program Files\Microsoft Visual Studio\18\Community\VC\Tools\MSVC\14.50.35717\include\xstring
;	COMDAT ?_Getal@?$basic_string@DU?$char_traits@D@std@@V?$allocator@D@2@@std@@AEAAAEAV?$allocator@D@2@XZ
_TEXT	SEGMENT
this$ = 224
?_Getal@?$basic_string@DU?$char_traits@D@std@@V?$allocator@D@2@@std@@AEAAAEAV?$allocator@D@2@XZ PROC ; std::basic_string<char,std::char_traits<char>,std::allocator<char> >::_Getal, COMDAT

; 3192 :     _CONSTEXPR20 _Alty& _Getal() noexcept {

$LN4:
  00000	48 89 4c 24 08	 mov	 QWORD PTR [rsp+8], rcx
  00005	55		 push	 rbp
  00006	57		 push	 rdi
  00007	48 81 ec e8 00
	00 00		 sub	 rsp, 232		; 000000e8H
  0000e	48 8d 6c 24 20	 lea	 rbp, QWORD PTR [rsp+32]
  00013	48 8d 0d 00 00
	00 00		 lea	 rcx, OFFSET FLAT:__C0C4C773_xstring
  0001a	e8 00 00 00 00	 call	 __CheckForDebuggerJustMyCode
  0001f	90		 npad	 1

; 3193 :         return _Mypair._Get_first();

  00020	48 8b 85 e0 00
	00 00		 mov	 rax, QWORD PTR this$[rbp]
  00027	48 8b c8	 mov	 rcx, rax
  0002a	e8 00 00 00 00	 call	 ?_Get_first@?$_Compressed_pair@V?$allocator@D@std@@V?$_String_val@U?$_Simple_types@D@std@@@2@$00@std@@QEAAAEAV?$allocator@D@2@XZ ; std::_Compressed_pair<std::allocator<char>,std::_String_val<std::_Simple_types<char> >,1>::_Get_first

; 3194 :     }

  0002f	48 8d a5 c8 00
	00 00		 lea	 rsp, QWORD PTR [rbp+200]
  00036	5f		 pop	 rdi
  00037	5d		 pop	 rbp
  00038	c3		 ret	 0
?_Getal@?$basic_string@DU?$char_traits@D@std@@V?$allocator@D@2@@std@@AEAAAEAV?$allocator@D@2@XZ ENDP ; std::basic_string<char,std::char_traits<char>,std::allocator<char> >::_Getal
_TEXT	ENDS
; Function compile flags: /Odtp /RTCsu /ZI
; File C:\Program Files\Microsoft Visual Studio\18\Community\VC\Tools\MSVC\14.50.35717\include\xstring
;	COMDAT ?_Swap_proxy_and_iterators@?$basic_string@DU?$char_traits@D@std@@V?$allocator@D@2@@std@@AEAAXAEAV12@@Z
_TEXT	SEGMENT
tv79 = 192
this$ = 240
_Right$ = 248
?_Swap_proxy_and_iterators@?$basic_string@DU?$char_traits@D@std@@V?$allocator@D@2@@std@@AEAAXAEAV12@@Z PROC ; std::basic_string<char,std::char_traits<char>,std::allocator<char> >::_Swap_proxy_and_iterators, COMDAT

; 3188 :     _CONSTEXPR20 void _Swap_proxy_and_iterators(basic_string& _Right) noexcept {

$LN4:
  00000	48 89 54 24 10	 mov	 QWORD PTR [rsp+16], rdx
  00005	48 89 4c 24 08	 mov	 QWORD PTR [rsp+8], rcx
  0000a	55		 push	 rbp
  0000b	57		 push	 rdi
  0000c	48 81 ec f8 00
	00 00		 sub	 rsp, 248		; 000000f8H
  00013	48 8d 6c 24 20	 lea	 rbp, QWORD PTR [rsp+32]
  00018	48 8d 0d 00 00
	00 00		 lea	 rcx, OFFSET FLAT:__C0C4C773_xstring
  0001f	e8 00 00 00 00	 call	 __CheckForDebuggerJustMyCode
  00024	90		 npad	 1

; 3189 :         _Mypair._Myval2._Swap_proxy_and_iterators(_Right._Mypair._Myval2);

  00025	48 8b 85 f0 00
	00 00		 mov	 rax, QWORD PTR this$[rbp]
  0002c	48 89 85 c0 00
	00 00		 mov	 QWORD PTR tv79[rbp], rax
  00033	48 8b 85 f8 00
	00 00		 mov	 rax, QWORD PTR _Right$[rbp]
  0003a	48 8b d0	 mov	 rdx, rax
  0003d	48 8b 8d c0 00
	00 00		 mov	 rcx, QWORD PTR tv79[rbp]
  00044	e8 00 00 00 00	 call	 ?_Swap_proxy_and_iterators@_Container_base12@std@@QEAAXAEAU12@@Z ; std::_Container_base12::_Swap_proxy_and_iterators
  00049	90		 npad	 1

; 3190 :     }

  0004a	48 8d a5 d8 00
	00 00		 lea	 rsp, QWORD PTR [rbp+216]
  00051	5f		 pop	 rdi
  00052	5d		 pop	 rbp
  00053	c3		 ret	 0
?_Swap_proxy_and_iterators@?$basic_string@DU?$char_traits@D@std@@V?$allocator@D@2@@std@@AEAAXAEAV12@@Z ENDP ; std::basic_string<char,std::char_traits<char>,std::allocator<char> >::_Swap_proxy_and_iterators
_TEXT	ENDS
; Function compile flags: /Odtp /RTCsu /ZI
; File C:\Program Files\Microsoft Visual Studio\18\Community\VC\Tools\MSVC\14.50.35717\include\xstring
;	COMDAT ?_Tidy_deallocate@?$basic_string@DU?$char_traits@D@std@@V?$allocator@D@2@@std@@AEAAXXZ
_TEXT	SEGMENT
_My_data$ = 8
_Al$1 = 40
$T2 = 260
this$ = 320
?_Tidy_deallocate@?$basic_string@DU?$char_traits@D@std@@V?$allocator@D@2@@std@@AEAAXXZ PROC ; std::basic_string<char,std::char_traits<char>,std::allocator<char> >::_Tidy_deallocate, COMDAT

; 3166 :     _CONSTEXPR20 void _Tidy_deallocate() noexcept { // initialize buffer, deallocating any storage

$LN5:
  00000	48 89 4c 24 08	 mov	 QWORD PTR [rsp+8], rcx
  00005	55		 push	 rbp
  00006	57		 push	 rdi
  00007	48 81 ec 48 01
	00 00		 sub	 rsp, 328		; 00000148H
  0000e	48 8d 6c 24 20	 lea	 rbp, QWORD PTR [rsp+32]
  00013	48 8d 0d 00 00
	00 00		 lea	 rcx, OFFSET FLAT:__C0C4C773_xstring
  0001a	e8 00 00 00 00	 call	 __CheckForDebuggerJustMyCode
  0001f	90		 npad	 1

; 3167 :         auto& _My_data = _Mypair._Myval2;

  00020	48 8b 85 40 01
	00 00		 mov	 rax, QWORD PTR this$[rbp]
  00027	48 89 45 08	 mov	 QWORD PTR _My_data$[rbp], rax

; 3168 :         _My_data._Orphan_all();

  0002b	48 8b 4d 08	 mov	 rcx, QWORD PTR _My_data$[rbp]
  0002f	e8 00 00 00 00	 call	 ?_Orphan_all@_Container_base12@std@@QEAAXXZ ; std::_Container_base12::_Orphan_all
  00034	90		 npad	 1

; 3169 :         if (_My_data._Large_mode_engaged()) {

  00035	48 8b 4d 08	 mov	 rcx, QWORD PTR _My_data$[rbp]
  00039	e8 00 00 00 00	 call	 ?_Large_mode_engaged@?$_String_val@U?$_Simple_types@D@std@@@std@@QEBA_NXZ ; std::_String_val<std::_Simple_types<char> >::_Large_mode_engaged
  0003e	0f b6 c0	 movzx	 eax, al
  00041	85 c0		 test	 eax, eax
  00043	74 3b		 je	 SHORT $LN2@Tidy_deall

; 3170 :             _ASAN_STRING_REMOVE(*this);
; 3171 :             auto& _Al = _Getal();

  00045	48 8b 8d 40 01
	00 00		 mov	 rcx, QWORD PTR this$[rbp]
  0004c	e8 00 00 00 00	 call	 ?_Getal@?$basic_string@DU?$char_traits@D@std@@V?$allocator@D@2@@std@@AEAAAEAV?$allocator@D@2@XZ ; std::basic_string<char,std::char_traits<char>,std::allocator<char> >::_Getal
  00051	48 89 45 28	 mov	 QWORD PTR _Al$1[rbp], rax

; 3172 :             _Deallocate_for_capacity(_Al, _My_data._Bx._Ptr, _My_data._Myres);

  00055	48 8b 45 08	 mov	 rax, QWORD PTR _My_data$[rbp]
  00059	4c 8b 40 20	 mov	 r8, QWORD PTR [rax+32]
  0005d	48 8b 45 08	 mov	 rax, QWORD PTR _My_data$[rbp]
  00061	48 8b 50 08	 mov	 rdx, QWORD PTR [rax+8]
  00065	48 8b 4d 28	 mov	 rcx, QWORD PTR _Al$1[rbp]
  00069	e8 00 00 00 00	 call	 ?_Deallocate_for_capacity@?$basic_string@DU?$char_traits@D@std@@V?$allocator@D@2@@std@@CAXAEAV?$allocator@D@2@QEAD_K@Z ; std::basic_string<char,std::char_traits<char>,std::allocator<char> >::_Deallocate_for_capacity
  0006e	90		 npad	 1

; 3173 :             _My_data._Bx._Switch_to_buf();

  0006f	48 8b 45 08	 mov	 rax, QWORD PTR _My_data$[rbp]
  00073	48 83 c0 08	 add	 rax, 8
  00077	48 8b c8	 mov	 rcx, rax
  0007a	e8 00 00 00 00	 call	 ?_Switch_to_buf@_Bxty@?$_String_val@U?$_Simple_types@D@std@@@std@@QEAAXXZ ; std::_String_val<std::_Simple_types<char> >::_Bxty::_Switch_to_buf
  0007f	90		 npad	 1
$LN2@Tidy_deall:

; 3174 :         }
; 3175 : 
; 3176 :         _My_data._Mysize = 0;

  00080	48 8b 45 08	 mov	 rax, QWORD PTR _My_data$[rbp]
  00084	48 c7 40 18 00
	00 00 00	 mov	 QWORD PTR [rax+24], 0

; 3177 :         _My_data._Myres  = _Small_string_capacity;

  0008c	48 8b 45 08	 mov	 rax, QWORD PTR _My_data$[rbp]
  00090	48 c7 40 20 0f
	00 00 00	 mov	 QWORD PTR [rax+32], 15

; 3178 :         // the _Traits::assign is last so the codegen doesn't think the char write can alias this
; 3179 :         _Traits::assign(_My_data._Bx._Buf[0], _Elem());

  00098	c6 85 04 01 00
	00 00		 mov	 BYTE PTR $T2[rbp], 0
  0009f	b8 01 00 00 00	 mov	 eax, 1
  000a4	48 6b c0 00	 imul	 rax, rax, 0
  000a8	48 8b 4d 08	 mov	 rcx, QWORD PTR _My_data$[rbp]
  000ac	48 8d 44 01 08	 lea	 rax, QWORD PTR [rcx+rax+8]
  000b1	48 8d 95 04 01
	00 00		 lea	 rdx, QWORD PTR $T2[rbp]
  000b8	48 8b c8	 mov	 rcx, rax
  000bb	e8 00 00 00 00	 call	 ?assign@?$_Narrow_char_traits@DH@std@@SAXAEADAEBD@Z ; std::_Narrow_char_traits<char,int>::assign
  000c0	90		 npad	 1

; 3180 :     }

  000c1	48 8d a5 28 01
	00 00		 lea	 rsp, QWORD PTR [rbp+296]
  000c8	5f		 pop	 rdi
  000c9	5d		 pop	 rbp
  000ca	c3		 ret	 0
?_Tidy_deallocate@?$basic_string@DU?$char_traits@D@std@@V?$allocator@D@2@@std@@AEAAXXZ ENDP ; std::basic_string<char,std::char_traits<char>,std::allocator<char> >::_Tidy_deallocate
_TEXT	ENDS
; Function compile flags: /Odtp /RTCsu /ZI
; File C:\Program Files\Microsoft Visual Studio\18\Community\VC\Tools\MSVC\14.50.35717\include\xstring
;	COMDAT ?_Calculate_growth@?$basic_string@DU?$char_traits@D@std@@V?$allocator@D@2@@std@@AEBA_K_K@Z
_TEXT	SEGMENT
tv76 = 192
tv74 = 200
this$ = 240
_Requested$ = 248
?_Calculate_growth@?$basic_string@DU?$char_traits@D@std@@V?$allocator@D@2@@std@@AEBA_K_K@Z PROC ; std::basic_string<char,std::char_traits<char>,std::allocator<char> >::_Calculate_growth, COMDAT

; 2897 :     _NODISCARD _CONSTEXPR20 size_type _Calculate_growth(const size_type _Requested) const noexcept {

$LN4:
  00000	48 89 54 24 10	 mov	 QWORD PTR [rsp+16], rdx
  00005	48 89 4c 24 08	 mov	 QWORD PTR [rsp+8], rcx
  0000a	55		 push	 rbp
  0000b	57		 push	 rdi
  0000c	48 81 ec f8 00
	00 00		 sub	 rsp, 248		; 000000f8H
  00013	48 8d 6c 24 20	 lea	 rbp, QWORD PTR [rsp+32]
  00018	48 8d 0d 00 00
	00 00		 lea	 rcx, OFFSET FLAT:__C0C4C773_xstring
  0001f	e8 00 00 00 00	 call	 __CheckForDebuggerJustMyCode
  00024	90		 npad	 1

; 2898 :         return _Calculate_growth(_Requested, _Mypair._Myval2._Myres, max_size());

  00025	48 8b 8d f0 00
	00 00		 mov	 rcx, QWORD PTR this$[rbp]
  0002c	e8 00 00 00 00	 call	 ?max_size@?$basic_string@DU?$char_traits@D@std@@V?$allocator@D@2@@std@@QEBA_KXZ ; std::basic_string<char,std::char_traits<char>,std::allocator<char> >::max_size
  00031	48 89 85 c0 00
	00 00		 mov	 QWORD PTR tv76[rbp], rax
  00038	48 8b 85 f0 00
	00 00		 mov	 rax, QWORD PTR this$[rbp]
  0003f	48 8b 40 20	 mov	 rax, QWORD PTR [rax+32]
  00043	48 89 85 c8 00
	00 00		 mov	 QWORD PTR tv74[rbp], rax
  0004a	4c 8b 85 c0 00
	00 00		 mov	 r8, QWORD PTR tv76[rbp]
  00051	48 8b 95 c8 00
	00 00		 mov	 rdx, QWORD PTR tv74[rbp]
  00058	48 8b 8d f8 00
	00 00		 mov	 rcx, QWORD PTR _Requested$[rbp]
  0005f	e8 00 00 00 00	 call	 ?_Calculate_growth@?$basic_string@DU?$char_traits@D@std@@V?$allocator@D@2@@std@@CA_K_K00@Z ; std::basic_string<char,std::char_traits<char>,std::allocator<char> >::_Calculate_growth

; 2899 :     }

  00064	48 8d a5 d8 00
	00 00		 lea	 rsp, QWORD PTR [rbp+216]
  0006b	5f		 pop	 rdi
  0006c	5d		 pop	 rbp
  0006d	c3		 ret	 0
?_Calculate_growth@?$basic_string@DU?$char_traits@D@std@@V?$allocator@D@2@@std@@AEBA_K_K@Z ENDP ; std::basic_string<char,std::char_traits<char>,std::allocator<char> >::_Calculate_growth
_TEXT	ENDS
; Function compile flags: /Odtp /RTCsu /ZI
; File C:\Program Files\Microsoft Visual Studio\18\Community\VC\Tools\MSVC\14.50.35717\include\xstring
;	COMDAT ?_Calculate_growth@?$basic_string@DU?$char_traits@D@std@@V?$allocator@D@2@@std@@CA_K_K00@Z
_TEXT	SEGMENT
_Masked$ = 8
$T4 = 232
__$ArrayPad$ = 248
_Requested$ = 288
_Old$ = 296
_Max$ = 304
?_Calculate_growth@?$basic_string@DU?$char_traits@D@std@@V?$allocator@D@2@@std@@CA_K_K00@Z PROC ; std::basic_string<char,std::char_traits<char>,std::allocator<char> >::_Calculate_growth, COMDAT

; 2884 :         const size_type _Requested, const size_type _Old, const size_type _Max) noexcept {

$LN6:
  00000	4c 89 44 24 18	 mov	 QWORD PTR [rsp+24], r8
  00005	48 89 54 24 10	 mov	 QWORD PTR [rsp+16], rdx
  0000a	48 89 4c 24 08	 mov	 QWORD PTR [rsp+8], rcx
  0000f	55		 push	 rbp
  00010	57		 push	 rdi
  00011	48 81 ec 28 01
	00 00		 sub	 rsp, 296		; 00000128H
  00018	48 8d 6c 24 20	 lea	 rbp, QWORD PTR [rsp+32]
  0001d	48 8d 7c 24 20	 lea	 rdi, QWORD PTR [rsp+32]
  00022	b9 12 00 00 00	 mov	 ecx, 18
  00027	b8 cc cc cc cc	 mov	 eax, -858993460		; ccccccccH
  0002c	f3 ab		 rep stosd
  0002e	48 8b 8c 24 48
	01 00 00	 mov	 rcx, QWORD PTR [rsp+328]
  00036	48 8b 05 00 00
	00 00		 mov	 rax, QWORD PTR __security_cookie
  0003d	48 33 c5	 xor	 rax, rbp
  00040	48 89 85 f8 00
	00 00		 mov	 QWORD PTR __$ArrayPad$[rbp], rax
  00047	48 8d 0d 00 00
	00 00		 lea	 rcx, OFFSET FLAT:__C0C4C773_xstring
  0004e	e8 00 00 00 00	 call	 __CheckForDebuggerJustMyCode
  00053	90		 npad	 1

; 2885 :         const size_type _Masked = _Requested | _Alloc_mask;

  00054	48 8b 85 20 01
	00 00		 mov	 rax, QWORD PTR _Requested$[rbp]
  0005b	48 83 c8 0f	 or	 rax, 15
  0005f	48 89 45 08	 mov	 QWORD PTR _Masked$[rbp], rax

; 2886 :         if (_Masked > _Max) { // the mask overflows, settle for max_size()

  00063	48 8b 85 30 01
	00 00		 mov	 rax, QWORD PTR _Max$[rbp]
  0006a	48 39 45 08	 cmp	 QWORD PTR _Masked$[rbp], rax
  0006e	76 09		 jbe	 SHORT $LN2@Calculate_

; 2887 :             return _Max;

  00070	48 8b 85 30 01
	00 00		 mov	 rax, QWORD PTR _Max$[rbp]
  00077	eb 68		 jmp	 SHORT $LN1@Calculate_
$LN2@Calculate_:

; 2888 :         }
; 2889 : 
; 2890 :         if (_Old > _Max - _Old / 2) { // similarly, geometric overflows

  00079	33 d2		 xor	 edx, edx
  0007b	48 8b 85 28 01
	00 00		 mov	 rax, QWORD PTR _Old$[rbp]
  00082	b9 02 00 00 00	 mov	 ecx, 2
  00087	48 f7 f1	 div	 rcx
  0008a	48 8b 8d 30 01
	00 00		 mov	 rcx, QWORD PTR _Max$[rbp]
  00091	48 2b c8	 sub	 rcx, rax
  00094	48 8b c1	 mov	 rax, rcx
  00097	48 39 85 28 01
	00 00		 cmp	 QWORD PTR _Old$[rbp], rax
  0009e	76 09		 jbe	 SHORT $LN3@Calculate_

; 2891 :             return _Max;

  000a0	48 8b 85 30 01
	00 00		 mov	 rax, QWORD PTR _Max$[rbp]
  000a7	eb 38		 jmp	 SHORT $LN1@Calculate_
$LN3@Calculate_:

; 2892 :         }
; 2893 : 
; 2894 :         return (_STD max)(_Masked, _Old + _Old / 2);

  000a9	33 d2		 xor	 edx, edx
  000ab	48 8b 85 28 01
	00 00		 mov	 rax, QWORD PTR _Old$[rbp]
  000b2	b9 02 00 00 00	 mov	 ecx, 2
  000b7	48 f7 f1	 div	 rcx
  000ba	48 8b 8d 28 01
	00 00		 mov	 rcx, QWORD PTR _Old$[rbp]
  000c1	48 03 c8	 add	 rcx, rax
  000c4	48 8b c1	 mov	 rax, rcx
  000c7	48 89 85 e8 00
	00 00		 mov	 QWORD PTR $T4[rbp], rax
  000ce	48 8d 95 e8 00
	00 00		 lea	 rdx, QWORD PTR $T4[rbp]
  000d5	48 8d 4d 08	 lea	 rcx, QWORD PTR _Masked$[rbp]
  000d9	e8 00 00 00 00	 call	 ??$max@_K@std@@YAAEB_KAEB_K0@Z ; std::max<unsigned __int64>
  000de	48 8b 00	 mov	 rax, QWORD PTR [rax]
$LN1@Calculate_:

; 2895 :     }

  000e1	48 8b f8	 mov	 rdi, rax
  000e4	48 8d 4d e0	 lea	 rcx, QWORD PTR [rbp-32]
  000e8	48 8d 15 00 00
	00 00		 lea	 rdx, OFFSET FLAT:?_Calculate_growth@?$basic_string@DU?$char_traits@D@std@@V?$allocator@D@2@@std@@CA_K_K00@Z$rtcFrameData
  000ef	e8 00 00 00 00	 call	 _RTC_CheckStackVars
  000f4	48 8b c7	 mov	 rax, rdi
  000f7	48 8b 8d f8 00
	00 00		 mov	 rcx, QWORD PTR __$ArrayPad$[rbp]
  000fe	48 33 cd	 xor	 rcx, rbp
  00101	e8 00 00 00 00	 call	 __security_check_cookie
  00106	48 8d a5 08 01
	00 00		 lea	 rsp, QWORD PTR [rbp+264]
  0010d	5f		 pop	 rdi
  0010e	5d		 pop	 rbp
  0010f	c3		 ret	 0
?_Calculate_growth@?$basic_string@DU?$char_traits@D@std@@V?$allocator@D@2@@std@@CA_K_K00@Z ENDP ; std::basic_string<char,std::char_traits<char>,std::allocator<char> >::_Calculate_growth
_TEXT	ENDS
; Function compile flags: /Odtp /RTCsu /ZI
; File C:\Program Files\Microsoft Visual Studio\18\Community\VC\Tools\MSVC\14.50.35717\include\xstring
;	COMDAT ?max_size@?$basic_string@DU?$char_traits@D@std@@V?$allocator@D@2@@std@@QEBA_KXZ
_TEXT	SEGMENT
_Alloc_max$ = 8
_Storage_max$ = 40
$T4 = 264
$T5 = 296
$T6 = 328
__$ArrayPad$ = 344
this$ = 384
?max_size@?$basic_string@DU?$char_traits@D@std@@V?$allocator@D@2@@std@@QEBA_KXZ PROC ; std::basic_string<char,std::char_traits<char>,std::allocator<char> >::max_size, COMDAT

; 2284 :     _NODISCARD _CONSTEXPR20 size_type max_size() const noexcept {

$LN4:
  00000	48 89 4c 24 08	 mov	 QWORD PTR [rsp+8], rcx
  00005	55		 push	 rbp
  00006	57		 push	 rdi
  00007	48 81 ec 88 01
	00 00		 sub	 rsp, 392		; 00000188H
  0000e	48 8d 6c 24 20	 lea	 rbp, QWORD PTR [rsp+32]
  00013	48 8d 7c 24 20	 lea	 rdi, QWORD PTR [rsp+32]
  00018	b9 2a 00 00 00	 mov	 ecx, 42			; 0000002aH
  0001d	b8 cc cc cc cc	 mov	 eax, -858993460		; ccccccccH
  00022	f3 ab		 rep stosd
  00024	48 8b 8c 24 a8
	01 00 00	 mov	 rcx, QWORD PTR [rsp+424]
  0002c	48 8b 05 00 00
	00 00		 mov	 rax, QWORD PTR __security_cookie
  00033	48 33 c5	 xor	 rax, rbp
  00036	48 89 85 58 01
	00 00		 mov	 QWORD PTR __$ArrayPad$[rbp], rax
  0003d	48 8d 0d 00 00
	00 00		 lea	 rcx, OFFSET FLAT:__C0C4C773_xstring
  00044	e8 00 00 00 00	 call	 __CheckForDebuggerJustMyCode
  00049	90		 npad	 1

; 2285 :         const size_type _Alloc_max   = _Alty_traits::max_size(_Getal());

  0004a	48 8b 8d 80 01
	00 00		 mov	 rcx, QWORD PTR this$[rbp]
  00051	e8 00 00 00 00	 call	 ?_Getal@?$basic_string@DU?$char_traits@D@std@@V?$allocator@D@2@@std@@AEBAAEBV?$allocator@D@2@XZ ; std::basic_string<char,std::char_traits<char>,std::allocator<char> >::_Getal
  00056	48 8b c8	 mov	 rcx, rax
  00059	e8 00 00 00 00	 call	 ?max_size@?$_Default_allocator_traits@V?$allocator@D@std@@@std@@SA_KAEBV?$allocator@D@2@@Z ; std::_Default_allocator_traits<std::allocator<char> >::max_size
  0005e	48 89 45 08	 mov	 QWORD PTR _Alloc_max$[rbp], rax

; 2286 :         const size_type _Storage_max = // can always store small string

  00062	48 c7 85 08 01
	00 00 10 00 00
	00		 mov	 QWORD PTR $T4[rbp], 16
  0006d	48 8d 95 08 01
	00 00		 lea	 rdx, QWORD PTR $T4[rbp]
  00074	48 8d 4d 08	 lea	 rcx, QWORD PTR _Alloc_max$[rbp]
  00078	e8 00 00 00 00	 call	 ??$max@_K@std@@YAAEB_KAEB_K0@Z ; std::max<unsigned __int64>
  0007d	48 8b 00	 mov	 rax, QWORD PTR [rax]
  00080	48 89 45 28	 mov	 QWORD PTR _Storage_max$[rbp], rax

; 2287 :             (_STD max)(_Alloc_max, static_cast<size_type>(_BUF_SIZE));
; 2288 :         return (_STD min)(static_cast<size_type>(_STD _Max_limit<difference_type>()),

  00084	48 c7 85 28 01
	00 00 fe ff ff
	ff		 mov	 QWORD PTR $T5[rbp], -2
  0008f	e8 00 00 00 00	 call	 ??$_Max_limit@_J@std@@YA_JXZ ; std::_Max_limit<__int64>
  00094	48 89 85 48 01
	00 00		 mov	 QWORD PTR $T6[rbp], rax
  0009b	48 8d 95 28 01
	00 00		 lea	 rdx, QWORD PTR $T5[rbp]
  000a2	48 8d 8d 48 01
	00 00		 lea	 rcx, QWORD PTR $T6[rbp]
  000a9	e8 00 00 00 00	 call	 ??$min@_K@std@@YAAEB_KAEB_K0@Z ; std::min<unsigned __int64>
  000ae	48 8b 00	 mov	 rax, QWORD PTR [rax]

; 2289 :             _Storage_max - 1 // -1 is for null terminator and/or npos
; 2290 :         );
; 2291 :     }

  000b1	48 8b f8	 mov	 rdi, rax
  000b4	48 8d 4d e0	 lea	 rcx, QWORD PTR [rbp-32]
  000b8	48 8d 15 00 00
	00 00		 lea	 rdx, OFFSET FLAT:?max_size@?$basic_string@DU?$char_traits@D@std@@V?$allocator@D@2@@std@@QEBA_KXZ$rtcFrameData
  000bf	e8 00 00 00 00	 call	 _RTC_CheckStackVars
  000c4	48 8b c7	 mov	 rax, rdi
  000c7	48 8b 8d 58 01
	00 00		 mov	 rcx, QWORD PTR __$ArrayPad$[rbp]
  000ce	48 33 cd	 xor	 rcx, rbp
  000d1	e8 00 00 00 00	 call	 __security_check_cookie
  000d6	48 8d a5 68 01
	00 00		 lea	 rsp, QWORD PTR [rbp+360]
  000dd	5f		 pop	 rdi
  000de	5d		 pop	 rbp
  000df	c3		 ret	 0
?max_size@?$basic_string@DU?$char_traits@D@std@@V?$allocator@D@2@@std@@QEBA_KXZ ENDP ; std::basic_string<char,std::char_traits<char>,std::allocator<char> >::max_size
_TEXT	ENDS
; Function compile flags: /Odtp /RTCsu /ZI
; File C:\Program Files\Microsoft Visual Studio\18\Community\VC\Tools\MSVC\14.50.35717\include\xstring
;	COMDAT ?c_str@?$basic_string@DU?$char_traits@D@std@@V?$allocator@D@2@@std@@QEBAPEBDXZ
_TEXT	SEGMENT
this$ = 224
?c_str@?$basic_string@DU?$char_traits@D@std@@V?$allocator@D@2@@std@@QEBAPEBDXZ PROC ; std::basic_string<char,std::char_traits<char>,std::allocator<char> >::c_str, COMDAT

; 2262 :     _NODISCARD _CONSTEXPR20 _Ret_z_ const _Elem* c_str() const noexcept {

$LN4:
  00000	48 89 4c 24 08	 mov	 QWORD PTR [rsp+8], rcx
  00005	55		 push	 rbp
  00006	57		 push	 rdi
  00007	48 81 ec e8 00
	00 00		 sub	 rsp, 232		; 000000e8H
  0000e	48 8d 6c 24 20	 lea	 rbp, QWORD PTR [rsp+32]
  00013	48 8d 0d 00 00
	00 00		 lea	 rcx, OFFSET FLAT:__C0C4C773_xstring
  0001a	e8 00 00 00 00	 call	 __CheckForDebuggerJustMyCode
  0001f	90		 npad	 1

; 2263 :         return _Mypair._Myval2._Myptr();

  00020	48 8b 85 e0 00
	00 00		 mov	 rax, QWORD PTR this$[rbp]
  00027	48 8b c8	 mov	 rcx, rax
  0002a	e8 00 00 00 00	 call	 ?_Myptr@?$_String_val@U?$_Simple_types@D@std@@@std@@QEBAPEBDXZ ; std::_String_val<std::_Simple_types<char> >::_Myptr

; 2264 :     }

  0002f	48 8d a5 c8 00
	00 00		 lea	 rsp, QWORD PTR [rbp+200]
  00036	5f		 pop	 rdi
  00037	5d		 pop	 rbp
  00038	c3		 ret	 0
?c_str@?$basic_string@DU?$char_traits@D@std@@V?$allocator@D@2@@std@@QEBAPEBDXZ ENDP ; std::basic_string<char,std::char_traits<char>,std::allocator<char> >::c_str
_TEXT	ENDS
; Function compile flags: /Odtp /RTCsu /ZI
; File C:\Program Files\Microsoft Visual Studio\18\Community\VC\Tools\MSVC\14.50.35717\include\xstring
;	COMDAT ?append@?$basic_string@DU?$char_traits@D@std@@V?$allocator@D@2@@std@@QEAAAEAV12@QEBD@Z
_TEXT	SEGMENT
this$ = 224
_Ptr$ = 232
?append@?$basic_string@DU?$char_traits@D@std@@V?$allocator@D@2@@std@@QEAAAEAV12@QEBD@Z PROC ; std::basic_string<char,std::char_traits<char>,std::allocator<char> >::append, COMDAT

; 1565 :     _CONSTEXPR20 basic_string& append(_In_z_ const _Elem* const _Ptr) { // append [_Ptr, <null>)

$LN3:
  00000	48 89 54 24 10	 mov	 QWORD PTR [rsp+16], rdx
  00005	48 89 4c 24 08	 mov	 QWORD PTR [rsp+8], rcx
  0000a	55		 push	 rbp
  0000b	57		 push	 rdi
  0000c	48 81 ec e8 00
	00 00		 sub	 rsp, 232		; 000000e8H
  00013	48 8d 6c 24 20	 lea	 rbp, QWORD PTR [rsp+32]
  00018	48 8d 0d 00 00
	00 00		 lea	 rcx, OFFSET FLAT:__C0C4C773_xstring
  0001f	e8 00 00 00 00	 call	 __CheckForDebuggerJustMyCode
  00024	90		 npad	 1

; 1566 :         return _Append(_Ptr, _Convert_size<size_type>(_Traits::length(_Ptr)));

  00025	48 8b 8d e8 00
	00 00		 mov	 rcx, QWORD PTR _Ptr$[rbp]
  0002c	e8 00 00 00 00	 call	 ?length@?$_Narrow_char_traits@DH@std@@SA_KQEBD@Z ; std::_Narrow_char_traits<char,int>::length
  00031	48 8b c8	 mov	 rcx, rax
  00034	e8 00 00 00 00	 call	 ??$_Convert_size@_K_K@std@@YA_K_K@Z ; std::_Convert_size<unsigned __int64,unsigned __int64>
  00039	4c 8b c0	 mov	 r8, rax
  0003c	48 8b 95 e8 00
	00 00		 mov	 rdx, QWORD PTR _Ptr$[rbp]
  00043	48 8b 8d e0 00
	00 00		 mov	 rcx, QWORD PTR this$[rbp]
  0004a	e8 00 00 00 00	 call	 ??$_Append@D@?$basic_string@DU?$char_traits@D@std@@V?$allocator@D@2@@std@@AEAAAEAV01@QEBD_K@Z ; std::basic_string<char,std::char_traits<char>,std::allocator<char> >::_Append<char>

; 1567 :     }

  0004f	48 8d a5 c8 00
	00 00		 lea	 rsp, QWORD PTR [rbp+200]
  00056	5f		 pop	 rdi
  00057	5d		 pop	 rbp
  00058	c3		 ret	 0
?append@?$basic_string@DU?$char_traits@D@std@@V?$allocator@D@2@@std@@QEAAAEAV12@QEBD@Z ENDP ; std::basic_string<char,std::char_traits<char>,std::allocator<char> >::append
_TEXT	ENDS
; Function compile flags: /Odtp /RTCsu /ZI
; File C:\Program Files\Microsoft Visual Studio\18\Community\VC\Tools\MSVC\14.50.35717\include\xstring
;	COMDAT ??1?$basic_string@DU?$char_traits@D@std@@V?$allocator@D@2@@std@@QEAA@XZ
_TEXT	SEGMENT
_Alproxy$ = 4
_To_delete$ = 40
__$ArrayPad$ = 248
this$ = 288
??1?$basic_string@DU?$char_traits@D@std@@V?$allocator@D@2@@std@@QEAA@XZ PROC ; std::basic_string<char,std::char_traits<char>,std::allocator<char> >::~basic_string<char,std::char_traits<char>,std::allocator<char> >, COMDAT

; 1432 :     _CONSTEXPR20 ~basic_string() noexcept {

$LN4:
  00000	48 89 4c 24 08	 mov	 QWORD PTR [rsp+8], rcx
  00005	55		 push	 rbp
  00006	57		 push	 rdi
  00007	48 81 ec 28 01
	00 00		 sub	 rsp, 296		; 00000128H
  0000e	48 8d 6c 24 20	 lea	 rbp, QWORD PTR [rsp+32]
  00013	48 8d 7c 24 20	 lea	 rdi, QWORD PTR [rsp+32]
  00018	b9 12 00 00 00	 mov	 ecx, 18
  0001d	b8 cc cc cc cc	 mov	 eax, -858993460		; ccccccccH
  00022	f3 ab		 rep stosd
  00024	48 8b 8c 24 48
	01 00 00	 mov	 rcx, QWORD PTR [rsp+328]
  0002c	48 8b 05 00 00
	00 00		 mov	 rax, QWORD PTR __security_cookie
  00033	48 33 c5	 xor	 rax, rbp
  00036	48 89 85 f8 00
	00 00		 mov	 QWORD PTR __$ArrayPad$[rbp], rax
  0003d	48 8d 0d 00 00
	00 00		 lea	 rcx, OFFSET FLAT:__C0C4C773_xstring
  00044	e8 00 00 00 00	 call	 __CheckForDebuggerJustMyCode
  00049	90		 npad	 1

; 1433 :         _Tidy_deallocate();

  0004a	48 8b 8d 20 01
	00 00		 mov	 rcx, QWORD PTR this$[rbp]
  00051	e8 00 00 00 00	 call	 ?_Tidy_deallocate@?$basic_string@DU?$char_traits@D@std@@V?$allocator@D@2@@std@@AEAAXXZ ; std::basic_string<char,std::char_traits<char>,std::allocator<char> >::_Tidy_deallocate
  00056	90		 npad	 1

; 1434 : #if _ITERATOR_DEBUG_LEVEL != 0
; 1435 :         auto _Alproxy            = _STD _Get_proxy_allocator(_Getal());

  00057	48 8b 8d 20 01
	00 00		 mov	 rcx, QWORD PTR this$[rbp]
  0005e	e8 00 00 00 00	 call	 ?_Getal@?$basic_string@DU?$char_traits@D@std@@V?$allocator@D@2@@std@@AEAAAEAV?$allocator@D@2@XZ ; std::basic_string<char,std::char_traits<char>,std::allocator<char> >::_Getal
  00063	48 8b d0	 mov	 rdx, rax
  00066	48 8d 4d 04	 lea	 rcx, QWORD PTR _Alproxy$[rbp]
  0006a	e8 00 00 00 00	 call	 ??$_Get_proxy_allocator@V?$allocator@D@std@@@std@@YA?AV?$allocator@U_Container_proxy@std@@@0@AEBV?$allocator@D@0@@Z ; std::_Get_proxy_allocator<std::allocator<char> >
  0006f	90		 npad	 1

; 1436 :         const auto _To_delete    = _Mypair._Myval2._Myproxy;

  00070	48 8b 85 20 01
	00 00		 mov	 rax, QWORD PTR this$[rbp]
  00077	48 8b 00	 mov	 rax, QWORD PTR [rax]
  0007a	48 89 45 28	 mov	 QWORD PTR _To_delete$[rbp], rax

; 1437 :         _Mypair._Myval2._Myproxy = nullptr;

  0007e	48 8b 85 20 01
	00 00		 mov	 rax, QWORD PTR this$[rbp]
  00085	48 c7 00 00 00
	00 00		 mov	 QWORD PTR [rax], 0

; 1438 :         _Delete_plain_internal(_Alproxy, _To_delete);

  0008c	48 8b 55 28	 mov	 rdx, QWORD PTR _To_delete$[rbp]
  00090	48 8d 4d 04	 lea	 rcx, QWORD PTR _Alproxy$[rbp]
  00094	e8 00 00 00 00	 call	 ??$_Delete_plain_internal@V?$allocator@U_Container_proxy@std@@@std@@@std@@YAXAEAV?$allocator@U_Container_proxy@std@@@0@QEAU_Container_proxy@0@@Z ; std::_Delete_plain_internal<std::allocator<std::_Container_proxy> >
  00099	90		 npad	 1

; 1439 : #endif // _ITERATOR_DEBUG_LEVEL != 0
; 1440 :     }

  0009a	48 8b 85 20 01
	00 00		 mov	 rax, QWORD PTR this$[rbp]
  000a1	48 8b c8	 mov	 rcx, rax
  000a4	e8 00 00 00 00	 call	 ??1?$_Compressed_pair@V?$allocator@D@std@@V?$_String_val@U?$_Simple_types@D@std@@@2@$00@std@@QEAA@XZ
  000a9	90		 npad	 1
  000aa	48 8d 4d e0	 lea	 rcx, QWORD PTR [rbp-32]
  000ae	48 8d 15 00 00
	00 00		 lea	 rdx, OFFSET FLAT:??1?$basic_string@DU?$char_traits@D@std@@V?$allocator@D@2@@std@@QEAA@XZ$rtcFrameData
  000b5	e8 00 00 00 00	 call	 _RTC_CheckStackVars
  000ba	48 8b 8d f8 00
	00 00		 mov	 rcx, QWORD PTR __$ArrayPad$[rbp]
  000c1	48 33 cd	 xor	 rcx, rbp
  000c4	e8 00 00 00 00	 call	 __security_check_cookie
  000c9	48 8d a5 08 01
	00 00		 lea	 rsp, QWORD PTR [rbp+264]
  000d0	5f		 pop	 rdi
  000d1	5d		 pop	 rbp
  000d2	c3		 ret	 0
??1?$basic_string@DU?$char_traits@D@std@@V?$allocator@D@2@@std@@QEAA@XZ ENDP ; std::basic_string<char,std::char_traits<char>,std::allocator<char> >::~basic_string<char,std::char_traits<char>,std::allocator<char> >
_TEXT	ENDS
; Function compile flags: /Odtp /RTCsu /ZI
; File C:\Program Files\Microsoft Visual Studio\18\Community\VC\Tools\MSVC\14.50.35717\include\xstring
;	COMDAT ?_Take_contents@?$basic_string@DU?$char_traits@D@std@@V?$allocator@D@2@@std@@AEAAXAEAV12@@Z
_TEXT	SEGMENT
_My_data$ = 8
_Right_data$ = 40
_My_data_mem$1 = 72
_Right_data_mem$2 = 104
$T3 = 324
$T4 = 356
tv164 = 376
this$ = 416
_Right$ = 424
?_Take_contents@?$basic_string@DU?$char_traits@D@std@@V?$allocator@D@2@@std@@AEAAXAEAV12@@Z PROC ; std::basic_string<char,std::char_traits<char>,std::allocator<char> >::_Take_contents, COMDAT

; 1308 :     _CONSTEXPR20 void _Take_contents(basic_string& _Right) noexcept {

$LN9:
  00000	48 89 54 24 10	 mov	 QWORD PTR [rsp+16], rdx
  00005	48 89 4c 24 08	 mov	 QWORD PTR [rsp+8], rcx
  0000a	55		 push	 rbp
  0000b	57		 push	 rdi
  0000c	48 81 ec a8 01
	00 00		 sub	 rsp, 424		; 000001a8H
  00013	48 8d 6c 24 20	 lea	 rbp, QWORD PTR [rsp+32]
  00018	48 8d 0d 00 00
	00 00		 lea	 rcx, OFFSET FLAT:__C0C4C773_xstring
  0001f	e8 00 00 00 00	 call	 __CheckForDebuggerJustMyCode
  00024	90		 npad	 1

; 1309 :         // assign by stealing _Right's buffer
; 1310 :         // pre: this != &_Right
; 1311 :         // pre: allocator propagation (POCMA) from _Right, if necessary, is complete
; 1312 :         // pre: *this owns no memory, iterators orphaned
; 1313 :         // (note: _Buf/_Ptr/_Mysize/_Myres may be garbage init)
; 1314 :         auto& _My_data    = _Mypair._Myval2;

  00025	48 8b 85 a0 01
	00 00		 mov	 rax, QWORD PTR this$[rbp]
  0002c	48 89 45 08	 mov	 QWORD PTR _My_data$[rbp], rax

; 1315 :         auto& _Right_data = _Right._Mypair._Myval2;

  00030	48 8b 85 a8 01
	00 00		 mov	 rax, QWORD PTR _Right$[rbp]
  00037	48 89 45 28	 mov	 QWORD PTR _Right_data$[rbp], rax

; 1316 : 
; 1317 : #if !defined(_INSERT_STRING_ANNOTATION)
; 1318 :         if constexpr (_Can_memcpy_val) {
; 1319 : #if _HAS_CXX20
; 1320 :             if (!_STD is_constant_evaluated())

  0003b	e8 00 00 00 00	 call	 ?is_constant_evaluated@std@@YA_NXZ ; std::is_constant_evaluated
  00040	0f b6 c0	 movzx	 eax, al
  00043	85 c0		 test	 eax, eax
  00045	0f 85 c2 00 00
	00		 jne	 $LN2@Take_conte

; 1321 : #endif // _HAS_CXX20
; 1322 :             {
; 1323 : #if _ITERATOR_DEBUG_LEVEL != 0
; 1324 :                 if (_Right_data._Large_mode_engaged()) {

  0004b	48 8b 4d 28	 mov	 rcx, QWORD PTR _Right_data$[rbp]
  0004f	e8 00 00 00 00	 call	 ?_Large_mode_engaged@?$_String_val@U?$_Simple_types@D@std@@@std@@QEBA_NXZ ; std::_String_val<std::_Simple_types<char> >::_Large_mode_engaged
  00054	0f b6 c0	 movzx	 eax, al
  00057	85 c0		 test	 eax, eax
  00059	74 16		 je	 SHORT $LN3@Take_conte

; 1325 :                     // take ownership of _Right's iterators along with its buffer
; 1326 :                     _Swap_proxy_and_iterators(_Right);

  0005b	48 8b 95 a8 01
	00 00		 mov	 rdx, QWORD PTR _Right$[rbp]
  00062	48 8b 8d a0 01
	00 00		 mov	 rcx, QWORD PTR this$[rbp]
  00069	e8 00 00 00 00	 call	 ?_Swap_proxy_and_iterators@?$basic_string@DU?$char_traits@D@std@@V?$allocator@D@2@@std@@AEAAXAEAV12@@Z ; std::basic_string<char,std::char_traits<char>,std::allocator<char> >::_Swap_proxy_and_iterators
  0006e	90		 npad	 1

; 1327 :                 } else {

  0006f	eb 0a		 jmp	 SHORT $LN4@Take_conte
$LN3@Take_conte:

; 1328 :                     _Right_data._Orphan_all();

  00071	48 8b 4d 28	 mov	 rcx, QWORD PTR _Right_data$[rbp]
  00075	e8 00 00 00 00	 call	 ?_Orphan_all@_Container_base12@std@@QEAAXXZ ; std::_Container_base12::_Orphan_all
  0007a	90		 npad	 1
$LN4@Take_conte:

; 1329 :                 }
; 1330 : #endif // _ITERATOR_DEBUG_LEVEL != 0
; 1331 : 
; 1332 :                 const auto _My_data_mem =

  0007b	48 8b 85 a0 01
	00 00		 mov	 rax, QWORD PTR this$[rbp]
  00082	48 8b c8	 mov	 rcx, rax
  00085	e8 00 00 00 00	 call	 ??$addressof@V?$_String_val@U?$_Simple_types@D@std@@@std@@@std@@YAPEAV?$_String_val@U?$_Simple_types@D@std@@@0@AEAV10@@Z ; std::addressof<std::_String_val<std::_Simple_types<char> > >
  0008a	48 83 c0 08	 add	 rax, 8
  0008e	48 89 45 48	 mov	 QWORD PTR _My_data_mem$1[rbp], rax

; 1333 :                     reinterpret_cast<unsigned char*>(_STD addressof(_Mypair._Myval2)) + _Memcpy_val_offset;
; 1334 :                 const auto _Right_data_mem =

  00092	48 8b 85 a8 01
	00 00		 mov	 rax, QWORD PTR _Right$[rbp]
  00099	48 8b c8	 mov	 rcx, rax
  0009c	e8 00 00 00 00	 call	 ??$addressof@V?$_String_val@U?$_Simple_types@D@std@@@std@@@std@@YAPEAV?$_String_val@U?$_Simple_types@D@std@@@0@AEAV10@@Z ; std::addressof<std::_String_val<std::_Simple_types<char> > >
  000a1	48 83 c0 08	 add	 rax, 8
  000a5	48 89 45 68	 mov	 QWORD PTR _Right_data_mem$2[rbp], rax

; 1335 :                     reinterpret_cast<const unsigned char*>(_STD addressof(_Right._Mypair._Myval2)) + _Memcpy_val_offset;
; 1336 :                 _CSTD memcpy(_My_data_mem, _Right_data_mem, _Memcpy_val_size);

  000a9	41 b8 20 00 00
	00		 mov	 r8d, 32			; 00000020H
  000af	48 8b 55 68	 mov	 rdx, QWORD PTR _Right_data_mem$2[rbp]
  000b3	48 8b 4d 48	 mov	 rcx, QWORD PTR _My_data_mem$1[rbp]
  000b7	e8 00 00 00 00	 call	 memcpy
  000bc	90		 npad	 1

; 1337 : 
; 1338 :                 _Right_data._Mysize = 0;

  000bd	48 8b 45 28	 mov	 rax, QWORD PTR _Right_data$[rbp]
  000c1	48 c7 40 18 00
	00 00 00	 mov	 QWORD PTR [rax+24], 0

; 1339 :                 _Right_data._Myres  = _Small_string_capacity;

  000c9	48 8b 45 28	 mov	 rax, QWORD PTR _Right_data$[rbp]
  000cd	48 c7 40 20 0f
	00 00 00	 mov	 QWORD PTR [rax+32], 15

; 1340 :                 _Right_data._Activate_SSO_buffer();

  000d5	48 8b 4d 28	 mov	 rcx, QWORD PTR _Right_data$[rbp]
  000d9	e8 00 00 00 00	 call	 ?_Activate_SSO_buffer@?$_String_val@U?$_Simple_types@D@std@@@std@@QEAAXXZ ; std::_String_val<std::_Simple_types<char> >::_Activate_SSO_buffer
  000de	90		 npad	 1

; 1341 :                 _Traits::assign(_Right_data._Bx._Buf[0], _Elem());

  000df	c6 85 44 01 00
	00 00		 mov	 BYTE PTR $T3[rbp], 0
  000e6	b8 01 00 00 00	 mov	 eax, 1
  000eb	48 6b c0 00	 imul	 rax, rax, 0
  000ef	48 8b 4d 28	 mov	 rcx, QWORD PTR _Right_data$[rbp]
  000f3	48 8d 44 01 08	 lea	 rax, QWORD PTR [rcx+rax+8]
  000f8	48 8d 95 44 01
	00 00		 lea	 rdx, QWORD PTR $T3[rbp]
  000ff	48 8b c8	 mov	 rcx, rax
  00102	e8 00 00 00 00	 call	 ?assign@?$_Narrow_char_traits@DH@std@@SAXAEADAEBD@Z ; std::_Narrow_char_traits<char,int>::assign
  00107	90		 npad	 1

; 1342 :                 return;

  00108	e9 fd 00 00 00	 jmp	 $LN1@Take_conte
$LN2@Take_conte:

; 1343 :             }
; 1344 :         }
; 1345 : #endif // !defined(_INSERT_STRING_ANNOTATION)
; 1346 : 
; 1347 :         if (_Right_data._Large_mode_engaged()) { // steal buffer

  0010d	48 8b 4d 28	 mov	 rcx, QWORD PTR _Right_data$[rbp]
  00111	e8 00 00 00 00	 call	 ?_Large_mode_engaged@?$_String_val@U?$_Simple_types@D@std@@@std@@QEBA_NXZ ; std::_String_val<std::_Simple_types<char> >::_Large_mode_engaged
  00116	0f b6 c0	 movzx	 eax, al
  00119	85 c0		 test	 eax, eax
  0011b	74 40		 je	 SHORT $LN5@Take_conte

; 1348 :             _Swap_proxy_and_iterators(_Right);

  0011d	48 8b 95 a8 01
	00 00		 mov	 rdx, QWORD PTR _Right$[rbp]
  00124	48 8b 8d a0 01
	00 00		 mov	 rcx, QWORD PTR this$[rbp]
  0012b	e8 00 00 00 00	 call	 ?_Swap_proxy_and_iterators@?$basic_string@DU?$char_traits@D@std@@V?$allocator@D@2@@std@@AEAAXAEAV12@@Z ; std::basic_string<char,std::char_traits<char>,std::allocator<char> >::_Swap_proxy_and_iterators
  00130	90		 npad	 1

; 1349 : 
; 1350 :             _Construct_in_place(_My_data._Bx._Ptr, _Right_data._Bx._Ptr);

  00131	48 8b 45 28	 mov	 rax, QWORD PTR _Right_data$[rbp]
  00135	48 83 c0 08	 add	 rax, 8
  00139	48 8b 4d 08	 mov	 rcx, QWORD PTR _My_data$[rbp]
  0013d	48 83 c1 08	 add	 rcx, 8
  00141	48 8b d0	 mov	 rdx, rax
  00144	e8 00 00 00 00	 call	 ??$_Construct_in_place@PEADAEAPEAD@std@@YAXAEAPEAD0@Z ; std::_Construct_in_place<char *,char * &>
  00149	90		 npad	 1

; 1351 :             _Right_data._Bx._Switch_to_buf();

  0014a	48 8b 45 28	 mov	 rax, QWORD PTR _Right_data$[rbp]
  0014e	48 83 c0 08	 add	 rax, 8
  00152	48 8b c8	 mov	 rcx, rax
  00155	e8 00 00 00 00	 call	 ?_Switch_to_buf@_Bxty@?$_String_val@U?$_Simple_types@D@std@@@std@@QEAAXXZ ; std::_String_val<std::_Simple_types<char> >::_Bxty::_Switch_to_buf
  0015a	90		 npad	 1

; 1352 :         } else { // copy small string buffer

  0015b	eb 4c		 jmp	 SHORT $LN6@Take_conte
$LN5@Take_conte:

; 1353 :             _Right_data._Orphan_all();

  0015d	48 8b 4d 28	 mov	 rcx, QWORD PTR _Right_data$[rbp]
  00161	e8 00 00 00 00	 call	 ?_Orphan_all@_Container_base12@std@@QEAAXXZ ; std::_Container_base12::_Orphan_all
  00166	90		 npad	 1

; 1354 : 
; 1355 :             _My_data._Activate_SSO_buffer();

  00167	48 8b 4d 08	 mov	 rcx, QWORD PTR _My_data$[rbp]
  0016b	e8 00 00 00 00	 call	 ?_Activate_SSO_buffer@?$_String_val@U?$_Simple_types@D@std@@@std@@QEAAXXZ ; std::_String_val<std::_Simple_types<char> >::_Activate_SSO_buffer
  00170	90		 npad	 1

; 1356 :             _Traits::copy(_My_data._Bx._Buf, _Right_data._Bx._Buf, _Right_data._Mysize + 1);

  00171	48 8b 45 28	 mov	 rax, QWORD PTR _Right_data$[rbp]
  00175	48 8b 40 18	 mov	 rax, QWORD PTR [rax+24]
  00179	48 ff c0	 inc	 rax
  0017c	48 8b 4d 28	 mov	 rcx, QWORD PTR _Right_data$[rbp]
  00180	48 83 c1 08	 add	 rcx, 8
  00184	48 8b 55 08	 mov	 rdx, QWORD PTR _My_data$[rbp]
  00188	48 83 c2 08	 add	 rdx, 8
  0018c	48 89 95 78 01
	00 00		 mov	 QWORD PTR tv164[rbp], rdx
  00193	4c 8b c0	 mov	 r8, rax
  00196	48 8b d1	 mov	 rdx, rcx
  00199	48 8b 85 78 01
	00 00		 mov	 rax, QWORD PTR tv164[rbp]
  001a0	48 8b c8	 mov	 rcx, rax
  001a3	e8 00 00 00 00	 call	 ?copy@?$_Char_traits@DH@std@@SAPEADQEADQEBD_K@Z ; std::_Char_traits<char,int>::copy
  001a8	90		 npad	 1
$LN6@Take_conte:

; 1357 :         }
; 1358 : 
; 1359 :         _My_data._Myres  = _Right_data._Myres;

  001a9	48 8b 45 08	 mov	 rax, QWORD PTR _My_data$[rbp]
  001ad	48 8b 4d 28	 mov	 rcx, QWORD PTR _Right_data$[rbp]
  001b1	48 8b 49 20	 mov	 rcx, QWORD PTR [rcx+32]
  001b5	48 89 48 20	 mov	 QWORD PTR [rax+32], rcx

; 1360 :         _My_data._Mysize = _Right_data._Mysize;

  001b9	48 8b 45 08	 mov	 rax, QWORD PTR _My_data$[rbp]
  001bd	48 8b 4d 28	 mov	 rcx, QWORD PTR _Right_data$[rbp]
  001c1	48 8b 49 18	 mov	 rcx, QWORD PTR [rcx+24]
  001c5	48 89 48 18	 mov	 QWORD PTR [rax+24], rcx

; 1361 : 
; 1362 :         _Right_data._Mysize = 0;

  001c9	48 8b 45 28	 mov	 rax, QWORD PTR _Right_data$[rbp]
  001cd	48 c7 40 18 00
	00 00 00	 mov	 QWORD PTR [rax+24], 0

; 1363 :         _Right_data._Myres  = _Small_string_capacity;

  001d5	48 8b 45 28	 mov	 rax, QWORD PTR _Right_data$[rbp]
  001d9	48 c7 40 20 0f
	00 00 00	 mov	 QWORD PTR [rax+32], 15

; 1364 :         _Traits::assign(_Right_data._Bx._Buf[0], _Elem());

  001e1	c6 85 64 01 00
	00 00		 mov	 BYTE PTR $T4[rbp], 0
  001e8	b8 01 00 00 00	 mov	 eax, 1
  001ed	48 6b c0 00	 imul	 rax, rax, 0
  001f1	48 8b 4d 28	 mov	 rcx, QWORD PTR _Right_data$[rbp]
  001f5	48 8d 44 01 08	 lea	 rax, QWORD PTR [rcx+rax+8]
  001fa	48 8d 95 64 01
	00 00		 lea	 rdx, QWORD PTR $T4[rbp]
  00201	48 8b c8	 mov	 rcx, rax
  00204	e8 00 00 00 00	 call	 ?assign@?$_Narrow_char_traits@DH@std@@SAXAEADAEBD@Z ; std::_Narrow_char_traits<char,int>::assign
  00209	90		 npad	 1
$LN1@Take_conte:

; 1365 :     }

  0020a	48 8d a5 88 01
	00 00		 lea	 rsp, QWORD PTR [rbp+392]
  00211	5f		 pop	 rdi
  00212	5d		 pop	 rbp
  00213	c3		 ret	 0
?_Take_contents@?$basic_string@DU?$char_traits@D@std@@V?$allocator@D@2@@std@@AEAAXAEAV12@@Z ENDP ; std::basic_string<char,std::char_traits<char>,std::allocator<char> >::_Take_contents
_TEXT	ENDS
; Function compile flags: /Odtp /RTCsu /ZI
; File C:\Program Files\Microsoft Visual Studio\18\Community\VC\Tools\MSVC\14.50.35717\include\xstring
;	COMDAT ??0?$basic_string@DU?$char_traits@D@std@@V?$allocator@D@2@@std@@QEAA@$$QEAV01@@Z
_TEXT	SEGMENT
$T1 = 196
$T2 = 228
$T3 = 260
tv75 = 280
tv92 = 280
tv73 = 288
this$ = 336
_Right$ = 344
??0?$basic_string@DU?$char_traits@D@std@@V?$allocator@D@2@@std@@QEAA@$$QEAV01@@Z PROC ; std::basic_string<char,std::char_traits<char>,std::allocator<char> >::basic_string<char,std::char_traits<char>,std::allocator<char> >, COMDAT

; 1078 :         : _Mypair(_One_then_variadic_args_t{}, _STD move(_Right._Getal())) {

$LN4:
  00000	48 89 54 24 10	 mov	 QWORD PTR [rsp+16], rdx
  00005	48 89 4c 24 08	 mov	 QWORD PTR [rsp+8], rcx
  0000a	55		 push	 rbp
  0000b	57		 push	 rdi
  0000c	48 81 ec 58 01
	00 00		 sub	 rsp, 344		; 00000158H
  00013	48 8d 6c 24 20	 lea	 rbp, QWORD PTR [rsp+32]
  00018	48 8d 0d 00 00
	00 00		 lea	 rcx, OFFSET FLAT:__C0C4C773_xstring
  0001f	e8 00 00 00 00	 call	 __CheckForDebuggerJustMyCode
  00024	90		 npad	 1
  00025	48 8b 85 50 01
	00 00		 mov	 rax, QWORD PTR this$[rbp]
  0002c	48 89 85 18 01
	00 00		 mov	 QWORD PTR tv75[rbp], rax
  00033	48 8b 8d 58 01
	00 00		 mov	 rcx, QWORD PTR _Right$[rbp]
  0003a	e8 00 00 00 00	 call	 ?_Getal@?$basic_string@DU?$char_traits@D@std@@V?$allocator@D@2@@std@@AEAAAEAV?$allocator@D@2@XZ ; std::basic_string<char,std::char_traits<char>,std::allocator<char> >::_Getal
  0003f	48 89 85 20 01
	00 00		 mov	 QWORD PTR tv73[rbp], rax
  00046	0f b6 85 c4 00
	00 00		 movzx	 eax, BYTE PTR $T1[rbp]
  0004d	88 85 e4 00 00
	00		 mov	 BYTE PTR $T2[rbp], al
  00053	4c 8b 85 20 01
	00 00		 mov	 r8, QWORD PTR tv73[rbp]
  0005a	0f b6 95 e4 00
	00 00		 movzx	 edx, BYTE PTR $T2[rbp]
  00061	48 8b 8d 18 01
	00 00		 mov	 rcx, QWORD PTR tv75[rbp]
  00068	e8 00 00 00 00	 call	 ??$?0V?$allocator@D@std@@$$V@?$_Compressed_pair@V?$allocator@D@std@@V?$_String_val@U?$_Simple_types@D@std@@@2@$00@std@@QEAA@U_One_then_variadic_args_t@1@$$QEAV?$allocator@D@1@@Z ; std::_Compressed_pair<std::allocator<char>,std::_String_val<std::_Simple_types<char> >,1>::_Compressed_pair<std::allocator<char>,std::_String_val<std::_Simple_types<char> >,1><std::allocator<char> >
  0006d	90		 npad	 1

; 1079 :         _Mypair._Myval2._Alloc_proxy(_STD _Get_proxy_allocator(_Getal()));

  0006e	48 8b 85 50 01
	00 00		 mov	 rax, QWORD PTR this$[rbp]
  00075	48 89 85 18 01
	00 00		 mov	 QWORD PTR tv92[rbp], rax
  0007c	48 8b 8d 50 01
	00 00		 mov	 rcx, QWORD PTR this$[rbp]
  00083	e8 00 00 00 00	 call	 ?_Getal@?$basic_string@DU?$char_traits@D@std@@V?$allocator@D@2@@std@@AEAAAEAV?$allocator@D@2@XZ ; std::basic_string<char,std::char_traits<char>,std::allocator<char> >::_Getal
  00088	48 8b d0	 mov	 rdx, rax
  0008b	48 8d 8d 04 01
	00 00		 lea	 rcx, QWORD PTR $T3[rbp]
  00092	e8 00 00 00 00	 call	 ??$_Get_proxy_allocator@V?$allocator@D@std@@@std@@YA?AV?$allocator@U_Container_proxy@std@@@0@AEBV?$allocator@D@0@@Z ; std::_Get_proxy_allocator<std::allocator<char> >
  00097	48 8b d0	 mov	 rdx, rax
  0009a	48 8b 8d 18 01
	00 00		 mov	 rcx, QWORD PTR tv92[rbp]
  000a1	e8 00 00 00 00	 call	 ??$_Alloc_proxy@V?$allocator@U_Container_proxy@std@@@std@@@_Container_base12@std@@QEAAX$$QEAV?$allocator@U_Container_proxy@std@@@1@@Z ; std::_Container_base12::_Alloc_proxy<std::allocator<std::_Container_proxy> >
  000a6	90		 npad	 1

; 1080 :         _Take_contents(_Right);

  000a7	48 8b 95 58 01
	00 00		 mov	 rdx, QWORD PTR _Right$[rbp]
  000ae	48 8b 8d 50 01
	00 00		 mov	 rcx, QWORD PTR this$[rbp]
  000b5	e8 00 00 00 00	 call	 ?_Take_contents@?$basic_string@DU?$char_traits@D@std@@V?$allocator@D@2@@std@@AEAAXAEAV12@@Z ; std::basic_string<char,std::char_traits<char>,std::allocator<char> >::_Take_contents
  000ba	90		 npad	 1

; 1081 :     }

  000bb	48 8b 85 50 01
	00 00		 mov	 rax, QWORD PTR this$[rbp]
  000c2	48 8d a5 38 01
	00 00		 lea	 rsp, QWORD PTR [rbp+312]
  000c9	5f		 pop	 rdi
  000ca	5d		 pop	 rbp
  000cb	c3		 ret	 0
??0?$basic_string@DU?$char_traits@D@std@@V?$allocator@D@2@@std@@QEAA@$$QEAV01@@Z ENDP ; std::basic_string<char,std::char_traits<char>,std::allocator<char> >::basic_string<char,std::char_traits<char>,std::allocator<char> >
_TEXT	ENDS
; Function compile flags: /Odtp /RTCsu /ZI
; File C:\Program Files\Microsoft Visual Studio\18\Community\VC\Tools\MSVC\14.50.35717\include\xstring
;	COMDAT ?_Deallocate_for_capacity@?$basic_string@DU?$char_traits@D@std@@V?$allocator@D@2@@std@@CAXAEAV?$allocator@D@2@QEAD_K@Z
_TEXT	SEGMENT
_Al$ = 224
_Old_ptr$ = 232
_Capacity$ = 240
?_Deallocate_for_capacity@?$basic_string@DU?$char_traits@D@std@@V?$allocator@D@2@@std@@CAXAEAV?$allocator@D@2@QEAD_K@Z PROC ; std::basic_string<char,std::char_traits<char>,std::allocator<char> >::_Deallocate_for_capacity, COMDAT

; 900  :         _Alty& _Al, const pointer _Old_ptr, const size_type _Capacity) noexcept {

$LN4:
  00000	4c 89 44 24 18	 mov	 QWORD PTR [rsp+24], r8
  00005	48 89 54 24 10	 mov	 QWORD PTR [rsp+16], rdx
  0000a	48 89 4c 24 08	 mov	 QWORD PTR [rsp+8], rcx
  0000f	55		 push	 rbp
  00010	57		 push	 rdi
  00011	48 81 ec e8 00
	00 00		 sub	 rsp, 232		; 000000e8H
  00018	48 8d 6c 24 20	 lea	 rbp, QWORD PTR [rsp+32]
  0001d	48 8d 0d 00 00
	00 00		 lea	 rcx, OFFSET FLAT:__C0C4C773_xstring
  00024	e8 00 00 00 00	 call	 __CheckForDebuggerJustMyCode
  00029	90		 npad	 1

; 901  :         _STL_INTERNAL_CHECK(_Capacity > _Small_string_capacity);
; 902  :         _Al.deallocate(_Old_ptr, _Capacity + 1); // +1 for null terminator

  0002a	48 8b 85 f0 00
	00 00		 mov	 rax, QWORD PTR _Capacity$[rbp]
  00031	48 ff c0	 inc	 rax
  00034	4c 8b c0	 mov	 r8, rax
  00037	48 8b 95 e8 00
	00 00		 mov	 rdx, QWORD PTR _Old_ptr$[rbp]
  0003e	48 8b 8d e0 00
	00 00		 mov	 rcx, QWORD PTR _Al$[rbp]
  00045	e8 00 00 00 00	 call	 ?deallocate@?$allocator@D@std@@QEAAXQEAD_K@Z ; std::allocator<char>::deallocate
  0004a	90		 npad	 1

; 903  :     }

  0004b	48 8d a5 c8 00
	00 00		 lea	 rsp, QWORD PTR [rbp+200]
  00052	5f		 pop	 rdi
  00053	5d		 pop	 rbp
  00054	c3		 ret	 0
?_Deallocate_for_capacity@?$basic_string@DU?$char_traits@D@std@@V?$allocator@D@2@@std@@CAXAEAV?$allocator@D@2@QEAD_K@Z ENDP ; std::basic_string<char,std::char_traits<char>,std::allocator<char> >::_Deallocate_for_capacity
_TEXT	ENDS
; Function compile flags: /Odtp /RTCsu /ZI
; File C:\Program Files\Microsoft Visual Studio\18\Community\VC\Tools\MSVC\14.50.35717\include\xstring
;	COMDAT ??0?$basic_string@DU?$char_traits@D@std@@V?$allocator@D@2@@std@@QEAA@QEBD@Z
_TEXT	SEGMENT
$T1 = 196
tv69 = 216
this$ = 256
_Ptr$ = 264
??0?$basic_string@DU?$char_traits@D@std@@V?$allocator@D@2@@std@@QEAA@QEBD@Z PROC ; std::basic_string<char,std::char_traits<char>,std::allocator<char> >::basic_string<char,std::char_traits<char>,std::allocator<char> >, COMDAT

; 818  :     _CONSTEXPR20 basic_string(_In_z_ const _Elem* const _Ptr) : _Mypair(_Zero_then_variadic_args_t{}) {

$LN4:
  00000	48 89 54 24 10	 mov	 QWORD PTR [rsp+16], rdx
  00005	48 89 4c 24 08	 mov	 QWORD PTR [rsp+8], rcx
  0000a	55		 push	 rbp
  0000b	57		 push	 rdi
  0000c	48 81 ec 08 01
	00 00		 sub	 rsp, 264		; 00000108H
  00013	48 8d 6c 24 20	 lea	 rbp, QWORD PTR [rsp+32]
  00018	48 8d 0d 00 00
	00 00		 lea	 rcx, OFFSET FLAT:__C0C4C773_xstring
  0001f	e8 00 00 00 00	 call	 __CheckForDebuggerJustMyCode
  00024	90		 npad	 1
  00025	48 8b 85 00 01
	00 00		 mov	 rax, QWORD PTR this$[rbp]
  0002c	48 89 85 d8 00
	00 00		 mov	 QWORD PTR tv69[rbp], rax
  00033	0f b6 95 c4 00
	00 00		 movzx	 edx, BYTE PTR $T1[rbp]
  0003a	48 8b 8d d8 00
	00 00		 mov	 rcx, QWORD PTR tv69[rbp]
  00041	e8 00 00 00 00	 call	 ??$?0$$V@?$_Compressed_pair@V?$allocator@D@std@@V?$_String_val@U?$_Simple_types@D@std@@@2@$00@std@@QEAA@U_Zero_then_variadic_args_t@1@@Z ; std::_Compressed_pair<std::allocator<char>,std::_String_val<std::_Simple_types<char> >,1>::_Compressed_pair<std::allocator<char>,std::_String_val<std::_Simple_types<char> >,1><>
  00046	90		 npad	 1

; 819  :         _Construct<_Construct_strategy::_From_ptr>(_Ptr, _Convert_size<size_type>(_Traits::length(_Ptr)));

  00047	48 8b 8d 08 01
	00 00		 mov	 rcx, QWORD PTR _Ptr$[rbp]
  0004e	e8 00 00 00 00	 call	 ?length@?$_Narrow_char_traits@DH@std@@SA_KQEBD@Z ; std::_Narrow_char_traits<char,int>::length
  00053	48 8b c8	 mov	 rcx, rax
  00056	e8 00 00 00 00	 call	 ??$_Convert_size@_K_K@std@@YA_K_K@Z ; std::_Convert_size<unsigned __int64,unsigned __int64>
  0005b	4c 8b c0	 mov	 r8, rax
  0005e	48 8b 95 08 01
	00 00		 mov	 rdx, QWORD PTR _Ptr$[rbp]
  00065	48 8b 8d 00 01
	00 00		 mov	 rcx, QWORD PTR this$[rbp]
  0006c	e8 00 00 00 00	 call	 ??$_Construct@$00PEBD@?$basic_string@DU?$char_traits@D@std@@V?$allocator@D@2@@std@@AEAAXQEBD_K@Z ; std::basic_string<char,std::char_traits<char>,std::allocator<char> >::_Construct<1,char const *>
  00071	90		 npad	 1

; 820  :     }

  00072	48 8b 85 00 01
	00 00		 mov	 rax, QWORD PTR this$[rbp]
  00079	48 8d a5 e8 00
	00 00		 lea	 rsp, QWORD PTR [rbp+232]
  00080	5f		 pop	 rdi
  00081	5d		 pop	 rbp
  00082	c3		 ret	 0
??0?$basic_string@DU?$char_traits@D@std@@V?$allocator@D@2@@std@@QEAA@QEBD@Z ENDP ; std::basic_string<char,std::char_traits<char>,std::allocator<char> >::basic_string<char,std::char_traits<char>,std::allocator<char> >
_TEXT	ENDS
; Function compile flags: /Odtp /RTCsu /ZI
;	COMDAT text$x
text$x	SEGMENT
$T1 = 196
tv69 = 216
this$ = 256
_Ptr$ = 264
?dtor$0@?0???0?$basic_string@DU?$char_traits@D@std@@V?$allocator@D@2@@std@@QEAA@QEBD@Z@4HA PROC ; `std::basic_string<char,std::char_traits<char>,std::allocator<char> >::basic_string<char,std::char_traits<char>,std::allocator<char> >'::`1'::dtor$0
  00000	48 89 4c 24 08	 mov	 QWORD PTR [rsp+8], rcx
  00005	48 89 54 24 10	 mov	 QWORD PTR [rsp+16], rdx
  0000a	55		 push	 rbp
  0000b	57		 push	 rdi
  0000c	48 83 ec 28	 sub	 rsp, 40			; 00000028H
  00010	48 8d 6a 20	 lea	 rbp, QWORD PTR [rdx+32]
  00014	48 8b 8d 00 01
	00 00		 mov	 rcx, QWORD PTR this$[rbp]
  0001b	e8 00 00 00 00	 call	 ??1?$_Compressed_pair@V?$allocator@D@std@@V?$_String_val@U?$_Simple_types@D@std@@@2@$00@std@@QEAA@XZ
  00020	48 83 c4 28	 add	 rsp, 40			; 00000028H
  00024	5f		 pop	 rdi
  00025	5d		 pop	 rbp
  00026	c3		 ret	 0
?dtor$0@?0???0?$basic_string@DU?$char_traits@D@std@@V?$allocator@D@2@@std@@QEAA@QEBD@Z@4HA ENDP ; `std::basic_string<char,std::char_traits<char>,std::allocator<char> >::basic_string<char,std::char_traits<char>,std::allocator<char> >'::`1'::dtor$0
text$x	ENDS
; Function compile flags: /Odtp /RTCsu /ZI
;	COMDAT ??1?$_String_val@U?$_Simple_types@D@std@@@std@@QEAA@XZ
_TEXT	SEGMENT
this$ = 224
??1?$_String_val@U?$_Simple_types@D@std@@@std@@QEAA@XZ PROC ; std::_String_val<std::_Simple_types<char> >::~_String_val<std::_Simple_types<char> >, COMDAT
$LN4:
  00000	48 89 4c 24 08	 mov	 QWORD PTR [rsp+8], rcx
  00005	55		 push	 rbp
  00006	57		 push	 rdi
  00007	48 81 ec e8 00
	00 00		 sub	 rsp, 232		; 000000e8H
  0000e	48 8d 6c 24 20	 lea	 rbp, QWORD PTR [rsp+32]
  00013	48 8b 85 e0 00
	00 00		 mov	 rax, QWORD PTR this$[rbp]
  0001a	48 83 c0 08	 add	 rax, 8
  0001e	48 8b c8	 mov	 rcx, rax
  00021	e8 00 00 00 00	 call	 ??1_Bxty@?$_String_val@U?$_Simple_types@D@std@@@std@@QEAA@XZ ; std::_String_val<std::_Simple_types<char> >::_Bxty::~_Bxty
  00026	90		 npad	 1
  00027	48 8d a5 c8 00
	00 00		 lea	 rsp, QWORD PTR [rbp+200]
  0002e	5f		 pop	 rdi
  0002f	5d		 pop	 rbp
  00030	c3		 ret	 0
??1?$_String_val@U?$_Simple_types@D@std@@@std@@QEAA@XZ ENDP ; std::_String_val<std::_Simple_types<char> >::~_String_val<std::_Simple_types<char> >
_TEXT	ENDS
; Function compile flags: /Odtp /RTCsu /ZI
; File C:\Program Files\Microsoft Visual Studio\18\Community\VC\Tools\MSVC\14.50.35717\include\xstring
;	COMDAT ?_Switch_to_buf@_Bxty@?$_String_val@U?$_Simple_types@D@std@@@std@@QEAAXXZ
_TEXT	SEGMENT
_Idx$1 = 8
this$ = 256
?_Switch_to_buf@_Bxty@?$_String_val@U?$_Simple_types@D@std@@@std@@QEAAXXZ PROC ; std::_String_val<std::_Simple_types<char> >::_Bxty::_Switch_to_buf, COMDAT

; 500  :         _CONSTEXPR20 void _Switch_to_buf() noexcept {

$LN8:
  00000	48 89 4c 24 08	 mov	 QWORD PTR [rsp+8], rcx
  00005	55		 push	 rbp
  00006	57		 push	 rdi
  00007	48 81 ec 08 01
	00 00		 sub	 rsp, 264		; 00000108H
  0000e	48 8d 6c 24 20	 lea	 rbp, QWORD PTR [rsp+32]
  00013	48 8d 0d 00 00
	00 00		 lea	 rcx, OFFSET FLAT:__C0C4C773_xstring
  0001a	e8 00 00 00 00	 call	 __CheckForDebuggerJustMyCode
  0001f	90		 npad	 1

; 501  :             _STD _Destroy_in_place(_Ptr);

  00020	48 8b 85 00 01
	00 00		 mov	 rax, QWORD PTR this$[rbp]
  00027	48 8b c8	 mov	 rcx, rax
  0002a	e8 00 00 00 00	 call	 ??$_Destroy_in_place@PEAD@std@@YAXAEAPEAD@Z ; std::_Destroy_in_place<char *>
  0002f	90		 npad	 1

; 502  : 
; 503  : #if _HAS_CXX20
; 504  :             // start the lifetime of the array elements
; 505  :             if (_STD is_constant_evaluated()) {

  00030	e8 00 00 00 00	 call	 ?is_constant_evaluated@std@@YA_NXZ ; std::is_constant_evaluated
  00035	0f b6 c0	 movzx	 eax, al
  00038	85 c0		 test	 eax, eax
  0003a	74 32		 je	 SHORT $LN5@Switch_to_

; 506  :                 for (size_type _Idx = 0; _Idx < _BUF_SIZE; ++_Idx) {

  0003c	48 c7 45 08 00
	00 00 00	 mov	 QWORD PTR _Idx$1[rbp], 0
  00044	eb 0b		 jmp	 SHORT $LN4@Switch_to_
$LN2@Switch_to_:
  00046	48 8b 45 08	 mov	 rax, QWORD PTR _Idx$1[rbp]
  0004a	48 ff c0	 inc	 rax
  0004d	48 89 45 08	 mov	 QWORD PTR _Idx$1[rbp], rax
$LN4@Switch_to_:
  00051	48 83 7d 08 10	 cmp	 QWORD PTR _Idx$1[rbp], 16
  00056	73 16		 jae	 SHORT $LN5@Switch_to_

; 507  :                     _Buf[_Idx] = value_type();

  00058	48 8b 45 08	 mov	 rax, QWORD PTR _Idx$1[rbp]
  0005c	48 8b 8d 00 01
	00 00		 mov	 rcx, QWORD PTR this$[rbp]
  00063	48 03 c8	 add	 rcx, rax
  00066	48 8b c1	 mov	 rax, rcx
  00069	c6 00 00	 mov	 BYTE PTR [rax], 0

; 508  :                 }

  0006c	eb d8		 jmp	 SHORT $LN2@Switch_to_
$LN5@Switch_to_:

; 509  :             }
; 510  : #endif // _HAS_CXX20
; 511  :         }

  0006e	48 8d a5 e8 00
	00 00		 lea	 rsp, QWORD PTR [rbp+232]
  00075	5f		 pop	 rdi
  00076	5d		 pop	 rbp
  00077	c3		 ret	 0
?_Switch_to_buf@_Bxty@?$_String_val@U?$_Simple_types@D@std@@@std@@QEAAXXZ ENDP ; std::_String_val<std::_Simple_types<char> >::_Bxty::_Switch_to_buf
_TEXT	ENDS
; Function compile flags: /Odtp /RTCsu /ZI
; File C:\Program Files\Microsoft Visual Studio\18\Community\VC\Tools\MSVC\14.50.35717\include\xstring
;	COMDAT ??1_Bxty@?$_String_val@U?$_Simple_types@D@std@@@std@@QEAA@XZ
_TEXT	SEGMENT
this$ = 224
??1_Bxty@?$_String_val@U?$_Simple_types@D@std@@@std@@QEAA@XZ PROC ; std::_String_val<std::_Simple_types<char> >::_Bxty::~_Bxty, COMDAT

; 494  :         _CONSTEXPR20 ~_Bxty() noexcept {} // user-provided, for fancy pointers

$LN4:
  00000	48 89 4c 24 08	 mov	 QWORD PTR [rsp+8], rcx
  00005	55		 push	 rbp
  00006	57		 push	 rdi
  00007	48 81 ec e8 00
	00 00		 sub	 rsp, 232		; 000000e8H
  0000e	48 8d 6c 24 20	 lea	 rbp, QWORD PTR [rsp+32]
  00013	48 8d 0d 00 00
	00 00		 lea	 rcx, OFFSET FLAT:__C0C4C773_xstring
  0001a	e8 00 00 00 00	 call	 __CheckForDebuggerJustMyCode
  0001f	90		 npad	 1
  00020	48 8d a5 c8 00
	00 00		 lea	 rsp, QWORD PTR [rbp+200]
  00027	5f		 pop	 rdi
  00028	5d		 pop	 rbp
  00029	c3		 ret	 0
??1_Bxty@?$_String_val@U?$_Simple_types@D@std@@@std@@QEAA@XZ ENDP ; std::_String_val<std::_Simple_types<char> >::_Bxty::~_Bxty
_TEXT	ENDS
; Function compile flags: /Odtp /RTCsu /ZI
; File C:\Program Files\Microsoft Visual Studio\18\Community\VC\Tools\MSVC\14.50.35717\include\xstring
;	COMDAT ??0_Bxty@?$_String_val@U?$_Simple_types@D@std@@@std@@QEAA@XZ
_TEXT	SEGMENT
this$ = 224
??0_Bxty@?$_String_val@U?$_Simple_types@D@std@@@std@@QEAA@XZ PROC ; std::_String_val<std::_Simple_types<char> >::_Bxty::_Bxty, COMDAT

; 493  :         _CONSTEXPR20 _Bxty() noexcept : _Buf() {} // user-provided, for fancy pointers

$LN4:
  00000	48 89 4c 24 08	 mov	 QWORD PTR [rsp+8], rcx
  00005	55		 push	 rbp
  00006	57		 push	 rdi
  00007	48 81 ec e8 00
	00 00		 sub	 rsp, 232		; 000000e8H
  0000e	48 8d 6c 24 20	 lea	 rbp, QWORD PTR [rsp+32]
  00013	48 8d 0d 00 00
	00 00		 lea	 rcx, OFFSET FLAT:__C0C4C773_xstring
  0001a	e8 00 00 00 00	 call	 __CheckForDebuggerJustMyCode
  0001f	90		 npad	 1
  00020	48 8b 85 e0 00
	00 00		 mov	 rax, QWORD PTR this$[rbp]
  00027	48 8b bd e0 00
	00 00		 mov	 rdi, QWORD PTR this$[rbp]
  0002e	33 c0		 xor	 eax, eax
  00030	b9 10 00 00 00	 mov	 ecx, 16
  00035	f3 aa		 rep stosb
  00037	48 8b 85 e0 00
	00 00		 mov	 rax, QWORD PTR this$[rbp]
  0003e	48 8d a5 c8 00
	00 00		 lea	 rsp, QWORD PTR [rbp+200]
  00045	5f		 pop	 rdi
  00046	5d		 pop	 rbp
  00047	c3		 ret	 0
??0_Bxty@?$_String_val@U?$_Simple_types@D@std@@@std@@QEAA@XZ ENDP ; std::_String_val<std::_Simple_types<char> >::_Bxty::_Bxty
_TEXT	ENDS
; Function compile flags: /Odtp /RTCsu /ZI
; File C:\Program Files\Microsoft Visual Studio\18\Community\VC\Tools\MSVC\14.50.35717\include\xstring
;	COMDAT ?_Activate_SSO_buffer@?$_String_val@U?$_Simple_types@D@std@@@std@@QEAAXXZ
_TEXT	SEGMENT
_Idx$1 = 8
this$ = 256
?_Activate_SSO_buffer@?$_String_val@U?$_Simple_types@D@std@@@std@@QEAAXXZ PROC ; std::_String_val<std::_Simple_types<char> >::_Activate_SSO_buffer, COMDAT

; 456  :     _CONSTEXPR20 void _Activate_SSO_buffer() noexcept {

$LN8:
  00000	48 89 4c 24 08	 mov	 QWORD PTR [rsp+8], rcx
  00005	55		 push	 rbp
  00006	57		 push	 rdi
  00007	48 81 ec 08 01
	00 00		 sub	 rsp, 264		; 00000108H
  0000e	48 8d 6c 24 20	 lea	 rbp, QWORD PTR [rsp+32]
  00013	48 8d 0d 00 00
	00 00		 lea	 rcx, OFFSET FLAT:__C0C4C773_xstring
  0001a	e8 00 00 00 00	 call	 __CheckForDebuggerJustMyCode
  0001f	90		 npad	 1

; 457  :         // start the lifetime of the array elements
; 458  : #if _HAS_CXX20
; 459  :         if (_STD is_constant_evaluated()) {

  00020	e8 00 00 00 00	 call	 ?is_constant_evaluated@std@@YA_NXZ ; std::is_constant_evaluated
  00025	0f b6 c0	 movzx	 eax, al
  00028	85 c0		 test	 eax, eax
  0002a	74 33		 je	 SHORT $LN5@Activate_S

; 460  :             for (size_type _Idx = 0; _Idx < _BUF_SIZE; ++_Idx) {

  0002c	48 c7 45 08 00
	00 00 00	 mov	 QWORD PTR _Idx$1[rbp], 0
  00034	eb 0b		 jmp	 SHORT $LN4@Activate_S
$LN2@Activate_S:
  00036	48 8b 45 08	 mov	 rax, QWORD PTR _Idx$1[rbp]
  0003a	48 ff c0	 inc	 rax
  0003d	48 89 45 08	 mov	 QWORD PTR _Idx$1[rbp], rax
$LN4@Activate_S:
  00041	48 83 7d 08 10	 cmp	 QWORD PTR _Idx$1[rbp], 16
  00046	73 17		 jae	 SHORT $LN5@Activate_S

; 461  :                 _Bx._Buf[_Idx] = value_type();

  00048	48 8b 45 08	 mov	 rax, QWORD PTR _Idx$1[rbp]
  0004c	48 8b 8d 00 01
	00 00		 mov	 rcx, QWORD PTR this$[rbp]
  00053	48 03 c8	 add	 rcx, rax
  00056	48 8b c1	 mov	 rax, rcx
  00059	c6 40 08 00	 mov	 BYTE PTR [rax+8], 0

; 462  :             }

  0005d	eb d7		 jmp	 SHORT $LN2@Activate_S
$LN5@Activate_S:

; 463  :         }
; 464  : #endif // _HAS_CXX20
; 465  :     }

  0005f	48 8d a5 e8 00
	00 00		 lea	 rsp, QWORD PTR [rbp+232]
  00066	5f		 pop	 rdi
  00067	5d		 pop	 rbp
  00068	c3		 ret	 0
?_Activate_SSO_buffer@?$_String_val@U?$_Simple_types@D@std@@@std@@QEAAXXZ ENDP ; std::_String_val<std::_Simple_types<char> >::_Activate_SSO_buffer
_TEXT	ENDS
; Function compile flags: /Odtp /RTCsu /ZI
; File C:\Program Files\Microsoft Visual Studio\18\Community\VC\Tools\MSVC\14.50.35717\include\xstring
;	COMDAT ?_Large_mode_engaged@?$_String_val@U?$_Simple_types@D@std@@@std@@QEBA_NXZ
_TEXT	SEGMENT
tv66 = 192
this$ = 240
?_Large_mode_engaged@?$_String_val@U?$_Simple_types@D@std@@@std@@QEBA_NXZ PROC ; std::_String_val<std::_Simple_types<char> >::_Large_mode_engaged, COMDAT

; 452  :     _NODISCARD _CONSTEXPR20 bool _Large_mode_engaged() const noexcept {

$LN6:
  00000	48 89 4c 24 08	 mov	 QWORD PTR [rsp+8], rcx
  00005	55		 push	 rbp
  00006	57		 push	 rdi
  00007	48 81 ec f8 00
	00 00		 sub	 rsp, 248		; 000000f8H
  0000e	48 8d 6c 24 20	 lea	 rbp, QWORD PTR [rsp+32]
  00013	48 8d 0d 00 00
	00 00		 lea	 rcx, OFFSET FLAT:__C0C4C773_xstring
  0001a	e8 00 00 00 00	 call	 __CheckForDebuggerJustMyCode
  0001f	90		 npad	 1

; 453  :         return _Myres > _Small_string_capacity;

  00020	48 8b 85 f0 00
	00 00		 mov	 rax, QWORD PTR this$[rbp]
  00027	48 83 78 20 0f	 cmp	 QWORD PTR [rax+32], 15
  0002c	76 0c		 jbe	 SHORT $LN3@Large_mode
  0002e	c7 85 c0 00 00
	00 01 00 00 00	 mov	 DWORD PTR tv66[rbp], 1
  00038	eb 0a		 jmp	 SHORT $LN4@Large_mode
$LN3@Large_mode:
  0003a	c7 85 c0 00 00
	00 00 00 00 00	 mov	 DWORD PTR tv66[rbp], 0
$LN4@Large_mode:
  00044	0f b6 85 c0 00
	00 00		 movzx	 eax, BYTE PTR tv66[rbp]

; 454  :     }

  0004b	48 8d a5 d8 00
	00 00		 lea	 rsp, QWORD PTR [rbp+216]
  00052	5f		 pop	 rdi
  00053	5d		 pop	 rbp
  00054	c3		 ret	 0
?_Large_mode_engaged@?$_String_val@U?$_Simple_types@D@std@@@std@@QEBA_NXZ ENDP ; std::_String_val<std::_Simple_types<char> >::_Large_mode_engaged
_TEXT	ENDS
; Function compile flags: /Odtp /RTCsu /ZI
; File C:\Program Files\Microsoft Visual Studio\18\Community\VC\Tools\MSVC\14.50.35717\include\xstring
;	COMDAT ?_Myptr@?$_String_val@U?$_Simple_types@D@std@@@std@@QEBAPEBDXZ
_TEXT	SEGMENT
_Result$ = 8
this$ = 256
?_Myptr@?$_String_val@U?$_Simple_types@D@std@@@std@@QEBAPEBDXZ PROC ; std::_String_val<std::_Simple_types<char> >::_Myptr, COMDAT

; 443  :     _NODISCARD _CONSTEXPR20 const value_type* _Myptr() const noexcept {

$LN5:
  00000	48 89 4c 24 08	 mov	 QWORD PTR [rsp+8], rcx
  00005	55		 push	 rbp
  00006	57		 push	 rdi
  00007	48 81 ec 08 01
	00 00		 sub	 rsp, 264		; 00000108H
  0000e	48 8d 6c 24 20	 lea	 rbp, QWORD PTR [rsp+32]
  00013	48 8d 0d 00 00
	00 00		 lea	 rcx, OFFSET FLAT:__C0C4C773_xstring
  0001a	e8 00 00 00 00	 call	 __CheckForDebuggerJustMyCode
  0001f	90		 npad	 1

; 444  :         const value_type* _Result = _Bx._Buf;

  00020	48 8b 85 00 01
	00 00		 mov	 rax, QWORD PTR this$[rbp]
  00027	48 83 c0 08	 add	 rax, 8
  0002b	48 89 45 08	 mov	 QWORD PTR _Result$[rbp], rax

; 445  :         if (_Large_mode_engaged()) {

  0002f	48 8b 8d 00 01
	00 00		 mov	 rcx, QWORD PTR this$[rbp]
  00036	e8 00 00 00 00	 call	 ?_Large_mode_engaged@?$_String_val@U?$_Simple_types@D@std@@@std@@QEBA_NXZ ; std::_String_val<std::_Simple_types<char> >::_Large_mode_engaged
  0003b	0f b6 c0	 movzx	 eax, al
  0003e	85 c0		 test	 eax, eax
  00040	74 14		 je	 SHORT $LN2@Myptr

; 446  :             _Result = _Unfancy(_Bx._Ptr);

  00042	48 8b 85 00 01
	00 00		 mov	 rax, QWORD PTR this$[rbp]
  00049	48 8b 48 08	 mov	 rcx, QWORD PTR [rax+8]
  0004d	e8 00 00 00 00	 call	 ??$_Unfancy@D@std@@YAPEADPEAD@Z ; std::_Unfancy<char>
  00052	48 89 45 08	 mov	 QWORD PTR _Result$[rbp], rax
$LN2@Myptr:

; 447  :         }
; 448  : 
; 449  :         return _Result;

  00056	48 8b 45 08	 mov	 rax, QWORD PTR _Result$[rbp]

; 450  :     }

  0005a	48 8d a5 e8 00
	00 00		 lea	 rsp, QWORD PTR [rbp+232]
  00061	5f		 pop	 rdi
  00062	5d		 pop	 rbp
  00063	c3		 ret	 0
?_Myptr@?$_String_val@U?$_Simple_types@D@std@@@std@@QEBAPEBDXZ ENDP ; std::_String_val<std::_Simple_types<char> >::_Myptr
_TEXT	ENDS
; Function compile flags: /Odtp /RTCsu /ZI
; File C:\Program Files\Microsoft Visual Studio\18\Community\VC\Tools\MSVC\14.50.35717\include\xstring
;	COMDAT ?_Myptr@?$_String_val@U?$_Simple_types@D@std@@@std@@QEAAPEADXZ
_TEXT	SEGMENT
_Result$ = 8
this$ = 256
?_Myptr@?$_String_val@U?$_Simple_types@D@std@@@std@@QEAAPEADXZ PROC ; std::_String_val<std::_Simple_types<char> >::_Myptr, COMDAT

; 434  :     _NODISCARD _CONSTEXPR20 value_type* _Myptr() noexcept {

$LN5:
  00000	48 89 4c 24 08	 mov	 QWORD PTR [rsp+8], rcx
  00005	55		 push	 rbp
  00006	57		 push	 rdi
  00007	48 81 ec 08 01
	00 00		 sub	 rsp, 264		; 00000108H
  0000e	48 8d 6c 24 20	 lea	 rbp, QWORD PTR [rsp+32]
  00013	48 8d 0d 00 00
	00 00		 lea	 rcx, OFFSET FLAT:__C0C4C773_xstring
  0001a	e8 00 00 00 00	 call	 __CheckForDebuggerJustMyCode
  0001f	90		 npad	 1

; 435  :         value_type* _Result = _Bx._Buf;

  00020	48 8b 85 00 01
	00 00		 mov	 rax, QWORD PTR this$[rbp]
  00027	48 83 c0 08	 add	 rax, 8
  0002b	48 89 45 08	 mov	 QWORD PTR _Result$[rbp], rax

; 436  :         if (_Large_mode_engaged()) {

  0002f	48 8b 8d 00 01
	00 00		 mov	 rcx, QWORD PTR this$[rbp]
  00036	e8 00 00 00 00	 call	 ?_Large_mode_engaged@?$_String_val@U?$_Simple_types@D@std@@@std@@QEBA_NXZ ; std::_String_val<std::_Simple_types<char> >::_Large_mode_engaged
  0003b	0f b6 c0	 movzx	 eax, al
  0003e	85 c0		 test	 eax, eax
  00040	74 14		 je	 SHORT $LN2@Myptr

; 437  :             _Result = _Unfancy(_Bx._Ptr);

  00042	48 8b 85 00 01
	00 00		 mov	 rax, QWORD PTR this$[rbp]
  00049	48 8b 48 08	 mov	 rcx, QWORD PTR [rax+8]
  0004d	e8 00 00 00 00	 call	 ??$_Unfancy@D@std@@YAPEADPEAD@Z ; std::_Unfancy<char>
  00052	48 89 45 08	 mov	 QWORD PTR _Result$[rbp], rax
$LN2@Myptr:

; 438  :         }
; 439  : 
; 440  :         return _Result;

  00056	48 8b 45 08	 mov	 rax, QWORD PTR _Result$[rbp]

; 441  :     }

  0005a	48 8d a5 e8 00
	00 00		 lea	 rsp, QWORD PTR [rbp+232]
  00061	5f		 pop	 rdi
  00062	5d		 pop	 rbp
  00063	c3		 ret	 0
?_Myptr@?$_String_val@U?$_Simple_types@D@std@@@std@@QEAAPEADXZ ENDP ; std::_String_val<std::_Simple_types<char> >::_Myptr
_TEXT	ENDS
; Function compile flags: /Odtp /RTCsu /ZI
; File C:\Program Files\Microsoft Visual Studio\18\Community\VC\Tools\MSVC\14.50.35717\include\xstring
;	COMDAT ??0?$_String_val@U?$_Simple_types@D@std@@@std@@QEAA@XZ
_TEXT	SEGMENT
this$ = 224
??0?$_String_val@U?$_Simple_types@D@std@@@std@@QEAA@XZ PROC ; std::_String_val<std::_Simple_types<char> >::_String_val<std::_Simple_types<char> >, COMDAT

; 402  :     _CONSTEXPR20 _String_val() noexcept : _Bx() {}

$LN4:
  00000	48 89 4c 24 08	 mov	 QWORD PTR [rsp+8], rcx
  00005	55		 push	 rbp
  00006	57		 push	 rdi
  00007	48 81 ec e8 00
	00 00		 sub	 rsp, 232		; 000000e8H
  0000e	48 8d 6c 24 20	 lea	 rbp, QWORD PTR [rsp+32]
  00013	48 8d 0d 00 00
	00 00		 lea	 rcx, OFFSET FLAT:__C0C4C773_xstring
  0001a	e8 00 00 00 00	 call	 __CheckForDebuggerJustMyCode
  0001f	90		 npad	 1
  00020	48 8b 8d e0 00
	00 00		 mov	 rcx, QWORD PTR this$[rbp]
  00027	e8 00 00 00 00	 call	 ??0_Container_base12@std@@QEAA@XZ ; std::_Container_base12::_Container_base12
  0002c	90		 npad	 1
  0002d	48 8b 85 e0 00
	00 00		 mov	 rax, QWORD PTR this$[rbp]
  00034	48 83 c0 08	 add	 rax, 8
  00038	48 8b c8	 mov	 rcx, rax
  0003b	e8 00 00 00 00	 call	 ??0_Bxty@?$_String_val@U?$_Simple_types@D@std@@@std@@QEAA@XZ ; std::_String_val<std::_Simple_types<char> >::_Bxty::_Bxty
  00040	90		 npad	 1

; 403  : 
; 404  : #if _MSVC_STL_DESTRUCTOR_TOMBSTONES
; 405  :     _CONSTEXPR20 ~_String_val() noexcept {
; 406  :         if constexpr (is_pointer_v<pointer>) {
; 407  :             if (!_STD _Is_constant_evaluated()) {
; 408  :                 const auto _Tombstone{reinterpret_cast<pointer>(_MSVC_STL_UINTPTR_TOMBSTONE_VALUE)};
; 409  :                 _Bx._Ptr = _Tombstone;
; 410  :                 _Mysize  = 0;
; 411  :                 _Myres   = (_Small_string_capacity + 1) | _Alloc_mask; // first capacity when entering large mode
; 412  : 
; 413  :                 // The capacity indicates whether we're in small mode or large mode; see _Large_mode_engaged().
; 414  :                 // The string would be usable in small mode, so we need large mode for the tombstone to be effective.
; 415  :                 // `_Small_string_capacity + 1` would be sufficient to make _Large_mode_engaged() return true. However,
; 416  :                 // basic_string uses a "roundup mask" when allocating; see _Calculate_growth(). So to avoid confusing
; 417  :                 // the SSO logic, we use the first capacity that would normally be used when entering large mode.
; 418  :             }
; 419  :         }
; 420  :     }
; 421  : #endif // _MSVC_STL_DESTRUCTOR_TOMBSTONES
; 422  : 
; 423  :     // length of internal buffer, [1, 16] (NB: used by the debugger visualizer)
; 424  :     static constexpr size_type _BUF_SIZE = 16 / sizeof(value_type) < 1 ? 1 : 16 / sizeof(value_type);
; 425  :     // roundup mask for allocated buffers, [0, 15]
; 426  :     static constexpr size_type _Alloc_mask = sizeof(value_type) <= 1 ? 15
; 427  :                                            : sizeof(value_type) <= 2 ? 7
; 428  :                                            : sizeof(value_type) <= 4 ? 3
; 429  :                                            : sizeof(value_type) <= 8 ? 1
; 430  :                                                                      : 0;
; 431  :     // capacity in small mode
; 432  :     static constexpr size_type _Small_string_capacity = _BUF_SIZE - 1;
; 433  : 
; 434  :     _NODISCARD _CONSTEXPR20 value_type* _Myptr() noexcept {
; 435  :         value_type* _Result = _Bx._Buf;
; 436  :         if (_Large_mode_engaged()) {
; 437  :             _Result = _Unfancy(_Bx._Ptr);
; 438  :         }
; 439  : 
; 440  :         return _Result;
; 441  :     }
; 442  : 
; 443  :     _NODISCARD _CONSTEXPR20 const value_type* _Myptr() const noexcept {
; 444  :         const value_type* _Result = _Bx._Buf;
; 445  :         if (_Large_mode_engaged()) {
; 446  :             _Result = _Unfancy(_Bx._Ptr);
; 447  :         }
; 448  : 
; 449  :         return _Result;
; 450  :     }
; 451  : 
; 452  :     _NODISCARD _CONSTEXPR20 bool _Large_mode_engaged() const noexcept {
; 453  :         return _Myres > _Small_string_capacity;
; 454  :     }
; 455  : 
; 456  :     _CONSTEXPR20 void _Activate_SSO_buffer() noexcept {
; 457  :         // start the lifetime of the array elements
; 458  : #if _HAS_CXX20
; 459  :         if (_STD is_constant_evaluated()) {
; 460  :             for (size_type _Idx = 0; _Idx < _BUF_SIZE; ++_Idx) {
; 461  :                 _Bx._Buf[_Idx] = value_type();
; 462  :             }
; 463  :         }
; 464  : #endif // _HAS_CXX20
; 465  :     }
; 466  : 
; 467  :     _CONSTEXPR20 void _Check_offset(const size_type _Off) const {
; 468  :         // checks whether _Off is in the bounds of [0, size()]
; 469  :         if (_Mysize < _Off) {
; 470  :             _Xran();
; 471  :         }
; 472  :     }
; 473  : 
; 474  :     _CONSTEXPR20 void _Check_offset_exclusive(const size_type _Off) const {
; 475  :         // checks whether _Off is in the bounds of [0, size())
; 476  :         if (_Mysize <= _Off) {
; 477  :             _Xran();
; 478  :         }
; 479  :     }
; 480  : 
; 481  :     [[noreturn]] static void _Xran() {
; 482  :         _Xout_of_range("invalid string position");
; 483  :     }
; 484  : 
; 485  :     _NODISCARD _CONSTEXPR20 size_type _Clamp_suffix_size(const size_type _Off, const size_type _Size) const noexcept {
; 486  :         // trims _Size to the longest it can be assuming a string at/after _Off
; 487  :         return (_STD min)(_Size, _Mysize - _Off);
; 488  :     }
; 489  : 
; 490  :     union _Bxty { // storage for small buffer or pointer to larger one
; 491  :         // This constructor previously initialized _Ptr. Don't rely on the new behavior without
; 492  :         // renaming `_String_val` (and fixing the visualizer).
; 493  :         _CONSTEXPR20 _Bxty() noexcept : _Buf() {} // user-provided, for fancy pointers
; 494  :         _CONSTEXPR20 ~_Bxty() noexcept {} // user-provided, for fancy pointers
; 495  : 
; 496  :         value_type _Buf[_BUF_SIZE];
; 497  :         pointer _Ptr;
; 498  :         char _Alias[_BUF_SIZE]; // TRANSITION, ABI: _Alias is preserved for binary compatibility (especially /clr)
; 499  : 
; 500  :         _CONSTEXPR20 void _Switch_to_buf() noexcept {
; 501  :             _STD _Destroy_in_place(_Ptr);
; 502  : 
; 503  : #if _HAS_CXX20
; 504  :             // start the lifetime of the array elements
; 505  :             if (_STD is_constant_evaluated()) {
; 506  :                 for (size_type _Idx = 0; _Idx < _BUF_SIZE; ++_Idx) {
; 507  :                     _Buf[_Idx] = value_type();
; 508  :                 }
; 509  :             }
; 510  : #endif // _HAS_CXX20
; 511  :         }
; 512  :     };
; 513  :     _Bxty _Bx;
; 514  : 
; 515  :     // invariant: _Myres >= _Mysize, and _Myres >= _Small_string_capacity (after string's construction)
; 516  :     // neither _Mysize nor _Myres takes account of the extra null terminator
; 517  :     size_type _Mysize = 0; // current length of string (size)

  00041	48 8b 85 e0 00
	00 00		 mov	 rax, QWORD PTR this$[rbp]
  00048	48 c7 40 18 00
	00 00 00	 mov	 QWORD PTR [rax+24], 0

; 518  :     size_type _Myres  = 0; // current storage reserved for string (capacity)

  00050	48 8b 85 e0 00
	00 00		 mov	 rax, QWORD PTR this$[rbp]
  00057	48 c7 40 20 00
	00 00 00	 mov	 QWORD PTR [rax+32], 0

; 402  :     _CONSTEXPR20 _String_val() noexcept : _Bx() {}

  0005f	48 8b 85 e0 00
	00 00		 mov	 rax, QWORD PTR this$[rbp]
  00066	48 8d a5 c8 00
	00 00		 lea	 rsp, QWORD PTR [rbp+200]
  0006d	5f		 pop	 rdi
  0006e	5d		 pop	 rbp
  0006f	c3		 ret	 0
??0?$_String_val@U?$_Simple_types@D@std@@@std@@QEAA@XZ ENDP ; std::_String_val<std::_Simple_types<char> >::_String_val<std::_Simple_types<char> >
_TEXT	ENDS
; Function compile flags: /Odtp /RTCsu /ZI
; File C:\Program Files\Microsoft Visual Studio\18\Community\VC\Tools\MSVC\14.50.35717\include\xmemory
;	COMDAT ?max_size@?$_Default_allocator_traits@V?$allocator@D@std@@@std@@SA_KAEBV?$allocator@D@2@@Z
_TEXT	SEGMENT
__formal$ = 224
?max_size@?$_Default_allocator_traits@V?$allocator@D@std@@@std@@SA_KAEBV?$allocator@D@2@@Z PROC ; std::_Default_allocator_traits<std::allocator<char> >::max_size, COMDAT

; 749  :     _NODISCARD static _CONSTEXPR20 size_type max_size(const _Alloc&) noexcept {

$LN4:
  00000	48 89 4c 24 08	 mov	 QWORD PTR [rsp+8], rcx
  00005	55		 push	 rbp
  00006	57		 push	 rdi
  00007	48 81 ec e8 00
	00 00		 sub	 rsp, 232		; 000000e8H
  0000e	48 8d 6c 24 20	 lea	 rbp, QWORD PTR [rsp+32]
  00013	48 8d 0d 00 00
	00 00		 lea	 rcx, OFFSET FLAT:__B41741EF_xmemory
  0001a	e8 00 00 00 00	 call	 __CheckForDebuggerJustMyCode
  0001f	90		 npad	 1

; 750  :         return static_cast<size_t>(-1) / sizeof(value_type);

  00020	48 c7 c0 ff ff
	ff ff		 mov	 rax, -1

; 751  :     }

  00027	48 8d a5 c8 00
	00 00		 lea	 rsp, QWORD PTR [rbp+200]
  0002e	5f		 pop	 rdi
  0002f	5d		 pop	 rbp
  00030	c3		 ret	 0
?max_size@?$_Default_allocator_traits@V?$allocator@D@std@@@std@@SA_KAEBV?$allocator@D@2@@Z ENDP ; std::_Default_allocator_traits<std::allocator<char> >::max_size
_TEXT	ENDS
; Function compile flags: /Odtp /RTCsu /ZI
; File C:\Program Files\Microsoft Visual Studio\18\Community\VC\Tools\MSVC\14.50.35717\include\xmemory
;	COMDAT ?allocate@?$allocator@D@std@@QEAAPEAD_K@Z
_TEXT	SEGMENT
this$ = 224
_Count$ = 232
?allocate@?$allocator@D@std@@QEAAPEAD_K@Z PROC		; std::allocator<char>::allocate, COMDAT

; 992  :     _NODISCARD_RAW_PTR_ALLOC _CONSTEXPR20 __declspec(allocator) _Ty* allocate(_CRT_GUARDOVERFLOW const size_t _Count) {

$LN3:
  00000	48 89 54 24 10	 mov	 QWORD PTR [rsp+16], rdx
  00005	48 89 4c 24 08	 mov	 QWORD PTR [rsp+8], rcx
  0000a	55		 push	 rbp
  0000b	57		 push	 rdi
  0000c	48 81 ec e8 00
	00 00		 sub	 rsp, 232		; 000000e8H
  00013	48 8d 6c 24 20	 lea	 rbp, QWORD PTR [rsp+32]
  00018	48 8d 0d 00 00
	00 00		 lea	 rcx, OFFSET FLAT:__B41741EF_xmemory
  0001f	e8 00 00 00 00	 call	 __CheckForDebuggerJustMyCode
  00024	90		 npad	 1

; 993  :         static_assert(sizeof(value_type) > 0, "value_type must be complete before calling allocate.");
; 994  :         return static_cast<_Ty*>(_STD _Allocate<_New_alignof<_Ty>>(_Get_size_of_n<sizeof(_Ty)>(_Count)));

  00025	48 8b 8d e8 00
	00 00		 mov	 rcx, QWORD PTR _Count$[rbp]
  0002c	e8 00 00 00 00	 call	 ??$_Get_size_of_n@$00@std@@YA_K_K@Z ; std::_Get_size_of_n<1>
  00031	48 8b c8	 mov	 rcx, rax
  00034	e8 00 00 00 00	 call	 ??$_Allocate@$0BA@U_Default_allocate_traits@std@@@std@@YAPEAX_K@Z ; std::_Allocate<16,std::_Default_allocate_traits>

; 995  :     }

  00039	48 8d a5 c8 00
	00 00		 lea	 rsp, QWORD PTR [rbp+200]
  00040	5f		 pop	 rdi
  00041	5d		 pop	 rbp
  00042	c3		 ret	 0
?allocate@?$allocator@D@std@@QEAAPEAD_K@Z ENDP		; std::allocator<char>::allocate
_TEXT	ENDS
; Function compile flags: /Odtp /RTCsu /ZI
; File C:\Program Files\Microsoft Visual Studio\18\Community\VC\Tools\MSVC\14.50.35717\include\xmemory
;	COMDAT ?deallocate@?$allocator@D@std@@QEAAXQEAD_K@Z
_TEXT	SEGMENT
this$ = 224
_Ptr$ = 232
_Count$ = 240
?deallocate@?$allocator@D@std@@QEAAXQEAD_K@Z PROC	; std::allocator<char>::deallocate, COMDAT

; 986  :     _CONSTEXPR20 void deallocate(_Ty* const _Ptr, const size_t _Count) noexcept /* strengthened */ {

$LN6:
  00000	4c 89 44 24 18	 mov	 QWORD PTR [rsp+24], r8
  00005	48 89 54 24 10	 mov	 QWORD PTR [rsp+16], rdx
  0000a	48 89 4c 24 08	 mov	 QWORD PTR [rsp+8], rcx
  0000f	55		 push	 rbp
  00010	57		 push	 rdi
  00011	48 81 ec f8 00
	00 00		 sub	 rsp, 248		; 000000f8H
  00018	48 8d 6c 24 30	 lea	 rbp, QWORD PTR [rsp+48]
  0001d	48 8d 0d 00 00
	00 00		 lea	 rcx, OFFSET FLAT:__B41741EF_xmemory
  00024	e8 00 00 00 00	 call	 __CheckForDebuggerJustMyCode
  00029	90		 npad	 1

; 987  :         _STL_ASSERT(_Ptr != nullptr || _Count == 0, "null pointer cannot point to a block of non-zero size");

  0002a	48 83 bd e8 00
	00 00 00	 cmp	 QWORD PTR _Ptr$[rbp], 0
  00032	75 4c		 jne	 SHORT $LN2@deallocate
  00034	48 83 bd f0 00
	00 00 00	 cmp	 QWORD PTR _Count$[rbp], 0
  0003c	74 42		 je	 SHORT $LN2@deallocate
  0003e	48 8d 05 00 00
	00 00		 lea	 rax, OFFSET FLAT:??_C@_0DG@KGHKKGBC@null?5pointer?5cannot?5point?5to?5a?5@
  00045	48 89 44 24 28	 mov	 QWORD PTR [rsp+40], rax
  0004a	48 8d 05 00 00
	00 00		 lea	 rax, OFFSET FLAT:??_C@_02DKCKIIND@?$CFs@
  00051	48 89 44 24 20	 mov	 QWORD PTR [rsp+32], rax
  00056	45 33 c9	 xor	 r9d, r9d
  00059	41 b8 db 03 00
	00		 mov	 r8d, 987		; 000003dbH
  0005f	48 8d 15 00 00
	00 00		 lea	 rdx, OFFSET FLAT:??_C@_0GA@HFAKHCPJ@C?3?2Program?5Files?2Microsoft?5Visu@
  00066	b9 02 00 00 00	 mov	 ecx, 2
  0006b	ff 15 00 00 00
	00		 call	 QWORD PTR __imp__CrtDbgReport
  00071	83 f8 01	 cmp	 eax, 1
  00074	75 03		 jne	 SHORT $LN4@deallocate
  00076	cc		 int	 3
  00077	33 c0		 xor	 eax, eax
$LN4@deallocate:
  00079	b9 05 00 00 00	 mov	 ecx, 5
  0007e	cd 29		 int	 41			; 00000029H
$LN2@deallocate:

; 988  :         // no overflow check on the following multiply; we assume _Allocate did that check
; 989  :         _STD _Deallocate<_New_alignof<_Ty>>(_Ptr, sizeof(_Ty) * _Count);

  00080	48 8b 95 f0 00
	00 00		 mov	 rdx, QWORD PTR _Count$[rbp]
  00087	48 8b 8d e8 00
	00 00		 mov	 rcx, QWORD PTR _Ptr$[rbp]
  0008e	e8 00 00 00 00	 call	 ??$_Deallocate@$0BA@@std@@YAXPEAX_K@Z ; std::_Deallocate<16>
  00093	90		 npad	 1

; 990  :     }

  00094	48 8d a5 c8 00
	00 00		 lea	 rsp, QWORD PTR [rbp+200]
  0009b	5f		 pop	 rdi
  0009c	5d		 pop	 rbp
  0009d	c3		 ret	 0
?deallocate@?$allocator@D@std@@QEAAXQEAD_K@Z ENDP	; std::allocator<char>::deallocate
_TEXT	ENDS
; Function compile flags: /Odtp /RTCsu /ZI
; File C:\Program Files\Microsoft Visual Studio\18\Community\VC\Tools\MSVC\14.50.35717\include\xmemory
;	COMDAT ??0?$allocator@D@std@@QEAA@XZ
_TEXT	SEGMENT
this$ = 224
??0?$allocator@D@std@@QEAA@XZ PROC			; std::allocator<char>::allocator<char>, COMDAT

; 978  :     constexpr allocator() noexcept {}

$LN4:
  00000	48 89 4c 24 08	 mov	 QWORD PTR [rsp+8], rcx
  00005	55		 push	 rbp
  00006	57		 push	 rdi
  00007	48 81 ec e8 00
	00 00		 sub	 rsp, 232		; 000000e8H
  0000e	48 8d 6c 24 20	 lea	 rbp, QWORD PTR [rsp+32]
  00013	48 8d 0d 00 00
	00 00		 lea	 rcx, OFFSET FLAT:__B41741EF_xmemory
  0001a	e8 00 00 00 00	 call	 __CheckForDebuggerJustMyCode
  0001f	90		 npad	 1
  00020	48 8b 85 e0 00
	00 00		 mov	 rax, QWORD PTR this$[rbp]
  00027	48 8d a5 c8 00
	00 00		 lea	 rsp, QWORD PTR [rbp+200]
  0002e	5f		 pop	 rdi
  0002f	5d		 pop	 rbp
  00030	c3		 ret	 0
??0?$allocator@D@std@@QEAA@XZ ENDP			; std::allocator<char>::allocator<char>
_TEXT	ENDS
; Function compile flags: /Odtp /RTCsu /ZI
; File C:\Program Files\Microsoft Visual Studio\18\Community\VC\Tools\MSVC\14.50.35717\include\xstring
;	COMDAT ?_Xlen_string@std@@YAXXZ
_TEXT	SEGMENT
?_Xlen_string@std@@YAXXZ PROC				; std::_Xlen_string, COMDAT

; 573  : [[noreturn]] inline void _Xlen_string() {

$LN3:
  00000	40 55		 push	 rbp
  00002	57		 push	 rdi
  00003	48 81 ec e8 00
	00 00		 sub	 rsp, 232		; 000000e8H
  0000a	48 8d 6c 24 20	 lea	 rbp, QWORD PTR [rsp+32]
  0000f	48 8d 0d 00 00
	00 00		 lea	 rcx, OFFSET FLAT:__C0C4C773_xstring
  00016	e8 00 00 00 00	 call	 __CheckForDebuggerJustMyCode
  0001b	90		 npad	 1

; 574  :     _Xlength_error("string too long");

  0001c	48 8d 0d 00 00
	00 00		 lea	 rcx, OFFSET FLAT:??_C@_0BA@JFNIOLAK@string?5too?5long@
  00023	e8 00 00 00 00	 call	 ?_Xlength_error@std@@YAXPEBD@Z ; std::_Xlength_error
  00028	90		 npad	 1
$LN2@Xlen_strin:

; 575  : }

  00029	48 8d a5 c8 00
	00 00		 lea	 rsp, QWORD PTR [rbp+200]
  00030	5f		 pop	 rdi
  00031	5d		 pop	 rbp
  00032	c3		 ret	 0
?_Xlen_string@std@@YAXXZ ENDP				; std::_Xlen_string
_TEXT	ENDS
; Function compile flags: /Odtp /RTCsu /ZI
; File C:\Program Files\Microsoft Visual Studio\18\Community\VC\Tools\MSVC\14.50.35717\include\xutility
;	COMDAT ??$_Construct_in_place@U_Container_proxy@std@@PEAU_Container_base12@2@@std@@YAXAEAU_Container_proxy@0@$$QEAPEAU_Container_base12@0@@Z
_TEXT	SEGMENT
$T1 = 200
_Obj$ = 256
<_Args_0>$ = 264
??$_Construct_in_place@U_Container_proxy@std@@PEAU_Container_base12@2@@std@@YAXAEAU_Container_proxy@0@$$QEAPEAU_Container_base12@0@@Z PROC ; std::_Construct_in_place<std::_Container_proxy,std::_Container_base12 *>, COMDAT

; 515  :     noexcept(is_nothrow_constructible_v<_Ty, _Types...>) {

$LN6:
  00000	48 89 54 24 10	 mov	 QWORD PTR [rsp+16], rdx
  00005	48 89 4c 24 08	 mov	 QWORD PTR [rsp+8], rcx
  0000a	55		 push	 rbp
  0000b	57		 push	 rdi
  0000c	48 81 ec 08 01
	00 00		 sub	 rsp, 264		; 00000108H
  00013	48 8d 6c 24 20	 lea	 rbp, QWORD PTR [rsp+32]
  00018	48 8d 0d 00 00
	00 00		 lea	 rcx, OFFSET FLAT:__C78B1955_xutility
  0001f	e8 00 00 00 00	 call	 __CheckForDebuggerJustMyCode
  00024	90		 npad	 1

; 516  : #if _HAS_CXX20
; 517  :     if (_STD is_constant_evaluated()) {

  00025	e8 00 00 00 00	 call	 ?is_constant_evaluated@std@@YA_NXZ ; std::is_constant_evaluated
  0002a	0f b6 c0	 movzx	 eax, al
  0002d	85 c0		 test	 eax, eax
  0002f	74 1e		 je	 SHORT $LN2@Construct_

; 518  :         _STD construct_at(_STD addressof(_Obj), _STD forward<_Types>(_Args)...);

  00031	48 8b 8d 00 01
	00 00		 mov	 rcx, QWORD PTR _Obj$[rbp]
  00038	e8 00 00 00 00	 call	 ??$addressof@U_Container_proxy@std@@@std@@YAPEAU_Container_proxy@0@AEAU10@@Z ; std::addressof<std::_Container_proxy>
  0003d	48 8b 95 08 01
	00 00		 mov	 rdx, QWORD PTR <_Args_0>$[rbp]
  00044	48 8b c8	 mov	 rcx, rax
  00047	e8 00 00 00 00	 call	 ??$construct_at@U_Container_proxy@std@@PEAU_Container_base12@2@@std@@YAPEAU_Container_proxy@0@QEAU10@$$QEAPEAU_Container_base12@0@@Z ; std::construct_at<std::_Container_proxy,std::_Container_base12 *>
  0004c	90		 npad	 1

; 519  :     } else

  0004d	eb 37		 jmp	 SHORT $LN3@Construct_
$LN2@Construct_:

; 520  : #endif // _HAS_CXX20
; 521  :     {
; 522  :         ::new (static_cast<void*>(_STD addressof(_Obj))) _Ty(_STD forward<_Types>(_Args)...);

  0004f	48 8b 8d 00 01
	00 00		 mov	 rcx, QWORD PTR _Obj$[rbp]
  00056	e8 00 00 00 00	 call	 ??$addressof@U_Container_proxy@std@@@std@@YAPEAU_Container_proxy@0@AEAU10@@Z ; std::addressof<std::_Container_proxy>
  0005b	48 8b d0	 mov	 rdx, rax
  0005e	b9 10 00 00 00	 mov	 ecx, 16
  00063	e8 00 00 00 00	 call	 ??2@YAPEAX_KPEAX@Z	; operator new
  00068	48 89 85 c8 00
	00 00		 mov	 QWORD PTR $T1[rbp], rax
  0006f	48 8b 85 08 01
	00 00		 mov	 rax, QWORD PTR <_Args_0>$[rbp]
  00076	48 8b 10	 mov	 rdx, QWORD PTR [rax]
  00079	48 8b 8d c8 00
	00 00		 mov	 rcx, QWORD PTR $T1[rbp]
  00080	e8 00 00 00 00	 call	 ??0_Container_proxy@std@@QEAA@PEAU_Container_base12@1@@Z ; std::_Container_proxy::_Container_proxy
  00085	90		 npad	 1
$LN3@Construct_:

; 523  :     }
; 524  : }

  00086	48 8d a5 e8 00
	00 00		 lea	 rsp, QWORD PTR [rbp+232]
  0008d	5f		 pop	 rdi
  0008e	5d		 pop	 rbp
  0008f	c3		 ret	 0
??$_Construct_in_place@U_Container_proxy@std@@PEAU_Container_base12@2@@std@@YAXAEAU_Container_proxy@0@$$QEAPEAU_Container_base12@0@@Z ENDP ; std::_Construct_in_place<std::_Container_proxy,std::_Container_base12 *>
_TEXT	ENDS
; Function compile flags: /Odtp /RTCsu /ZI
; File C:\Program Files\Microsoft Visual Studio\18\Community\VC\Tools\MSVC\14.50.35717\include\type_traits
;	COMDAT ??$addressof@U_Container_base12@std@@@std@@YAPEAU_Container_base12@0@AEAU10@@Z
_TEXT	SEGMENT
_Val$ = 224
??$addressof@U_Container_base12@std@@@std@@YAPEAU_Container_base12@0@AEAU10@@Z PROC ; std::addressof<std::_Container_base12>, COMDAT

; 1532 : _NODISCARD constexpr _Ty* addressof(_Ty& _Val) noexcept {

$LN4:
  00000	48 89 4c 24 08	 mov	 QWORD PTR [rsp+8], rcx
  00005	55		 push	 rbp
  00006	57		 push	 rdi
  00007	48 81 ec e8 00
	00 00		 sub	 rsp, 232		; 000000e8H
  0000e	48 8d 6c 24 20	 lea	 rbp, QWORD PTR [rsp+32]
  00013	48 8d 0d 00 00
	00 00		 lea	 rcx, OFFSET FLAT:__680F61A7_type_traits
  0001a	e8 00 00 00 00	 call	 __CheckForDebuggerJustMyCode
  0001f	90		 npad	 1

; 1533 :     return __builtin_addressof(_Val);

  00020	48 8b 85 e0 00
	00 00		 mov	 rax, QWORD PTR _Val$[rbp]

; 1534 : }

  00027	48 8d a5 c8 00
	00 00		 lea	 rsp, QWORD PTR [rbp+200]
  0002e	5f		 pop	 rdi
  0002f	5d		 pop	 rbp
  00030	c3		 ret	 0
??$addressof@U_Container_base12@std@@@std@@YAPEAU_Container_base12@0@AEAU10@@Z ENDP ; std::addressof<std::_Container_base12>
_TEXT	ENDS
; Function compile flags: /Odtp /RTCsu /ZI
; File C:\Program Files\Microsoft Visual Studio\18\Community\VC\Tools\MSVC\14.50.35717\include\xmemory
;	COMDAT ??0_Basic_container_proxy_ptr12@std@@IEAA@XZ
_TEXT	SEGMENT
this$ = 224
??0_Basic_container_proxy_ptr12@std@@IEAA@XZ PROC	; std::_Basic_container_proxy_ptr12::_Basic_container_proxy_ptr12, COMDAT

; 1477 :     _CONSTEXPR20 _Basic_container_proxy_ptr12()                       = default;

$LN4:
  00000	48 89 4c 24 08	 mov	 QWORD PTR [rsp+8], rcx
  00005	55		 push	 rbp
  00006	57		 push	 rdi
  00007	48 81 ec e8 00
	00 00		 sub	 rsp, 232		; 000000e8H
  0000e	48 8d 6c 24 20	 lea	 rbp, QWORD PTR [rsp+32]
  00013	48 8d 0d 00 00
	00 00		 lea	 rcx, OFFSET FLAT:__B41741EF_xmemory
  0001a	e8 00 00 00 00	 call	 __CheckForDebuggerJustMyCode
  0001f	90		 npad	 1

; 1470 :     _Container_proxy* _Ptr = nullptr;

  00020	48 8b 85 e0 00
	00 00		 mov	 rax, QWORD PTR this$[rbp]
  00027	48 c7 00 00 00
	00 00		 mov	 QWORD PTR [rax], 0

; 1477 :     _CONSTEXPR20 _Basic_container_proxy_ptr12()                       = default;

  0002e	48 8b 85 e0 00
	00 00		 mov	 rax, QWORD PTR this$[rbp]
  00035	48 8d a5 c8 00
	00 00		 lea	 rsp, QWORD PTR [rbp+200]
  0003c	5f		 pop	 rdi
  0003d	5d		 pop	 rbp
  0003e	c3		 ret	 0
??0_Basic_container_proxy_ptr12@std@@IEAA@XZ ENDP	; std::_Basic_container_proxy_ptr12::_Basic_container_proxy_ptr12
_TEXT	ENDS
; Function compile flags: /Odtp /RTCsu /ZI
; File C:\Program Files\Microsoft Visual Studio\18\Community\VC\Tools\MSVC\14.50.35717\include\xmemory
;	COMDAT ?_Release@_Basic_container_proxy_ptr12@std@@QEAAXXZ
_TEXT	SEGMENT
this$ = 224
?_Release@_Basic_container_proxy_ptr12@std@@QEAAXXZ PROC ; std::_Basic_container_proxy_ptr12::_Release, COMDAT

; 1472 :     constexpr void _Release() noexcept { // disengage this _Basic_container_proxy_ptr12

$LN4:
  00000	48 89 4c 24 08	 mov	 QWORD PTR [rsp+8], rcx
  00005	55		 push	 rbp
  00006	57		 push	 rdi
  00007	48 81 ec e8 00
	00 00		 sub	 rsp, 232		; 000000e8H
  0000e	48 8d 6c 24 20	 lea	 rbp, QWORD PTR [rsp+32]
  00013	48 8d 0d 00 00
	00 00		 lea	 rcx, OFFSET FLAT:__B41741EF_xmemory
  0001a	e8 00 00 00 00	 call	 __CheckForDebuggerJustMyCode
  0001f	90		 npad	 1

; 1473 :         _Ptr = nullptr;

  00020	48 8b 85 e0 00
	00 00		 mov	 rax, QWORD PTR this$[rbp]
  00027	48 c7 00 00 00
	00 00		 mov	 QWORD PTR [rax], 0

; 1474 :     }

  0002e	48 8d a5 c8 00
	00 00		 lea	 rsp, QWORD PTR [rbp+200]
  00035	5f		 pop	 rdi
  00036	5d		 pop	 rbp
  00037	c3		 ret	 0
?_Release@_Basic_container_proxy_ptr12@std@@QEAAXXZ ENDP ; std::_Basic_container_proxy_ptr12::_Release
_TEXT	ENDS
; Function compile flags: /Odtp /RTCsu /ZI
; File C:\Program Files\Microsoft Visual Studio\18\Community\VC\Tools\MSVC\14.50.35717\include\utility
;	COMDAT ??$exchange@PEAU_Iterator_base12@std@@$$T@std@@YAPEAU_Iterator_base12@0@AEAPEAU10@$$QEA$$T@Z
_TEXT	SEGMENT
_Old_val$ = 8
_Val$ = 256
_New_val$ = 264
??$exchange@PEAU_Iterator_base12@std@@$$T@std@@YAPEAU_Iterator_base12@0@AEAPEAU10@$$QEA$$T@Z PROC ; std::exchange<std::_Iterator_base12 *,std::nullptr_t>, COMDAT

; 771  :     noexcept(conjunction_v<is_nothrow_move_constructible<_Ty>, is_nothrow_assignable<_Ty&, _Other>>) {

$LN4:
  00000	48 89 54 24 10	 mov	 QWORD PTR [rsp+16], rdx
  00005	48 89 4c 24 08	 mov	 QWORD PTR [rsp+8], rcx
  0000a	55		 push	 rbp
  0000b	57		 push	 rdi
  0000c	48 81 ec 08 01
	00 00		 sub	 rsp, 264		; 00000108H
  00013	48 8d 6c 24 20	 lea	 rbp, QWORD PTR [rsp+32]
  00018	48 8d 0d 00 00
	00 00		 lea	 rcx, OFFSET FLAT:__DE82222C_utility
  0001f	e8 00 00 00 00	 call	 __CheckForDebuggerJustMyCode
  00024	90		 npad	 1

; 772  :     // assign _New_val to _Val, return previous _Val
; 773  :     _Ty _Old_val = static_cast<_Ty&&>(_Val);

  00025	48 8b 85 00 01
	00 00		 mov	 rax, QWORD PTR _Val$[rbp]
  0002c	48 8b 00	 mov	 rax, QWORD PTR [rax]
  0002f	48 89 45 08	 mov	 QWORD PTR _Old_val$[rbp], rax

; 774  :     _Val         = static_cast<_Other&&>(_New_val);

  00033	48 8b 85 00 01
	00 00		 mov	 rax, QWORD PTR _Val$[rbp]
  0003a	48 8b 8d 08 01
	00 00		 mov	 rcx, QWORD PTR _New_val$[rbp]
  00041	48 8b 09	 mov	 rcx, QWORD PTR [rcx]
  00044	48 89 08	 mov	 QWORD PTR [rax], rcx

; 775  :     return _Old_val;

  00047	48 8b 45 08	 mov	 rax, QWORD PTR _Old_val$[rbp]

; 776  : }

  0004b	48 8d a5 e8 00
	00 00		 lea	 rsp, QWORD PTR [rbp+232]
  00052	5f		 pop	 rdi
  00053	5d		 pop	 rbp
  00054	c3		 ret	 0
??$exchange@PEAU_Iterator_base12@std@@$$T@std@@YAPEAU_Iterator_base12@0@AEAPEAU10@$$QEA$$T@Z ENDP ; std::exchange<std::_Iterator_base12 *,std::nullptr_t>
_TEXT	ENDS
; Function compile flags: /Odtp /RTCsu /ZI
; File C:\Program Files\Microsoft Visual Studio\18\Community\VC\Tools\MSVC\14.50.35717\include\xmemory
;	COMDAT ?_Swap_proxy_and_iterators_locked@_Container_base12@std@@AEAAXAEAU12@@Z
_TEXT	SEGMENT
_Lock$ = 4
__$ArrayPad$ = 216
this$ = 256
_Right$ = 264
?_Swap_proxy_and_iterators_locked@_Container_base12@std@@AEAAXAEAU12@@Z PROC ; std::_Container_base12::_Swap_proxy_and_iterators_locked, COMDAT

; 1258 :     void _Swap_proxy_and_iterators_locked(_Container_base12& _Right) noexcept {

$LN4:
  00000	48 89 54 24 10	 mov	 QWORD PTR [rsp+16], rdx
  00005	48 89 4c 24 08	 mov	 QWORD PTR [rsp+8], rcx
  0000a	55		 push	 rbp
  0000b	57		 push	 rdi
  0000c	48 81 ec 08 01
	00 00		 sub	 rsp, 264		; 00000108H
  00013	48 8d 6c 24 20	 lea	 rbp, QWORD PTR [rsp+32]
  00018	48 8d 7c 24 20	 lea	 rdi, QWORD PTR [rsp+32]
  0001d	b9 0a 00 00 00	 mov	 ecx, 10
  00022	b8 cc cc cc cc	 mov	 eax, -858993460		; ccccccccH
  00027	f3 ab		 rep stosd
  00029	48 8b 8c 24 28
	01 00 00	 mov	 rcx, QWORD PTR [rsp+296]
  00031	48 8b 05 00 00
	00 00		 mov	 rax, QWORD PTR __security_cookie
  00038	48 33 c5	 xor	 rax, rbp
  0003b	48 89 85 d8 00
	00 00		 mov	 QWORD PTR __$ArrayPad$[rbp], rax
  00042	48 8d 0d 00 00
	00 00		 lea	 rcx, OFFSET FLAT:__B41741EF_xmemory
  00049	e8 00 00 00 00	 call	 __CheckForDebuggerJustMyCode
  0004e	90		 npad	 1

; 1259 :         _Lockit _Lock(_LOCK_DEBUG);

  0004f	ba 03 00 00 00	 mov	 edx, 3
  00054	48 8d 4d 04	 lea	 rcx, QWORD PTR _Lock$[rbp]
  00058	ff 15 00 00 00
	00		 call	 QWORD PTR __imp_??0_Lockit@std@@QEAA@H@Z
  0005e	90		 npad	 1

; 1260 :         _Swap_proxy_and_iterators_unlocked(_Right);

  0005f	48 8b 95 08 01
	00 00		 mov	 rdx, QWORD PTR _Right$[rbp]
  00066	48 8b 8d 00 01
	00 00		 mov	 rcx, QWORD PTR this$[rbp]
  0006d	e8 00 00 00 00	 call	 ?_Swap_proxy_and_iterators_unlocked@_Container_base12@std@@AEAAXAEAU12@@Z ; std::_Container_base12::_Swap_proxy_and_iterators_unlocked
  00072	90		 npad	 1

; 1261 :     }

  00073	48 8d 4d 04	 lea	 rcx, QWORD PTR _Lock$[rbp]
  00077	ff 15 00 00 00
	00		 call	 QWORD PTR __imp_??1_Lockit@std@@QEAA@XZ
  0007d	90		 npad	 1
  0007e	48 8d 4d e0	 lea	 rcx, QWORD PTR [rbp-32]
  00082	48 8d 15 00 00
	00 00		 lea	 rdx, OFFSET FLAT:?_Swap_proxy_and_iterators_locked@_Container_base12@std@@AEAAXAEAU12@@Z$rtcFrameData
  00089	e8 00 00 00 00	 call	 _RTC_CheckStackVars
  0008e	48 8b 8d d8 00
	00 00		 mov	 rcx, QWORD PTR __$ArrayPad$[rbp]
  00095	48 33 cd	 xor	 rcx, rbp
  00098	e8 00 00 00 00	 call	 __security_check_cookie
  0009d	48 8d a5 e8 00
	00 00		 lea	 rsp, QWORD PTR [rbp+232]
  000a4	5f		 pop	 rdi
  000a5	5d		 pop	 rbp
  000a6	c3		 ret	 0
?_Swap_proxy_and_iterators_locked@_Container_base12@std@@AEAAXAEAU12@@Z ENDP ; std::_Container_base12::_Swap_proxy_and_iterators_locked
_TEXT	ENDS
; Function compile flags: /Odtp /RTCsu /ZI
; File C:\Program Files\Microsoft Visual Studio\18\Community\VC\Tools\MSVC\14.50.35717\include\xmemory
;	COMDAT ?_Orphan_all_locked_v3@_Container_base12@std@@AEAAXXZ
_TEXT	SEGMENT
_Lock$ = 4
__$ArrayPad$ = 216
this$ = 256
?_Orphan_all_locked_v3@_Container_base12@std@@AEAAXXZ PROC ; std::_Container_base12::_Orphan_all_locked_v3, COMDAT

; 1253 :     void _Orphan_all_locked_v3() noexcept {

$LN4:
  00000	48 89 4c 24 08	 mov	 QWORD PTR [rsp+8], rcx
  00005	55		 push	 rbp
  00006	57		 push	 rdi
  00007	48 81 ec 08 01
	00 00		 sub	 rsp, 264		; 00000108H
  0000e	48 8d 6c 24 20	 lea	 rbp, QWORD PTR [rsp+32]
  00013	48 8d 7c 24 20	 lea	 rdi, QWORD PTR [rsp+32]
  00018	b9 0a 00 00 00	 mov	 ecx, 10
  0001d	b8 cc cc cc cc	 mov	 eax, -858993460		; ccccccccH
  00022	f3 ab		 rep stosd
  00024	48 8b 8c 24 28
	01 00 00	 mov	 rcx, QWORD PTR [rsp+296]
  0002c	48 8b 05 00 00
	00 00		 mov	 rax, QWORD PTR __security_cookie
  00033	48 33 c5	 xor	 rax, rbp
  00036	48 89 85 d8 00
	00 00		 mov	 QWORD PTR __$ArrayPad$[rbp], rax
  0003d	48 8d 0d 00 00
	00 00		 lea	 rcx, OFFSET FLAT:__B41741EF_xmemory
  00044	e8 00 00 00 00	 call	 __CheckForDebuggerJustMyCode
  00049	90		 npad	 1

; 1254 :         _Lockit _Lock(_LOCK_DEBUG);

  0004a	ba 03 00 00 00	 mov	 edx, 3
  0004f	48 8d 4d 04	 lea	 rcx, QWORD PTR _Lock$[rbp]
  00053	ff 15 00 00 00
	00		 call	 QWORD PTR __imp_??0_Lockit@std@@QEAA@H@Z
  00059	90		 npad	 1

; 1255 :         _Orphan_all_unlocked_v3();

  0005a	48 8b 8d 00 01
	00 00		 mov	 rcx, QWORD PTR this$[rbp]
  00061	e8 00 00 00 00	 call	 ?_Orphan_all_unlocked_v3@_Container_base12@std@@AEAAXXZ ; std::_Container_base12::_Orphan_all_unlocked_v3
  00066	90		 npad	 1

; 1256 :     }

  00067	48 8d 4d 04	 lea	 rcx, QWORD PTR _Lock$[rbp]
  0006b	ff 15 00 00 00
	00		 call	 QWORD PTR __imp_??1_Lockit@std@@QEAA@XZ
  00071	90		 npad	 1
  00072	48 8d 4d e0	 lea	 rcx, QWORD PTR [rbp-32]
  00076	48 8d 15 00 00
	00 00		 lea	 rdx, OFFSET FLAT:?_Orphan_all_locked_v3@_Container_base12@std@@AEAAXXZ$rtcFrameData
  0007d	e8 00 00 00 00	 call	 _RTC_CheckStackVars
  00082	48 8b 8d d8 00
	00 00		 mov	 rcx, QWORD PTR __$ArrayPad$[rbp]
  00089	48 33 cd	 xor	 rcx, rbp
  0008c	e8 00 00 00 00	 call	 __security_check_cookie
  00091	48 8d a5 e8 00
	00 00		 lea	 rsp, QWORD PTR [rbp+232]
  00098	5f		 pop	 rdi
  00099	5d		 pop	 rbp
  0009a	c3		 ret	 0
?_Orphan_all_locked_v3@_Container_base12@std@@AEAAXXZ ENDP ; std::_Container_base12::_Orphan_all_locked_v3
_TEXT	ENDS
; Function compile flags: /Odtp /RTCsu /ZI
; File C:\Program Files\Microsoft Visual Studio\18\Community\VC\Tools\MSVC\14.50.35717\include\xmemory
;	COMDAT ?_Swap_proxy_and_iterators_unlocked@_Container_base12@std@@AEAAXAEAU12@@Z
_TEXT	SEGMENT
_Temp$ = 8
this$ = 256
_Right$ = 264
?_Swap_proxy_and_iterators_unlocked@_Container_base12@std@@AEAAXAEAU12@@Z PROC ; std::_Container_base12::_Swap_proxy_and_iterators_unlocked, COMDAT

; 1417 : _CONSTEXPR20 void _Container_base12::_Swap_proxy_and_iterators_unlocked(_Container_base12& _Right) noexcept {

$LN6:
  00000	48 89 54 24 10	 mov	 QWORD PTR [rsp+16], rdx
  00005	48 89 4c 24 08	 mov	 QWORD PTR [rsp+8], rcx
  0000a	55		 push	 rbp
  0000b	57		 push	 rdi
  0000c	48 81 ec 08 01
	00 00		 sub	 rsp, 264		; 00000108H
  00013	48 8d 6c 24 20	 lea	 rbp, QWORD PTR [rsp+32]
  00018	48 8d 0d 00 00
	00 00		 lea	 rcx, OFFSET FLAT:__B41741EF_xmemory
  0001f	e8 00 00 00 00	 call	 __CheckForDebuggerJustMyCode
  00024	90		 npad	 1

; 1418 :     _Container_proxy* _Temp = _Myproxy;

  00025	48 8b 85 00 01
	00 00		 mov	 rax, QWORD PTR this$[rbp]
  0002c	48 8b 00	 mov	 rax, QWORD PTR [rax]
  0002f	48 89 45 08	 mov	 QWORD PTR _Temp$[rbp], rax

; 1419 :     _Myproxy                = _Right._Myproxy;

  00033	48 8b 85 00 01
	00 00		 mov	 rax, QWORD PTR this$[rbp]
  0003a	48 8b 8d 08 01
	00 00		 mov	 rcx, QWORD PTR _Right$[rbp]
  00041	48 8b 09	 mov	 rcx, QWORD PTR [rcx]
  00044	48 89 08	 mov	 QWORD PTR [rax], rcx

; 1420 :     _Right._Myproxy         = _Temp;

  00047	48 8b 85 08 01
	00 00		 mov	 rax, QWORD PTR _Right$[rbp]
  0004e	48 8b 4d 08	 mov	 rcx, QWORD PTR _Temp$[rbp]
  00052	48 89 08	 mov	 QWORD PTR [rax], rcx

; 1421 : 
; 1422 :     if (_Myproxy) {

  00055	48 8b 85 00 01
	00 00		 mov	 rax, QWORD PTR this$[rbp]
  0005c	48 83 38 00	 cmp	 QWORD PTR [rax], 0
  00060	74 14		 je	 SHORT $LN2@Swap_proxy

; 1423 :         _Myproxy->_Mycont = this;

  00062	48 8b 85 00 01
	00 00		 mov	 rax, QWORD PTR this$[rbp]
  00069	48 8b 00	 mov	 rax, QWORD PTR [rax]
  0006c	48 8b 8d 00 01
	00 00		 mov	 rcx, QWORD PTR this$[rbp]
  00073	48 89 08	 mov	 QWORD PTR [rax], rcx
$LN2@Swap_proxy:

; 1424 :     }
; 1425 : 
; 1426 :     if (_Right._Myproxy) {

  00076	48 8b 85 08 01
	00 00		 mov	 rax, QWORD PTR _Right$[rbp]
  0007d	48 83 38 00	 cmp	 QWORD PTR [rax], 0
  00081	74 14		 je	 SHORT $LN3@Swap_proxy

; 1427 :         _Right._Myproxy->_Mycont = &_Right;

  00083	48 8b 85 08 01
	00 00		 mov	 rax, QWORD PTR _Right$[rbp]
  0008a	48 8b 00	 mov	 rax, QWORD PTR [rax]
  0008d	48 8b 8d 08 01
	00 00		 mov	 rcx, QWORD PTR _Right$[rbp]
  00094	48 89 08	 mov	 QWORD PTR [rax], rcx
$LN3@Swap_proxy:

; 1428 :     }
; 1429 : }

  00097	48 8d a5 e8 00
	00 00		 lea	 rsp, QWORD PTR [rbp+232]
  0009e	5f		 pop	 rdi
  0009f	5d		 pop	 rbp
  000a0	c3		 ret	 0
?_Swap_proxy_and_iterators_unlocked@_Container_base12@std@@AEAAXAEAU12@@Z ENDP ; std::_Container_base12::_Swap_proxy_and_iterators_unlocked
_TEXT	ENDS
; Function compile flags: /Odtp /RTCsu /ZI
; File C:\Program Files\Microsoft Visual Studio\18\Community\VC\Tools\MSVC\14.50.35717\include\xmemory
;	COMDAT ?_Orphan_all_unlocked_v3@_Container_base12@std@@AEAAXXZ
_TEXT	SEGMENT
_Pnext$1 = 8
$T2 = 228
this$ = 288
?_Orphan_all_unlocked_v3@_Container_base12@std@@AEAAXXZ PROC ; std::_Container_base12::_Orphan_all_unlocked_v3, COMDAT

; 1393 : _CONSTEXPR20 void _Container_base12::_Orphan_all_unlocked_v3() noexcept {

$LN8:
  00000	48 89 4c 24 08	 mov	 QWORD PTR [rsp+8], rcx
  00005	55		 push	 rbp
  00006	57		 push	 rdi
  00007	48 81 ec 28 01
	00 00		 sub	 rsp, 296		; 00000128H
  0000e	48 8d 6c 24 20	 lea	 rbp, QWORD PTR [rsp+32]
  00013	48 8d 0d 00 00
	00 00		 lea	 rcx, OFFSET FLAT:__B41741EF_xmemory
  0001a	e8 00 00 00 00	 call	 __CheckForDebuggerJustMyCode
  0001f	90		 npad	 1

; 1394 :     if (!_Myproxy) { // no proxy, already done

  00020	48 8b 85 20 01
	00 00		 mov	 rax, QWORD PTR this$[rbp]
  00027	48 83 38 00	 cmp	 QWORD PTR [rax], 0
  0002b	75 02		 jne	 SHORT $LN5@Orphan_all

; 1395 :         return;

  0002d	eb 4e		 jmp	 SHORT $LN1@Orphan_all
$LN5@Orphan_all:

; 1396 :     }
; 1397 : 
; 1398 :     // proxy allocated, drain it
; 1399 :     for (auto _Pnext = _STD exchange(_Myproxy->_Myfirstiter, nullptr); _Pnext; _Pnext = _Pnext->_Mynextiter) {

  0002f	48 c7 85 e4 00
	00 00 00 00 00
	00		 mov	 QWORD PTR $T2[rbp], 0
  0003a	48 8b 85 20 01
	00 00		 mov	 rax, QWORD PTR this$[rbp]
  00041	48 8b 00	 mov	 rax, QWORD PTR [rax]
  00044	48 83 c0 08	 add	 rax, 8
  00048	48 8d 95 e4 00
	00 00		 lea	 rdx, QWORD PTR $T2[rbp]
  0004f	48 8b c8	 mov	 rcx, rax
  00052	e8 00 00 00 00	 call	 ??$exchange@PEAU_Iterator_base12@std@@$$T@std@@YAPEAU_Iterator_base12@0@AEAPEAU10@$$QEA$$T@Z ; std::exchange<std::_Iterator_base12 *,std::nullptr_t>
  00057	48 89 45 08	 mov	 QWORD PTR _Pnext$1[rbp], rax
  0005b	eb 0c		 jmp	 SHORT $LN4@Orphan_all
$LN2@Orphan_all:
  0005d	48 8b 45 08	 mov	 rax, QWORD PTR _Pnext$1[rbp]
  00061	48 8b 40 08	 mov	 rax, QWORD PTR [rax+8]
  00065	48 89 45 08	 mov	 QWORD PTR _Pnext$1[rbp], rax
$LN4@Orphan_all:
  00069	48 83 7d 08 00	 cmp	 QWORD PTR _Pnext$1[rbp], 0
  0006e	74 0d		 je	 SHORT $LN1@Orphan_all

; 1400 :         _Pnext->_Myproxy = nullptr;

  00070	48 8b 45 08	 mov	 rax, QWORD PTR _Pnext$1[rbp]
  00074	48 c7 00 00 00
	00 00		 mov	 QWORD PTR [rax], 0

; 1401 :     }

  0007b	eb e0		 jmp	 SHORT $LN2@Orphan_all
$LN1@Orphan_all:

; 1402 : }

  0007d	48 8d a5 08 01
	00 00		 lea	 rsp, QWORD PTR [rbp+264]
  00084	5f		 pop	 rdi
  00085	5d		 pop	 rbp
  00086	c3		 ret	 0
?_Orphan_all_unlocked_v3@_Container_base12@std@@AEAAXXZ ENDP ; std::_Container_base12::_Orphan_all_unlocked_v3
_TEXT	ENDS
; Function compile flags: /Odtp /RTCsu /ZI
; File C:\Program Files\Microsoft Visual Studio\18\Community\VC\Tools\MSVC\14.50.35717\include\xmemory
;	COMDAT ?_Swap_proxy_and_iterators@_Container_base12@std@@QEAAXAEAU12@@Z
_TEXT	SEGMENT
this$ = 224
_Right$ = 232
?_Swap_proxy_and_iterators@_Container_base12@std@@QEAAXAEAU12@@Z PROC ; std::_Container_base12::_Swap_proxy_and_iterators, COMDAT

; 1431 : _CONSTEXPR20 void _Container_base12::_Swap_proxy_and_iterators(_Container_base12& _Right) noexcept {

$LN6:
  00000	48 89 54 24 10	 mov	 QWORD PTR [rsp+16], rdx
  00005	48 89 4c 24 08	 mov	 QWORD PTR [rsp+8], rcx
  0000a	55		 push	 rbp
  0000b	57		 push	 rdi
  0000c	48 81 ec e8 00
	00 00		 sub	 rsp, 232		; 000000e8H
  00013	48 8d 6c 24 20	 lea	 rbp, QWORD PTR [rsp+32]
  00018	48 8d 0d 00 00
	00 00		 lea	 rcx, OFFSET FLAT:__B41741EF_xmemory
  0001f	e8 00 00 00 00	 call	 __CheckForDebuggerJustMyCode
  00024	90		 npad	 1

; 1432 : #if _ITERATOR_DEBUG_LEVEL == 2
; 1433 : #if _HAS_CXX20
; 1434 :     if (_STD is_constant_evaluated()) {

  00025	e8 00 00 00 00	 call	 ?is_constant_evaluated@std@@YA_NXZ ; std::is_constant_evaluated
  0002a	0f b6 c0	 movzx	 eax, al
  0002d	85 c0		 test	 eax, eax
  0002f	74 16		 je	 SHORT $LN2@Swap_proxy

; 1435 :         _Swap_proxy_and_iterators_unlocked(_Right);

  00031	48 8b 95 e8 00
	00 00		 mov	 rdx, QWORD PTR _Right$[rbp]
  00038	48 8b 8d e0 00
	00 00		 mov	 rcx, QWORD PTR this$[rbp]
  0003f	e8 00 00 00 00	 call	 ?_Swap_proxy_and_iterators_unlocked@_Container_base12@std@@AEAAXAEAU12@@Z ; std::_Container_base12::_Swap_proxy_and_iterators_unlocked
  00044	90		 npad	 1

; 1436 :     } else

  00045	eb 14		 jmp	 SHORT $LN3@Swap_proxy
$LN2@Swap_proxy:

; 1437 : #endif // _HAS_CXX20
; 1438 :     {
; 1439 :         _Swap_proxy_and_iterators_locked(_Right);

  00047	48 8b 95 e8 00
	00 00		 mov	 rdx, QWORD PTR _Right$[rbp]
  0004e	48 8b 8d e0 00
	00 00		 mov	 rcx, QWORD PTR this$[rbp]
  00055	e8 00 00 00 00	 call	 ?_Swap_proxy_and_iterators_locked@_Container_base12@std@@AEAAXAEAU12@@Z ; std::_Container_base12::_Swap_proxy_and_iterators_locked
  0005a	90		 npad	 1
$LN3@Swap_proxy:

; 1440 :     }
; 1441 : #else // ^^^ _ITERATOR_DEBUG_LEVEL == 2 / _ITERATOR_DEBUG_LEVEL != 2 vvv
; 1442 :     _Swap_proxy_and_iterators_unlocked(_Right);
; 1443 : #endif // ^^^ _ITERATOR_DEBUG_LEVEL != 2 ^^^
; 1444 : }

  0005b	48 8d a5 c8 00
	00 00		 lea	 rsp, QWORD PTR [rbp+200]
  00062	5f		 pop	 rdi
  00063	5d		 pop	 rbp
  00064	c3		 ret	 0
?_Swap_proxy_and_iterators@_Container_base12@std@@QEAAXAEAU12@@Z ENDP ; std::_Container_base12::_Swap_proxy_and_iterators
_TEXT	ENDS
; Function compile flags: /Odtp /RTCsu /ZI
; File C:\Program Files\Microsoft Visual Studio\18\Community\VC\Tools\MSVC\14.50.35717\include\xmemory
;	COMDAT ?_Orphan_all@_Container_base12@std@@QEAAXXZ
_TEXT	SEGMENT
this$ = 224
?_Orphan_all@_Container_base12@std@@QEAAXXZ PROC	; std::_Container_base12::_Orphan_all, COMDAT

; 1404 : _CONSTEXPR20 void _Container_base12::_Orphan_all() noexcept {

$LN6:
  00000	48 89 4c 24 08	 mov	 QWORD PTR [rsp+8], rcx
  00005	55		 push	 rbp
  00006	57		 push	 rdi
  00007	48 81 ec e8 00
	00 00		 sub	 rsp, 232		; 000000e8H
  0000e	48 8d 6c 24 20	 lea	 rbp, QWORD PTR [rsp+32]
  00013	48 8d 0d 00 00
	00 00		 lea	 rcx, OFFSET FLAT:__B41741EF_xmemory
  0001a	e8 00 00 00 00	 call	 __CheckForDebuggerJustMyCode
  0001f	90		 npad	 1

; 1405 : #if _ITERATOR_DEBUG_LEVEL == 2
; 1406 : #if _HAS_CXX20
; 1407 :     if (_STD is_constant_evaluated()) {

  00020	e8 00 00 00 00	 call	 ?is_constant_evaluated@std@@YA_NXZ ; std::is_constant_evaluated
  00025	0f b6 c0	 movzx	 eax, al
  00028	85 c0		 test	 eax, eax
  0002a	74 0f		 je	 SHORT $LN2@Orphan_all

; 1408 :         _Orphan_all_unlocked_v3();

  0002c	48 8b 8d e0 00
	00 00		 mov	 rcx, QWORD PTR this$[rbp]
  00033	e8 00 00 00 00	 call	 ?_Orphan_all_unlocked_v3@_Container_base12@std@@AEAAXXZ ; std::_Container_base12::_Orphan_all_unlocked_v3
  00038	90		 npad	 1

; 1409 :     } else

  00039	eb 0d		 jmp	 SHORT $LN3@Orphan_all
$LN2@Orphan_all:

; 1410 : #endif // _HAS_CXX20
; 1411 :     {
; 1412 :         _Orphan_all_locked_v3();

  0003b	48 8b 8d e0 00
	00 00		 mov	 rcx, QWORD PTR this$[rbp]
  00042	e8 00 00 00 00	 call	 ?_Orphan_all_locked_v3@_Container_base12@std@@AEAAXXZ ; std::_Container_base12::_Orphan_all_locked_v3
  00047	90		 npad	 1
$LN3@Orphan_all:

; 1413 :     }
; 1414 : #endif // _ITERATOR_DEBUG_LEVEL == 2
; 1415 : }

  00048	48 8d a5 c8 00
	00 00		 lea	 rsp, QWORD PTR [rbp+200]
  0004f	5f		 pop	 rdi
  00050	5d		 pop	 rbp
  00051	c3		 ret	 0
?_Orphan_all@_Container_base12@std@@QEAAXXZ ENDP	; std::_Container_base12::_Orphan_all
_TEXT	ENDS
; Function compile flags: /Odtp /RTCsu /ZI
; File C:\Program Files\Microsoft Visual Studio\18\Community\VC\Tools\MSVC\14.50.35717\include\xmemory
;	COMDAT ??0_Container_base12@std@@QEAA@XZ
_TEXT	SEGMENT
this$ = 224
??0_Container_base12@std@@QEAA@XZ PROC			; std::_Container_base12::_Container_base12, COMDAT

; 1222 :     _CONSTEXPR20 _Container_base12() noexcept = default;

$LN4:
  00000	48 89 4c 24 08	 mov	 QWORD PTR [rsp+8], rcx
  00005	55		 push	 rbp
  00006	57		 push	 rdi
  00007	48 81 ec e8 00
	00 00		 sub	 rsp, 232		; 000000e8H
  0000e	48 8d 6c 24 20	 lea	 rbp, QWORD PTR [rsp+32]
  00013	48 8d 0d 00 00
	00 00		 lea	 rcx, OFFSET FLAT:__B41741EF_xmemory
  0001a	e8 00 00 00 00	 call	 __CheckForDebuggerJustMyCode
  0001f	90		 npad	 1

; 1223 : 
; 1224 :     _Container_base12(const _Container_base12&)            = delete;
; 1225 :     _Container_base12& operator=(const _Container_base12&) = delete;
; 1226 : 
; 1227 :     _CONSTEXPR20 void _Orphan_all() noexcept;
; 1228 :     _CONSTEXPR20 void _Swap_proxy_and_iterators(_Container_base12&) noexcept;
; 1229 : 
; 1230 :     template <class _Alloc>
; 1231 :     _CONSTEXPR20 void _Alloc_proxy(_Alloc&& _Al) {
; 1232 :         _Container_proxy* const _New_proxy = _Unfancy(_Al.allocate(1));
; 1233 :         _Construct_in_place(*_New_proxy, this);
; 1234 :         _Myproxy            = _New_proxy;
; 1235 :         _New_proxy->_Mycont = this;
; 1236 :     }
; 1237 : 
; 1238 :     template <class _Alloc>
; 1239 :     _CONSTEXPR20 void _Reload_proxy(_Alloc&& _Old_alloc, _Alloc&& _New_alloc) {
; 1240 :         // pre: no iterators refer to the existing proxy
; 1241 :         _Container_proxy* const _New_proxy = _Unfancy(_New_alloc.allocate(1));
; 1242 :         _Construct_in_place(*_New_proxy, this);
; 1243 :         _New_proxy->_Mycont = this;
; 1244 :         _Delete_plain_internal(_Old_alloc, _STD exchange(_Myproxy, _New_proxy));
; 1245 :     }
; 1246 : 
; 1247 :     _Container_proxy* _Myproxy = nullptr;

  00020	48 8b 85 e0 00
	00 00		 mov	 rax, QWORD PTR this$[rbp]
  00027	48 c7 00 00 00
	00 00		 mov	 QWORD PTR [rax], 0

; 1222 :     _CONSTEXPR20 _Container_base12() noexcept = default;

  0002e	48 8b 85 e0 00
	00 00		 mov	 rax, QWORD PTR this$[rbp]
  00035	48 8d a5 c8 00
	00 00		 lea	 rsp, QWORD PTR [rbp+200]
  0003c	5f		 pop	 rdi
  0003d	5d		 pop	 rbp
  0003e	c3		 ret	 0
??0_Container_base12@std@@QEAA@XZ ENDP			; std::_Container_base12::_Container_base12
_TEXT	ENDS
; Function compile flags: /Odtp /RTCsu /ZI
; File C:\Program Files\Microsoft Visual Studio\18\Community\VC\Tools\MSVC\14.50.35717\include\xmemory
;	COMDAT ??0_Container_proxy@std@@QEAA@PEAU_Container_base12@1@@Z
_TEXT	SEGMENT
this$ = 224
_Mycont_$ = 232
??0_Container_proxy@std@@QEAA@PEAU_Container_base12@1@@Z PROC ; std::_Container_proxy::_Container_proxy, COMDAT

; 1214 :     _CONSTEXPR20 _Container_proxy(_Container_base12* _Mycont_) noexcept : _Mycont(_Mycont_) {}

$LN4:
  00000	48 89 54 24 10	 mov	 QWORD PTR [rsp+16], rdx
  00005	48 89 4c 24 08	 mov	 QWORD PTR [rsp+8], rcx
  0000a	55		 push	 rbp
  0000b	57		 push	 rdi
  0000c	48 81 ec e8 00
	00 00		 sub	 rsp, 232		; 000000e8H
  00013	48 8d 6c 24 20	 lea	 rbp, QWORD PTR [rsp+32]
  00018	48 8d 0d 00 00
	00 00		 lea	 rcx, OFFSET FLAT:__B41741EF_xmemory
  0001f	e8 00 00 00 00	 call	 __CheckForDebuggerJustMyCode
  00024	90		 npad	 1
  00025	48 8b 85 e0 00
	00 00		 mov	 rax, QWORD PTR this$[rbp]
  0002c	48 8b 8d e8 00
	00 00		 mov	 rcx, QWORD PTR _Mycont_$[rbp]
  00033	48 89 08	 mov	 QWORD PTR [rax], rcx

; 1215 : 
; 1216 :     const _Container_base12* _Mycont       = nullptr;
; 1217 :     mutable _Iterator_base12* _Myfirstiter = nullptr;

  00036	48 8b 85 e0 00
	00 00		 mov	 rax, QWORD PTR this$[rbp]
  0003d	48 c7 40 08 00
	00 00 00	 mov	 QWORD PTR [rax+8], 0

; 1214 :     _CONSTEXPR20 _Container_proxy(_Container_base12* _Mycont_) noexcept : _Mycont(_Mycont_) {}

  00045	48 8b 85 e0 00
	00 00		 mov	 rax, QWORD PTR this$[rbp]
  0004c	48 8d a5 c8 00
	00 00		 lea	 rsp, QWORD PTR [rbp+200]
  00053	5f		 pop	 rdi
  00054	5d		 pop	 rbp
  00055	c3		 ret	 0
??0_Container_proxy@std@@QEAA@PEAU_Container_base12@1@@Z ENDP ; std::_Container_proxy::_Container_proxy
_TEXT	ENDS
; Function compile flags: /Odtp /RTCsu /ZI
; File C:\Program Files\Microsoft Visual Studio\18\Community\VC\Tools\MSVC\14.50.35717\include\xmemory
;	COMDAT ?_Adjust_manually_vector_aligned@std@@YAXAEAPEAXAEA_K@Z
_TEXT	SEGMENT
_Ptr_user$ = 8
_Ptr_container$ = 40
_Min_back_shift$ = 72
_Back_shift$ = 104
_Ptr$ = 352
_Bytes$ = 360
?_Adjust_manually_vector_aligned@std@@YAXAEAPEAXAEA_K@Z PROC ; std::_Adjust_manually_vector_aligned, COMDAT

; 204  : inline void _Adjust_manually_vector_aligned(void*& _Ptr, size_t& _Bytes) {

$LN8:
  00000	48 89 54 24 10	 mov	 QWORD PTR [rsp+16], rdx
  00005	48 89 4c 24 08	 mov	 QWORD PTR [rsp+8], rcx
  0000a	55		 push	 rbp
  0000b	57		 push	 rdi
  0000c	48 81 ec 78 01
	00 00		 sub	 rsp, 376		; 00000178H
  00013	48 8d 6c 24 30	 lea	 rbp, QWORD PTR [rsp+48]
  00018	48 8d 0d 00 00
	00 00		 lea	 rcx, OFFSET FLAT:__B41741EF_xmemory
  0001f	e8 00 00 00 00	 call	 __CheckForDebuggerJustMyCode
  00024	90		 npad	 1

; 205  :     // adjust parameters from _Allocate_manually_vector_aligned to pass to operator delete
; 206  :     _Bytes += _Non_user_size;

  00025	48 8b 85 68 01
	00 00		 mov	 rax, QWORD PTR _Bytes$[rbp]
  0002c	48 8b 00	 mov	 rax, QWORD PTR [rax]
  0002f	48 83 c0 2f	 add	 rax, 47			; 0000002fH
  00033	48 8b 8d 68 01
	00 00		 mov	 rcx, QWORD PTR _Bytes$[rbp]
  0003a	48 89 01	 mov	 QWORD PTR [rcx], rax

; 207  : 
; 208  :     const uintptr_t* const _Ptr_user = static_cast<uintptr_t*>(_Ptr);

  0003d	48 8b 85 60 01
	00 00		 mov	 rax, QWORD PTR _Ptr$[rbp]
  00044	48 8b 00	 mov	 rax, QWORD PTR [rax]
  00047	48 89 45 08	 mov	 QWORD PTR _Ptr_user$[rbp], rax

; 209  :     const uintptr_t _Ptr_container   = _Ptr_user[-1];

  0004b	b8 08 00 00 00	 mov	 eax, 8
  00050	48 6b c0 ff	 imul	 rax, rax, -1
  00054	48 8b 4d 08	 mov	 rcx, QWORD PTR _Ptr_user$[rbp]
  00058	48 8b 04 01	 mov	 rax, QWORD PTR [rcx+rax]
  0005c	48 89 45 28	 mov	 QWORD PTR _Ptr_container$[rbp], rax

; 210  : 
; 211  :     // If the following asserts, it likely means that we are performing
; 212  :     // an aligned delete on memory coming from an unaligned allocation.
; 213  :     _STL_ASSERT(_Ptr_user[-2] == _Big_allocation_sentinel, "invalid argument");

  00060	b8 08 00 00 00	 mov	 eax, 8
  00065	48 6b c0 fe	 imul	 rax, rax, -2
  00069	48 8b 4d 08	 mov	 rcx, QWORD PTR _Ptr_user$[rbp]
  0006d	48 ba fa fa fa
	fa fa fa fa fa	 mov	 rdx, -361700864190383366 ; fafafafafafafafaH
  00077	48 39 14 01	 cmp	 QWORD PTR [rcx+rax], rdx
  0007b	74 48		 je	 SHORT $LN2@Adjust_man
  0007d	8b 05 00 00 00
	00		 mov	 eax, DWORD PTR ?__LINE__Var@?0??_Adjust_manually_vector_aligned@std@@YAXAEAPEAXAEA_K@Z@4JA
  00083	83 c0 09	 add	 eax, 9
  00086	48 8d 0d 00 00
	00 00		 lea	 rcx, OFFSET FLAT:??_C@_0BB@FCMFBGOM@invalid?5argument@
  0008d	48 89 4c 24 28	 mov	 QWORD PTR [rsp+40], rcx
  00092	48 8d 0d 00 00
	00 00		 lea	 rcx, OFFSET FLAT:??_C@_02DKCKIIND@?$CFs@
  00099	48 89 4c 24 20	 mov	 QWORD PTR [rsp+32], rcx
  0009e	45 33 c9	 xor	 r9d, r9d
  000a1	44 8b c0	 mov	 r8d, eax
  000a4	48 8d 15 00 00
	00 00		 lea	 rdx, OFFSET FLAT:??_C@_0GA@HFAKHCPJ@C?3?2Program?5Files?2Microsoft?5Visu@
  000ab	b9 02 00 00 00	 mov	 ecx, 2
  000b0	ff 15 00 00 00
	00		 call	 QWORD PTR __imp__CrtDbgReport
  000b6	83 f8 01	 cmp	 eax, 1
  000b9	75 03		 jne	 SHORT $LN6@Adjust_man
  000bb	cc		 int	 3
  000bc	33 c0		 xor	 eax, eax
$LN6@Adjust_man:
  000be	b9 05 00 00 00	 mov	 ecx, 5
  000c3	cd 29		 int	 41			; 00000029H
$LN2@Adjust_man:

; 214  : 
; 215  :     // Extra paranoia on aligned allocation/deallocation; ensure _Ptr_container is
; 216  :     // in range [_Min_back_shift, _Non_user_size]
; 217  : #ifdef _DEBUG
; 218  :     constexpr uintptr_t _Min_back_shift = 2 * sizeof(void*);

  000c5	48 c7 45 48 10
	00 00 00	 mov	 QWORD PTR _Min_back_shift$[rbp], 16

; 219  : #else // ^^^ defined(_DEBUG) / !defined(_DEBUG) vvv
; 220  :     constexpr uintptr_t _Min_back_shift = sizeof(void*);
; 221  : #endif // ^^^ !defined(_DEBUG) ^^^
; 222  :     const uintptr_t _Back_shift = reinterpret_cast<uintptr_t>(_Ptr) - _Ptr_container;

  000cd	48 8b 85 60 01
	00 00		 mov	 rax, QWORD PTR _Ptr$[rbp]
  000d4	48 8b 4d 28	 mov	 rcx, QWORD PTR _Ptr_container$[rbp]
  000d8	48 8b 00	 mov	 rax, QWORD PTR [rax]
  000db	48 2b c1	 sub	 rax, rcx
  000de	48 89 45 68	 mov	 QWORD PTR _Back_shift$[rbp], rax

; 223  :     _STL_VERIFY(_Back_shift >= _Min_back_shift && _Back_shift <= _Non_user_size, "invalid argument");

  000e2	48 83 7d 68 10	 cmp	 QWORD PTR _Back_shift$[rbp], 16
  000e7	72 07		 jb	 SHORT $LN4@Adjust_man
  000e9	48 83 7d 68 2f	 cmp	 QWORD PTR _Back_shift$[rbp], 47 ; 0000002fH
  000ee	76 48		 jbe	 SHORT $LN3@Adjust_man
$LN4@Adjust_man:
  000f0	8b 05 00 00 00
	00		 mov	 eax, DWORD PTR ?__LINE__Var@?0??_Adjust_manually_vector_aligned@std@@YAXAEAPEAXAEA_K@Z@4JA
  000f6	83 c0 13	 add	 eax, 19
  000f9	48 8d 0d 00 00
	00 00		 lea	 rcx, OFFSET FLAT:??_C@_0BB@FCMFBGOM@invalid?5argument@
  00100	48 89 4c 24 28	 mov	 QWORD PTR [rsp+40], rcx
  00105	48 8d 0d 00 00
	00 00		 lea	 rcx, OFFSET FLAT:??_C@_02DKCKIIND@?$CFs@
  0010c	48 89 4c 24 20	 mov	 QWORD PTR [rsp+32], rcx
  00111	45 33 c9	 xor	 r9d, r9d
  00114	44 8b c0	 mov	 r8d, eax
  00117	48 8d 15 00 00
	00 00		 lea	 rdx, OFFSET FLAT:??_C@_0GA@HFAKHCPJ@C?3?2Program?5Files?2Microsoft?5Visu@
  0011e	b9 02 00 00 00	 mov	 ecx, 2
  00123	ff 15 00 00 00
	00		 call	 QWORD PTR __imp__CrtDbgReport
  00129	83 f8 01	 cmp	 eax, 1
  0012c	75 03		 jne	 SHORT $LN7@Adjust_man
  0012e	cc		 int	 3
  0012f	33 c0		 xor	 eax, eax
$LN7@Adjust_man:
  00131	b9 05 00 00 00	 mov	 ecx, 5
  00136	cd 29		 int	 41			; 00000029H
$LN3@Adjust_man:

; 224  :     _Ptr = reinterpret_cast<void*>(_Ptr_container);

  00138	48 8b 85 60 01
	00 00		 mov	 rax, QWORD PTR _Ptr$[rbp]
  0013f	48 8b 4d 28	 mov	 rcx, QWORD PTR _Ptr_container$[rbp]
  00143	48 89 08	 mov	 QWORD PTR [rax], rcx
$LN5@Adjust_man:

; 225  : }

  00146	48 8d a5 48 01
	00 00		 lea	 rsp, QWORD PTR [rbp+328]
  0014d	5f		 pop	 rdi
  0014e	5d		 pop	 rbp
  0014f	c3		 ret	 0
?_Adjust_manually_vector_aligned@std@@YAXAEAPEAXAEA_K@Z ENDP ; std::_Adjust_manually_vector_aligned
_TEXT	ENDS
; Function compile flags: /Odtp /RTCsu /ZI
; File C:\Program Files\Microsoft Visual Studio\18\Community\VC\Tools\MSVC\14.50.35717\include\xmemory
;	COMDAT ?_Allocate@_Default_allocate_traits@std@@SAPEAX_K@Z
_TEXT	SEGMENT
_Bytes$ = 224
?_Allocate@_Default_allocate_traits@std@@SAPEAX_K@Z PROC ; std::_Default_allocate_traits::_Allocate, COMDAT

; 139  :     __declspec(allocator) static _CLANG_CONSTEXPR20 void* _Allocate(const size_t _Bytes) {

$LN3:
  00000	48 89 4c 24 08	 mov	 QWORD PTR [rsp+8], rcx
  00005	55		 push	 rbp
  00006	57		 push	 rdi
  00007	48 81 ec e8 00
	00 00		 sub	 rsp, 232		; 000000e8H
  0000e	48 8d 6c 24 20	 lea	 rbp, QWORD PTR [rsp+32]
  00013	48 8d 0d 00 00
	00 00		 lea	 rcx, OFFSET FLAT:__B41741EF_xmemory
  0001a	e8 00 00 00 00	 call	 __CheckForDebuggerJustMyCode
  0001f	90		 npad	 1

; 140  :         return ::operator new(_Bytes);

  00020	48 8b 8d e0 00
	00 00		 mov	 rcx, QWORD PTR _Bytes$[rbp]
  00027	e8 00 00 00 00	 call	 ??2@YAPEAX_K@Z		; operator new

; 141  :     }

  0002c	48 8d a5 c8 00
	00 00		 lea	 rsp, QWORD PTR [rbp+200]
  00033	5f		 pop	 rdi
  00034	5d		 pop	 rbp
  00035	c3		 ret	 0
?_Allocate@_Default_allocate_traits@std@@SAPEAX_K@Z ENDP ; std::_Default_allocate_traits::_Allocate
_TEXT	ENDS
; Function compile flags: /Odtp /RTCsu /ZI
; File C:\Program Files\Microsoft Visual Studio\18\Community\VC\Tools\MSVC\14.50.35717\include\xmemory
;	COMDAT ?_Throw_bad_array_new_length@std@@YAXXZ
_TEXT	SEGMENT
$T1 = 200
?_Throw_bad_array_new_length@std@@YAXXZ PROC		; std::_Throw_bad_array_new_length, COMDAT

; 111  : [[noreturn]] inline void _Throw_bad_array_new_length() {

$LN3:
  00000	40 55		 push	 rbp
  00002	57		 push	 rdi
  00003	48 81 ec 18 01
	00 00		 sub	 rsp, 280		; 00000118H
  0000a	48 8d 6c 24 20	 lea	 rbp, QWORD PTR [rsp+32]
  0000f	48 8d 0d 00 00
	00 00		 lea	 rcx, OFFSET FLAT:__B41741EF_xmemory
  00016	e8 00 00 00 00	 call	 __CheckForDebuggerJustMyCode
  0001b	90		 npad	 1

; 112  :     _THROW(bad_array_new_length{});

  0001c	48 8d 8d c8 00
	00 00		 lea	 rcx, QWORD PTR $T1[rbp]
  00023	e8 00 00 00 00	 call	 ??0bad_array_new_length@std@@QEAA@XZ ; std::bad_array_new_length::bad_array_new_length
  00028	48 8d 15 00 00
	00 00		 lea	 rdx, OFFSET FLAT:_TI3?AVbad_array_new_length@std@@
  0002f	48 8d 8d c8 00
	00 00		 lea	 rcx, QWORD PTR $T1[rbp]
  00036	e8 00 00 00 00	 call	 _CxxThrowException
  0003b	90		 npad	 1
$LN2@Throw_bad_:

; 113  : }

  0003c	48 8d a5 f8 00
	00 00		 lea	 rsp, QWORD PTR [rbp+248]
  00043	5f		 pop	 rdi
  00044	5d		 pop	 rbp
  00045	c3		 ret	 0
?_Throw_bad_array_new_length@std@@YAXXZ ENDP		; std::_Throw_bad_array_new_length
_TEXT	ENDS
; Function compile flags: /Odtp /RTCsu /ZI
;	COMDAT ??_Gbad_array_new_length@std@@UEAAPEAXI@Z
_TEXT	SEGMENT
this$ = 224
__flags$ = 232
??_Gbad_array_new_length@std@@UEAAPEAXI@Z PROC		; std::bad_array_new_length::`scalar deleting destructor', COMDAT
$LN5:
  00000	89 54 24 10	 mov	 DWORD PTR [rsp+16], edx
  00004	48 89 4c 24 08	 mov	 QWORD PTR [rsp+8], rcx
  00009	55		 push	 rbp
  0000a	57		 push	 rdi
  0000b	48 81 ec e8 00
	00 00		 sub	 rsp, 232		; 000000e8H
  00012	48 8d 6c 24 20	 lea	 rbp, QWORD PTR [rsp+32]
  00017	48 8b 8d e0 00
	00 00		 mov	 rcx, QWORD PTR this$[rbp]
  0001e	e8 00 00 00 00	 call	 ??1bad_array_new_length@std@@UEAA@XZ
  00023	90		 npad	 1
  00024	8b 85 e8 00 00
	00		 mov	 eax, DWORD PTR __flags$[rbp]
  0002a	83 e0 01	 and	 eax, 1
  0002d	85 c0		 test	 eax, eax
  0002f	74 12		 je	 SHORT $LN2@scalar
  00031	ba 18 00 00 00	 mov	 edx, 24
  00036	48 8b 8d e0 00
	00 00		 mov	 rcx, QWORD PTR this$[rbp]
  0003d	e8 00 00 00 00	 call	 ??3@YAXPEAX_K@Z		; operator delete
  00042	90		 npad	 1
$LN2@scalar:
  00043	48 8b 85 e0 00
	00 00		 mov	 rax, QWORD PTR this$[rbp]
  0004a	48 8d a5 c8 00
	00 00		 lea	 rsp, QWORD PTR [rbp+200]
  00051	5f		 pop	 rdi
  00052	5d		 pop	 rbp
  00053	c3		 ret	 0
??_Gbad_array_new_length@std@@UEAAPEAXI@Z ENDP		; std::bad_array_new_length::`scalar deleting destructor'
_TEXT	ENDS
; Function compile flags: /Odtp /RTCsu /ZI
;	COMDAT ??0bad_array_new_length@std@@QEAA@AEBV01@@Z
_TEXT	SEGMENT
this$ = 224
__that$ = 232
??0bad_array_new_length@std@@QEAA@AEBV01@@Z PROC	; std::bad_array_new_length::bad_array_new_length, COMDAT
$LN4:
  00000	48 89 54 24 10	 mov	 QWORD PTR [rsp+16], rdx
  00005	48 89 4c 24 08	 mov	 QWORD PTR [rsp+8], rcx
  0000a	55		 push	 rbp
  0000b	57		 push	 rdi
  0000c	48 81 ec e8 00
	00 00		 sub	 rsp, 232		; 000000e8H
  00013	48 8d 6c 24 20	 lea	 rbp, QWORD PTR [rsp+32]
  00018	48 8b 95 e8 00
	00 00		 mov	 rdx, QWORD PTR __that$[rbp]
  0001f	48 8b 8d e0 00
	00 00		 mov	 rcx, QWORD PTR this$[rbp]
  00026	e8 00 00 00 00	 call	 ??0bad_alloc@std@@QEAA@AEBV01@@Z
  0002b	90		 npad	 1
  0002c	48 8b 85 e0 00
	00 00		 mov	 rax, QWORD PTR this$[rbp]
  00033	48 8d 0d 00 00
	00 00		 lea	 rcx, OFFSET FLAT:??_7bad_array_new_length@std@@6B@
  0003a	48 89 08	 mov	 QWORD PTR [rax], rcx
  0003d	48 8b 85 e0 00
	00 00		 mov	 rax, QWORD PTR this$[rbp]
  00044	48 8d a5 c8 00
	00 00		 lea	 rsp, QWORD PTR [rbp+200]
  0004b	5f		 pop	 rdi
  0004c	5d		 pop	 rbp
  0004d	c3		 ret	 0
??0bad_array_new_length@std@@QEAA@AEBV01@@Z ENDP	; std::bad_array_new_length::bad_array_new_length
_TEXT	ENDS
; Function compile flags: /Odtp /RTCsu /ZI
;	COMDAT ??1bad_array_new_length@std@@UEAA@XZ
_TEXT	SEGMENT
this$ = 224
??1bad_array_new_length@std@@UEAA@XZ PROC		; std::bad_array_new_length::~bad_array_new_length, COMDAT
$LN4:
  00000	48 89 4c 24 08	 mov	 QWORD PTR [rsp+8], rcx
  00005	55		 push	 rbp
  00006	57		 push	 rdi
  00007	48 81 ec e8 00
	00 00		 sub	 rsp, 232		; 000000e8H
  0000e	48 8d 6c 24 20	 lea	 rbp, QWORD PTR [rsp+32]
  00013	48 8b 8d e0 00
	00 00		 mov	 rcx, QWORD PTR this$[rbp]
  0001a	e8 00 00 00 00	 call	 ??1bad_alloc@std@@UEAA@XZ
  0001f	90		 npad	 1
  00020	48 8d a5 c8 00
	00 00		 lea	 rsp, QWORD PTR [rbp+200]
  00027	5f		 pop	 rdi
  00028	5d		 pop	 rbp
  00029	c3		 ret	 0
??1bad_array_new_length@std@@UEAA@XZ ENDP		; std::bad_array_new_length::~bad_array_new_length
_TEXT	ENDS
; Function compile flags: /Odtp /RTCsu /ZI
; File C:\Program Files\Microsoft Visual Studio\18\Community\VC\Tools\MSVC\14.50.35717\include\vcruntime_exception.h
;	COMDAT ??0bad_array_new_length@std@@QEAA@XZ
_TEXT	SEGMENT
this$ = 224
??0bad_array_new_length@std@@QEAA@XZ PROC		; std::bad_array_new_length::bad_array_new_length, COMDAT

; 144  :     {

$LN4:
  00000	48 89 4c 24 08	 mov	 QWORD PTR [rsp+8], rcx
  00005	55		 push	 rbp
  00006	57		 push	 rdi
  00007	48 81 ec e8 00
	00 00		 sub	 rsp, 232		; 000000e8H
  0000e	48 8d 6c 24 20	 lea	 rbp, QWORD PTR [rsp+32]
  00013	48 8d 0d 00 00
	00 00		 lea	 rcx, OFFSET FLAT:__4A687918_vcruntime_exception@h
  0001a	e8 00 00 00 00	 call	 __CheckForDebuggerJustMyCode
  0001f	90		 npad	 1

; 143  :         : bad_alloc("bad array new length")

  00020	48 8d 15 00 00
	00 00		 lea	 rdx, OFFSET FLAT:??_C@_0BF@KINCDENJ@bad?5array?5new?5length@
  00027	48 8b 8d e0 00
	00 00		 mov	 rcx, QWORD PTR this$[rbp]
  0002e	e8 00 00 00 00	 call	 ??0bad_alloc@std@@AEAA@QEBD@Z ; std::bad_alloc::bad_alloc
  00033	90		 npad	 1

; 144  :     {

  00034	48 8b 85 e0 00
	00 00		 mov	 rax, QWORD PTR this$[rbp]
  0003b	48 8d 0d 00 00
	00 00		 lea	 rcx, OFFSET FLAT:??_7bad_array_new_length@std@@6B@
  00042	48 89 08	 mov	 QWORD PTR [rax], rcx

; 145  :     }

  00045	48 8b 85 e0 00
	00 00		 mov	 rax, QWORD PTR this$[rbp]
  0004c	48 8d a5 c8 00
	00 00		 lea	 rsp, QWORD PTR [rbp+200]
  00053	5f		 pop	 rdi
  00054	5d		 pop	 rbp
  00055	c3		 ret	 0
??0bad_array_new_length@std@@QEAA@XZ ENDP		; std::bad_array_new_length::bad_array_new_length
_TEXT	ENDS
; Function compile flags: /Odtp /RTCsu /ZI
;	COMDAT ??_Gbad_alloc@std@@UEAAPEAXI@Z
_TEXT	SEGMENT
this$ = 224
__flags$ = 232
??_Gbad_alloc@std@@UEAAPEAXI@Z PROC			; std::bad_alloc::`scalar deleting destructor', COMDAT
$LN5:
  00000	89 54 24 10	 mov	 DWORD PTR [rsp+16], edx
  00004	48 89 4c 24 08	 mov	 QWORD PTR [rsp+8], rcx
  00009	55		 push	 rbp
  0000a	57		 push	 rdi
  0000b	48 81 ec e8 00
	00 00		 sub	 rsp, 232		; 000000e8H
  00012	48 8d 6c 24 20	 lea	 rbp, QWORD PTR [rsp+32]
  00017	48 8b 8d e0 00
	00 00		 mov	 rcx, QWORD PTR this$[rbp]
  0001e	e8 00 00 00 00	 call	 ??1bad_alloc@std@@UEAA@XZ
  00023	90		 npad	 1
  00024	8b 85 e8 00 00
	00		 mov	 eax, DWORD PTR __flags$[rbp]
  0002a	83 e0 01	 and	 eax, 1
  0002d	85 c0		 test	 eax, eax
  0002f	74 12		 je	 SHORT $LN2@scalar
  00031	ba 18 00 00 00	 mov	 edx, 24
  00036	48 8b 8d e0 00
	00 00		 mov	 rcx, QWORD PTR this$[rbp]
  0003d	e8 00 00 00 00	 call	 ??3@YAXPEAX_K@Z		; operator delete
  00042	90		 npad	 1
$LN2@scalar:
  00043	48 8b 85 e0 00
	00 00		 mov	 rax, QWORD PTR this$[rbp]
  0004a	48 8d a5 c8 00
	00 00		 lea	 rsp, QWORD PTR [rbp+200]
  00051	5f		 pop	 rdi
  00052	5d		 pop	 rbp
  00053	c3		 ret	 0
??_Gbad_alloc@std@@UEAAPEAXI@Z ENDP			; std::bad_alloc::`scalar deleting destructor'
_TEXT	ENDS
; Function compile flags: /Odtp /RTCsu /ZI
;	COMDAT ??0bad_alloc@std@@QEAA@AEBV01@@Z
_TEXT	SEGMENT
this$ = 224
__that$ = 232
??0bad_alloc@std@@QEAA@AEBV01@@Z PROC			; std::bad_alloc::bad_alloc, COMDAT
$LN4:
  00000	48 89 54 24 10	 mov	 QWORD PTR [rsp+16], rdx
  00005	48 89 4c 24 08	 mov	 QWORD PTR [rsp+8], rcx
  0000a	55		 push	 rbp
  0000b	57		 push	 rdi
  0000c	48 81 ec e8 00
	00 00		 sub	 rsp, 232		; 000000e8H
  00013	48 8d 6c 24 20	 lea	 rbp, QWORD PTR [rsp+32]
  00018	48 8b 95 e8 00
	00 00		 mov	 rdx, QWORD PTR __that$[rbp]
  0001f	48 8b 8d e0 00
	00 00		 mov	 rcx, QWORD PTR this$[rbp]
  00026	e8 00 00 00 00	 call	 ??0exception@std@@QEAA@AEBV01@@Z ; std::exception::exception
  0002b	90		 npad	 1
  0002c	48 8b 85 e0 00
	00 00		 mov	 rax, QWORD PTR this$[rbp]
  00033	48 8d 0d 00 00
	00 00		 lea	 rcx, OFFSET FLAT:??_7bad_alloc@std@@6B@
  0003a	48 89 08	 mov	 QWORD PTR [rax], rcx
  0003d	48 8b 85 e0 00
	00 00		 mov	 rax, QWORD PTR this$[rbp]
  00044	48 8d a5 c8 00
	00 00		 lea	 rsp, QWORD PTR [rbp+200]
  0004b	5f		 pop	 rdi
  0004c	5d		 pop	 rbp
  0004d	c3		 ret	 0
??0bad_alloc@std@@QEAA@AEBV01@@Z ENDP			; std::bad_alloc::bad_alloc
_TEXT	ENDS
; Function compile flags: /Odtp /RTCsu /ZI
;	COMDAT ??1bad_alloc@std@@UEAA@XZ
_TEXT	SEGMENT
this$ = 224
??1bad_alloc@std@@UEAA@XZ PROC				; std::bad_alloc::~bad_alloc, COMDAT
$LN4:
  00000	48 89 4c 24 08	 mov	 QWORD PTR [rsp+8], rcx
  00005	55		 push	 rbp
  00006	57		 push	 rdi
  00007	48 81 ec e8 00
	00 00		 sub	 rsp, 232		; 000000e8H
  0000e	48 8d 6c 24 20	 lea	 rbp, QWORD PTR [rsp+32]
  00013	48 8b 8d e0 00
	00 00		 mov	 rcx, QWORD PTR this$[rbp]
  0001a	e8 00 00 00 00	 call	 ??1exception@std@@UEAA@XZ ; std::exception::~exception
  0001f	90		 npad	 1
  00020	48 8d a5 c8 00
	00 00		 lea	 rsp, QWORD PTR [rbp+200]
  00027	5f		 pop	 rdi
  00028	5d		 pop	 rbp
  00029	c3		 ret	 0
??1bad_alloc@std@@UEAA@XZ ENDP				; std::bad_alloc::~bad_alloc
_TEXT	ENDS
; Function compile flags: /Odtp /RTCsu /ZI
; File C:\Program Files\Microsoft Visual Studio\18\Community\VC\Tools\MSVC\14.50.35717\include\vcruntime_exception.h
;	COMDAT ??0bad_alloc@std@@AEAA@QEBD@Z
_TEXT	SEGMENT
this$ = 224
_Message$ = 232
??0bad_alloc@std@@AEAA@QEBD@Z PROC			; std::bad_alloc::bad_alloc, COMDAT

; 133  :     {

$LN4:
  00000	48 89 54 24 10	 mov	 QWORD PTR [rsp+16], rdx
  00005	48 89 4c 24 08	 mov	 QWORD PTR [rsp+8], rcx
  0000a	55		 push	 rbp
  0000b	57		 push	 rdi
  0000c	48 81 ec e8 00
	00 00		 sub	 rsp, 232		; 000000e8H
  00013	48 8d 6c 24 20	 lea	 rbp, QWORD PTR [rsp+32]
  00018	48 8d 0d 00 00
	00 00		 lea	 rcx, OFFSET FLAT:__4A687918_vcruntime_exception@h
  0001f	e8 00 00 00 00	 call	 __CheckForDebuggerJustMyCode
  00024	90		 npad	 1

; 132  :         : exception(_Message, 1)

  00025	41 b8 01 00 00
	00		 mov	 r8d, 1
  0002b	48 8b 95 e8 00
	00 00		 mov	 rdx, QWORD PTR _Message$[rbp]
  00032	48 8b 8d e0 00
	00 00		 mov	 rcx, QWORD PTR this$[rbp]
  00039	e8 00 00 00 00	 call	 ??0exception@std@@QEAA@QEBDH@Z ; std::exception::exception
  0003e	90		 npad	 1

; 133  :     {

  0003f	48 8b 85 e0 00
	00 00		 mov	 rax, QWORD PTR this$[rbp]
  00046	48 8d 0d 00 00
	00 00		 lea	 rcx, OFFSET FLAT:??_7bad_alloc@std@@6B@
  0004d	48 89 08	 mov	 QWORD PTR [rax], rcx

; 134  :     }

  00050	48 8b 85 e0 00
	00 00		 mov	 rax, QWORD PTR this$[rbp]
  00057	48 8d a5 c8 00
	00 00		 lea	 rsp, QWORD PTR [rbp+200]
  0005e	5f		 pop	 rdi
  0005f	5d		 pop	 rbp
  00060	c3		 ret	 0
??0bad_alloc@std@@AEAA@QEBD@Z ENDP			; std::bad_alloc::bad_alloc
_TEXT	ENDS
; Function compile flags: /Odtp /RTCsu /ZI
;	COMDAT ??_Gexception@std@@UEAAPEAXI@Z
_TEXT	SEGMENT
this$ = 224
__flags$ = 232
??_Gexception@std@@UEAAPEAXI@Z PROC			; std::exception::`scalar deleting destructor', COMDAT
$LN5:
  00000	89 54 24 10	 mov	 DWORD PTR [rsp+16], edx
  00004	48 89 4c 24 08	 mov	 QWORD PTR [rsp+8], rcx
  00009	55		 push	 rbp
  0000a	57		 push	 rdi
  0000b	48 81 ec e8 00
	00 00		 sub	 rsp, 232		; 000000e8H
  00012	48 8d 6c 24 20	 lea	 rbp, QWORD PTR [rsp+32]
  00017	48 8b 8d e0 00
	00 00		 mov	 rcx, QWORD PTR this$[rbp]
  0001e	e8 00 00 00 00	 call	 ??1exception@std@@UEAA@XZ ; std::exception::~exception
  00023	90		 npad	 1
  00024	8b 85 e8 00 00
	00		 mov	 eax, DWORD PTR __flags$[rbp]
  0002a	83 e0 01	 and	 eax, 1
  0002d	85 c0		 test	 eax, eax
  0002f	74 12		 je	 SHORT $LN2@scalar
  00031	ba 18 00 00 00	 mov	 edx, 24
  00036	48 8b 8d e0 00
	00 00		 mov	 rcx, QWORD PTR this$[rbp]
  0003d	e8 00 00 00 00	 call	 ??3@YAXPEAX_K@Z		; operator delete
  00042	90		 npad	 1
$LN2@scalar:
  00043	48 8b 85 e0 00
	00 00		 mov	 rax, QWORD PTR this$[rbp]
  0004a	48 8d a5 c8 00
	00 00		 lea	 rsp, QWORD PTR [rbp+200]
  00051	5f		 pop	 rdi
  00052	5d		 pop	 rbp
  00053	c3		 ret	 0
??_Gexception@std@@UEAAPEAXI@Z ENDP			; std::exception::`scalar deleting destructor'
_TEXT	ENDS
; Function compile flags: /Odtp /RTCsu /ZI
; File C:\Program Files\Microsoft Visual Studio\18\Community\VC\Tools\MSVC\14.50.35717\include\vcruntime_exception.h
;	COMDAT ?what@exception@std@@UEBAPEBDXZ
_TEXT	SEGMENT
tv69 = 192
this$ = 240
?what@exception@std@@UEBAPEBDXZ PROC			; std::exception::what, COMDAT

; 95   :     {

$LN5:
  00000	48 89 4c 24 08	 mov	 QWORD PTR [rsp+8], rcx
  00005	55		 push	 rbp
  00006	57		 push	 rdi
  00007	48 81 ec f8 00
	00 00		 sub	 rsp, 248		; 000000f8H
  0000e	48 8d 6c 24 20	 lea	 rbp, QWORD PTR [rsp+32]
  00013	48 8d 0d 00 00
	00 00		 lea	 rcx, OFFSET FLAT:__4A687918_vcruntime_exception@h
  0001a	e8 00 00 00 00	 call	 __CheckForDebuggerJustMyCode
  0001f	90		 npad	 1

; 96   :         return _Data._What ? _Data._What : "Unknown exception";

  00020	48 8b 85 f0 00
	00 00		 mov	 rax, QWORD PTR this$[rbp]
  00027	48 83 78 08 00	 cmp	 QWORD PTR [rax+8], 0
  0002c	74 14		 je	 SHORT $LN3@what
  0002e	48 8b 85 f0 00
	00 00		 mov	 rax, QWORD PTR this$[rbp]
  00035	48 8b 40 08	 mov	 rax, QWORD PTR [rax+8]
  00039	48 89 85 c0 00
	00 00		 mov	 QWORD PTR tv69[rbp], rax
  00040	eb 0e		 jmp	 SHORT $LN4@what
$LN3@what:
  00042	48 8d 05 00 00
	00 00		 lea	 rax, OFFSET FLAT:??_C@_0BC@EOODALEL@Unknown?5exception@
  00049	48 89 85 c0 00
	00 00		 mov	 QWORD PTR tv69[rbp], rax
$LN4@what:
  00050	48 8b 85 c0 00
	00 00		 mov	 rax, QWORD PTR tv69[rbp]

; 97   :     }

  00057	48 8d a5 d8 00
	00 00		 lea	 rsp, QWORD PTR [rbp+216]
  0005e	5f		 pop	 rdi
  0005f	5d		 pop	 rbp
  00060	c3		 ret	 0
?what@exception@std@@UEBAPEBDXZ ENDP			; std::exception::what
_TEXT	ENDS
; Function compile flags: /Odtp /RTCsu /ZI
; File C:\Program Files\Microsoft Visual Studio\18\Community\VC\Tools\MSVC\14.50.35717\include\vcruntime_exception.h
;	COMDAT ??1exception@std@@UEAA@XZ
_TEXT	SEGMENT
this$ = 224
??1exception@std@@UEAA@XZ PROC				; std::exception::~exception, COMDAT

; 90   :     {

$LN4:
  00000	48 89 4c 24 08	 mov	 QWORD PTR [rsp+8], rcx
  00005	55		 push	 rbp
  00006	57		 push	 rdi
  00007	48 81 ec e8 00
	00 00		 sub	 rsp, 232		; 000000e8H
  0000e	48 8d 6c 24 20	 lea	 rbp, QWORD PTR [rsp+32]
  00013	48 8d 0d 00 00
	00 00		 lea	 rcx, OFFSET FLAT:__4A687918_vcruntime_exception@h
  0001a	e8 00 00 00 00	 call	 __CheckForDebuggerJustMyCode
  0001f	90		 npad	 1
  00020	48 8b 85 e0 00
	00 00		 mov	 rax, QWORD PTR this$[rbp]
  00027	48 8d 0d 00 00
	00 00		 lea	 rcx, OFFSET FLAT:??_7exception@std@@6B@
  0002e	48 89 08	 mov	 QWORD PTR [rax], rcx

; 91   :         __std_exception_destroy(&_Data);

  00031	48 8b 85 e0 00
	00 00		 mov	 rax, QWORD PTR this$[rbp]
  00038	48 83 c0 08	 add	 rax, 8
  0003c	48 8b c8	 mov	 rcx, rax
  0003f	e8 00 00 00 00	 call	 __std_exception_destroy
  00044	90		 npad	 1

; 92   :     }

  00045	48 8d a5 c8 00
	00 00		 lea	 rsp, QWORD PTR [rbp+200]
  0004c	5f		 pop	 rdi
  0004d	5d		 pop	 rbp
  0004e	c3		 ret	 0
??1exception@std@@UEAA@XZ ENDP				; std::exception::~exception
_TEXT	ENDS
; Function compile flags: /Odtp /RTCsu /ZI
; File C:\Program Files\Microsoft Visual Studio\18\Community\VC\Tools\MSVC\14.50.35717\include\vcruntime_exception.h
;	COMDAT ??0exception@std@@QEAA@AEBV01@@Z
_TEXT	SEGMENT
this$ = 224
_Other$ = 232
??0exception@std@@QEAA@AEBV01@@Z PROC			; std::exception::exception, COMDAT

; 73   :     {

$LN4:
  00000	48 89 54 24 10	 mov	 QWORD PTR [rsp+16], rdx
  00005	48 89 4c 24 08	 mov	 QWORD PTR [rsp+8], rcx
  0000a	55		 push	 rbp
  0000b	57		 push	 rdi
  0000c	48 81 ec e8 00
	00 00		 sub	 rsp, 232		; 000000e8H
  00013	48 8d 6c 24 20	 lea	 rbp, QWORD PTR [rsp+32]
  00018	48 8d 0d 00 00
	00 00		 lea	 rcx, OFFSET FLAT:__4A687918_vcruntime_exception@h
  0001f	e8 00 00 00 00	 call	 __CheckForDebuggerJustMyCode
  00024	90		 npad	 1
  00025	48 8b 85 e0 00
	00 00		 mov	 rax, QWORD PTR this$[rbp]
  0002c	48 8d 0d 00 00
	00 00		 lea	 rcx, OFFSET FLAT:??_7exception@std@@6B@
  00033	48 89 08	 mov	 QWORD PTR [rax], rcx

; 72   :         : _Data()

  00036	48 8b 85 e0 00
	00 00		 mov	 rax, QWORD PTR this$[rbp]
  0003d	48 83 c0 08	 add	 rax, 8
  00041	48 8b f8	 mov	 rdi, rax
  00044	33 c0		 xor	 eax, eax
  00046	b9 10 00 00 00	 mov	 ecx, 16
  0004b	f3 aa		 rep stosb

; 74   :         __std_exception_copy(&_Other._Data, &_Data);

  0004d	48 8b 85 e0 00
	00 00		 mov	 rax, QWORD PTR this$[rbp]
  00054	48 83 c0 08	 add	 rax, 8
  00058	48 8b 8d e8 00
	00 00		 mov	 rcx, QWORD PTR _Other$[rbp]
  0005f	48 83 c1 08	 add	 rcx, 8
  00063	48 8b d0	 mov	 rdx, rax
  00066	e8 00 00 00 00	 call	 __std_exception_copy
  0006b	90		 npad	 1

; 75   :     }

  0006c	48 8b 85 e0 00
	00 00		 mov	 rax, QWORD PTR this$[rbp]
  00073	48 8d a5 c8 00
	00 00		 lea	 rsp, QWORD PTR [rbp+200]
  0007a	5f		 pop	 rdi
  0007b	5d		 pop	 rbp
  0007c	c3		 ret	 0
??0exception@std@@QEAA@AEBV01@@Z ENDP			; std::exception::exception
_TEXT	ENDS
; Function compile flags: /Odtp /RTCsu /ZI
; File C:\Program Files\Microsoft Visual Studio\18\Community\VC\Tools\MSVC\14.50.35717\include\vcruntime_exception.h
;	COMDAT ??0exception@std@@QEAA@QEBDH@Z
_TEXT	SEGMENT
this$ = 224
_Message$ = 232
__formal$ = 240
??0exception@std@@QEAA@QEBDH@Z PROC			; std::exception::exception, COMDAT

; 67   :     {

$LN4:
  00000	44 89 44 24 18	 mov	 DWORD PTR [rsp+24], r8d
  00005	48 89 54 24 10	 mov	 QWORD PTR [rsp+16], rdx
  0000a	48 89 4c 24 08	 mov	 QWORD PTR [rsp+8], rcx
  0000f	55		 push	 rbp
  00010	57		 push	 rdi
  00011	48 81 ec e8 00
	00 00		 sub	 rsp, 232		; 000000e8H
  00018	48 8d 6c 24 20	 lea	 rbp, QWORD PTR [rsp+32]
  0001d	48 8d 0d 00 00
	00 00		 lea	 rcx, OFFSET FLAT:__4A687918_vcruntime_exception@h
  00024	e8 00 00 00 00	 call	 __CheckForDebuggerJustMyCode
  00029	90		 npad	 1
  0002a	48 8b 85 e0 00
	00 00		 mov	 rax, QWORD PTR this$[rbp]
  00031	48 8d 0d 00 00
	00 00		 lea	 rcx, OFFSET FLAT:??_7exception@std@@6B@
  00038	48 89 08	 mov	 QWORD PTR [rax], rcx

; 66   :         : _Data()

  0003b	48 8b 85 e0 00
	00 00		 mov	 rax, QWORD PTR this$[rbp]
  00042	48 83 c0 08	 add	 rax, 8
  00046	48 8b f8	 mov	 rdi, rax
  00049	33 c0		 xor	 eax, eax
  0004b	b9 10 00 00 00	 mov	 ecx, 16
  00050	f3 aa		 rep stosb

; 68   :         _Data._What = _Message;

  00052	48 8b 85 e0 00
	00 00		 mov	 rax, QWORD PTR this$[rbp]
  00059	48 8b 8d e8 00
	00 00		 mov	 rcx, QWORD PTR _Message$[rbp]
  00060	48 89 48 08	 mov	 QWORD PTR [rax+8], rcx

; 69   :     }

  00064	48 8b 85 e0 00
	00 00		 mov	 rax, QWORD PTR this$[rbp]
  0006b	48 8d a5 c8 00
	00 00		 lea	 rsp, QWORD PTR [rbp+200]
  00072	5f		 pop	 rdi
  00073	5d		 pop	 rbp
  00074	c3		 ret	 0
??0exception@std@@QEAA@QEBDH@Z ENDP			; std::exception::exception
_TEXT	ENDS
; Function compile flags: /Odtp /RTCsu /ZI
; File C:\Program Files\Microsoft Visual Studio\18\Community\VC\Tools\MSVC\14.50.35717\include\utility
;	COMDAT ??$min@_K@std@@YAAEB_KAEB_K0@Z
_TEXT	SEGMENT
$T1 = 200
tv65 = 216
_Left$ = 256
_Right$ = 264
??$min@_K@std@@YAAEB_KAEB_K0@Z PROC			; std::min<unsigned __int64>, COMDAT

; 99   :         noexcept(noexcept(_Right < _Left)) /* strengthened */ {

$LN6:
  00000	48 89 54 24 10	 mov	 QWORD PTR [rsp+16], rdx
  00005	48 89 4c 24 08	 mov	 QWORD PTR [rsp+8], rcx
  0000a	55		 push	 rbp
  0000b	57		 push	 rdi
  0000c	48 81 ec 08 01
	00 00		 sub	 rsp, 264		; 00000108H
  00013	48 8d 6c 24 20	 lea	 rbp, QWORD PTR [rsp+32]
  00018	48 8d 0d 00 00
	00 00		 lea	 rcx, OFFSET FLAT:__DE82222C_utility
  0001f	e8 00 00 00 00	 call	 __CheckForDebuggerJustMyCode
  00024	90		 npad	 1

; 100  :     // return smaller of _Left and _Right
; 101  :     return _Right < _Left ? _Right : _Left;

  00025	48 8b 85 08 01
	00 00		 mov	 rax, QWORD PTR _Right$[rbp]
  0002c	48 8b 8d 00 01
	00 00		 mov	 rcx, QWORD PTR _Left$[rbp]
  00033	48 8b 09	 mov	 rcx, QWORD PTR [rcx]
  00036	48 39 08	 cmp	 QWORD PTR [rax], rcx
  00039	73 10		 jae	 SHORT $LN3@min
  0003b	48 8b 85 08 01
	00 00		 mov	 rax, QWORD PTR _Right$[rbp]
  00042	48 89 85 d8 00
	00 00		 mov	 QWORD PTR tv65[rbp], rax
  00049	eb 0e		 jmp	 SHORT $LN4@min
$LN3@min:
  0004b	48 8b 85 00 01
	00 00		 mov	 rax, QWORD PTR _Left$[rbp]
  00052	48 89 85 d8 00
	00 00		 mov	 QWORD PTR tv65[rbp], rax
$LN4@min:
  00059	48 8b 85 d8 00
	00 00		 mov	 rax, QWORD PTR tv65[rbp]
  00060	48 89 85 c8 00
	00 00		 mov	 QWORD PTR $T1[rbp], rax
  00067	48 8b 85 c8 00
	00 00		 mov	 rax, QWORD PTR $T1[rbp]

; 102  : }

  0006e	48 8d a5 e8 00
	00 00		 lea	 rsp, QWORD PTR [rbp+232]
  00075	5f		 pop	 rdi
  00076	5d		 pop	 rbp
  00077	c3		 ret	 0
??$min@_K@std@@YAAEB_KAEB_K0@Z ENDP			; std::min<unsigned __int64>
_TEXT	ENDS
; Function compile flags: /Odtp /RTCsu /ZI
; File C:\Program Files\Microsoft Visual Studio\18\Community\VC\Tools\MSVC\14.50.35717\include\__msvc_string_view.hpp
;	COMDAT ?assign@?$_Narrow_char_traits@DH@std@@SAXAEADAEBD@Z
_TEXT	SEGMENT
_Left$ = 224
_Right$ = 232
?assign@?$_Narrow_char_traits@DH@std@@SAXAEADAEBD@Z PROC ; std::_Narrow_char_traits<char,int>::assign, COMDAT

; 570  :     static _CONSTEXPR17 void assign(_Elem& _Left, const _Elem& _Right) noexcept {

$LN4:
  00000	48 89 54 24 10	 mov	 QWORD PTR [rsp+16], rdx
  00005	48 89 4c 24 08	 mov	 QWORD PTR [rsp+8], rcx
  0000a	55		 push	 rbp
  0000b	57		 push	 rdi
  0000c	48 81 ec e8 00
	00 00		 sub	 rsp, 232		; 000000e8H
  00013	48 8d 6c 24 20	 lea	 rbp, QWORD PTR [rsp+32]
  00018	48 8d 0d 00 00
	00 00		 lea	 rcx, OFFSET FLAT:__FEA281E8___msvc_string_view@hpp
  0001f	e8 00 00 00 00	 call	 __CheckForDebuggerJustMyCode
  00024	90		 npad	 1

; 571  :         _Left = _Right;

  00025	48 8b 85 e0 00
	00 00		 mov	 rax, QWORD PTR _Left$[rbp]
  0002c	48 8b 8d e8 00
	00 00		 mov	 rcx, QWORD PTR _Right$[rbp]
  00033	0f b6 09	 movzx	 ecx, BYTE PTR [rcx]
  00036	88 08		 mov	 BYTE PTR [rax], cl

; 572  :     }

  00038	48 8d a5 c8 00
	00 00		 lea	 rsp, QWORD PTR [rbp+200]
  0003f	5f		 pop	 rdi
  00040	5d		 pop	 rbp
  00041	c3		 ret	 0
?assign@?$_Narrow_char_traits@DH@std@@SAXAEADAEBD@Z ENDP ; std::_Narrow_char_traits<char,int>::assign
_TEXT	ENDS
; Function compile flags: /Odtp /RTCsu /ZI
; File C:\Program Files\Microsoft Visual Studio\18\Community\VC\Tools\MSVC\14.50.35717\include\__msvc_string_view.hpp
;	COMDAT ?length@?$_Narrow_char_traits@DH@std@@SA_KQEBD@Z
_TEXT	SEGMENT
_First$ = 224
?length@?$_Narrow_char_traits@DH@std@@SA_KQEBD@Z PROC	; std::_Narrow_char_traits<char,int>::length, COMDAT

; 517  :     _NODISCARD static _CONSTEXPR17 size_t length(_In_z_ const _Elem* const _First) noexcept /* strengthened */ {

$LN4:
  00000	48 89 4c 24 08	 mov	 QWORD PTR [rsp+8], rcx
  00005	55		 push	 rbp
  00006	57		 push	 rdi
  00007	48 81 ec e8 00
	00 00		 sub	 rsp, 232		; 000000e8H
  0000e	48 8d 6c 24 20	 lea	 rbp, QWORD PTR [rsp+32]
  00013	48 8d 0d 00 00
	00 00		 lea	 rcx, OFFSET FLAT:__FEA281E8___msvc_string_view@hpp
  0001a	e8 00 00 00 00	 call	 __CheckForDebuggerJustMyCode
  0001f	90		 npad	 1

; 518  :         // find length of null-terminated string
; 519  : #if _HAS_CXX17
; 520  : #ifdef __cpp_char8_t
; 521  :         if constexpr (is_same_v<_Elem, char8_t>) {
; 522  : #if _HAS_U8_INTRINSICS
; 523  :             return __builtin_u8strlen(_First);
; 524  : #else // ^^^ use u8 intrinsics / no u8 intrinsics vvv
; 525  :             return _Primary_char_traits::length(_First);
; 526  : #endif // ^^^ no u8 intrinsics ^^^
; 527  :         } else
; 528  : #endif // defined(__cpp_char8_t)
; 529  :         {
; 530  :             return __builtin_strlen(_First);

  00020	48 8b 8d e0 00
	00 00		 mov	 rcx, QWORD PTR _First$[rbp]
  00027	e8 00 00 00 00	 call	 strlen

; 531  :         }
; 532  : #else // ^^^ _HAS_CXX17 / !_HAS_CXX17 vvv
; 533  :         return _CSTD strlen(reinterpret_cast<const char*>(_First));
; 534  : #endif // ^^^ !_HAS_CXX17 ^^^
; 535  :     }

  0002c	48 8d a5 c8 00
	00 00		 lea	 rsp, QWORD PTR [rbp+200]
  00033	5f		 pop	 rdi
  00034	5d		 pop	 rbp
  00035	c3		 ret	 0
?length@?$_Narrow_char_traits@DH@std@@SA_KQEBD@Z ENDP	; std::_Narrow_char_traits<char,int>::length
_TEXT	ENDS
; Function compile flags: /Odtp /RTCsu /ZI
; File C:\Program Files\Microsoft Visual Studio\18\Community\VC\Tools\MSVC\14.50.35717\include\__msvc_string_view.hpp
;	COMDAT ?move@?$_Char_traits@DH@std@@SAPEADQEADQEBD_K@Z
_TEXT	SEGMENT
_Loop_forward$1 = 4
_Src$2 = 40
_Idx$3 = 72
_Idx$4 = 104
_First1$ = 352
_First2$ = 360
_Count$ = 368
?move@?$_Char_traits@DH@std@@SAPEADQEADQEBD_K@Z PROC	; std::_Char_traits<char,int>::move, COMDAT

; 215  :         _In_reads_(_Count) const _Elem* const _First2, const size_t _Count) noexcept /* strengthened */ {

$LN17:
  00000	4c 89 44 24 18	 mov	 QWORD PTR [rsp+24], r8
  00005	48 89 54 24 10	 mov	 QWORD PTR [rsp+16], rdx
  0000a	48 89 4c 24 08	 mov	 QWORD PTR [rsp+8], rcx
  0000f	55		 push	 rbp
  00010	57		 push	 rdi
  00011	48 81 ec 68 01
	00 00		 sub	 rsp, 360		; 00000168H
  00018	48 8d 6c 24 20	 lea	 rbp, QWORD PTR [rsp+32]
  0001d	48 8d 0d 00 00
	00 00		 lea	 rcx, OFFSET FLAT:__FEA281E8___msvc_string_view@hpp
  00024	e8 00 00 00 00	 call	 __CheckForDebuggerJustMyCode
  00029	90		 npad	 1

; 216  :         // copy [_First2, _First2 + _Count) to [_First1, ...), allowing overlap
; 217  : #if _HAS_MEMCPY_MEMMOVE_INTRINSICS
; 218  :         __builtin_memmove(_First1, _First2, _Count * sizeof(_Elem));
; 219  : #else // ^^^ _HAS_MEMCPY_MEMMOVE_INTRINSICS / !_HAS_MEMCPY_MEMMOVE_INTRINSICS vvv
; 220  : #if _HAS_CXX20
; 221  :         if (_STD is_constant_evaluated()) {

  0002a	e8 00 00 00 00	 call	 ?is_constant_evaluated@std@@YA_NXZ ; std::is_constant_evaluated
  0002f	0f b6 c0	 movzx	 eax, al
  00032	85 c0		 test	 eax, eax
  00034	0f 84 f3 00 00
	00		 je	 $LN11@move

; 222  :             // dest: [_First1, _First1 + _Count)
; 223  :             // src: [_First2, _First2 + _Count)
; 224  :             // We need to handle overlapping ranges.
; 225  :             // If _First1 is in the src range, we need a backward loop.
; 226  :             // Otherwise, the forward loop works (even if the back of dest overlaps the front of src).
; 227  : 
; 228  :             // Usually, we would compare pointers with less-than, even though they could belong to different arrays.
; 229  :             // However, we're not allowed to do that during constant evaluation, so we need a linear scan for equality.
; 230  :             bool _Loop_forward = true;

  0003a	c6 45 04 01	 mov	 BYTE PTR _Loop_forward$1[rbp], 1

; 231  : 
; 232  :             for (const _Elem* _Src = _First2; _Src != _First2 + _Count; ++_Src) {

  0003e	48 8b 85 68 01
	00 00		 mov	 rax, QWORD PTR _First2$[rbp]
  00045	48 89 45 28	 mov	 QWORD PTR _Src$2[rbp], rax
  00049	eb 0b		 jmp	 SHORT $LN4@move
$LN2@move:
  0004b	48 8b 45 28	 mov	 rax, QWORD PTR _Src$2[rbp]
  0004f	48 ff c0	 inc	 rax
  00052	48 89 45 28	 mov	 QWORD PTR _Src$2[rbp], rax
$LN4@move:
  00056	48 8b 85 70 01
	00 00		 mov	 rax, QWORD PTR _Count$[rbp]
  0005d	48 8b 8d 68 01
	00 00		 mov	 rcx, QWORD PTR _First2$[rbp]
  00064	48 03 c8	 add	 rcx, rax
  00067	48 8b c1	 mov	 rax, rcx
  0006a	48 39 45 28	 cmp	 QWORD PTR _Src$2[rbp], rax
  0006e	74 15		 je	 SHORT $LN3@move

; 233  :                 if (_First1 == _Src) {

  00070	48 8b 45 28	 mov	 rax, QWORD PTR _Src$2[rbp]
  00074	48 39 85 60 01
	00 00		 cmp	 QWORD PTR _First1$[rbp], rax
  0007b	75 06		 jne	 SHORT $LN12@move

; 234  :                     _Loop_forward = false;

  0007d	c6 45 04 00	 mov	 BYTE PTR _Loop_forward$1[rbp], 0

; 235  :                     break;

  00081	eb 02		 jmp	 SHORT $LN3@move
$LN12@move:

; 236  :                 }
; 237  :             }

  00083	eb c6		 jmp	 SHORT $LN2@move
$LN3@move:

; 238  : 
; 239  :             if (_Loop_forward) {

  00085	0f b6 45 04	 movzx	 eax, BYTE PTR _Loop_forward$1[rbp]
  00089	85 c0		 test	 eax, eax
  0008b	74 4d		 je	 SHORT $LN13@move

; 240  :                 for (size_t _Idx = 0; _Idx != _Count; ++_Idx) {

  0008d	48 c7 45 48 00
	00 00 00	 mov	 QWORD PTR _Idx$3[rbp], 0
  00095	eb 0b		 jmp	 SHORT $LN7@move
$LN5@move:
  00097	48 8b 45 48	 mov	 rax, QWORD PTR _Idx$3[rbp]
  0009b	48 ff c0	 inc	 rax
  0009e	48 89 45 48	 mov	 QWORD PTR _Idx$3[rbp], rax
$LN7@move:
  000a2	48 8b 85 70 01
	00 00		 mov	 rax, QWORD PTR _Count$[rbp]
  000a9	48 39 45 48	 cmp	 QWORD PTR _Idx$3[rbp], rax
  000ad	74 29		 je	 SHORT $LN6@move

; 241  :                     _First1[_Idx] = _First2[_Idx];

  000af	48 8b 45 48	 mov	 rax, QWORD PTR _Idx$3[rbp]
  000b3	48 8b 8d 60 01
	00 00		 mov	 rcx, QWORD PTR _First1$[rbp]
  000ba	48 03 c8	 add	 rcx, rax
  000bd	48 8b c1	 mov	 rax, rcx
  000c0	48 8b 4d 48	 mov	 rcx, QWORD PTR _Idx$3[rbp]
  000c4	48 8b 95 68 01
	00 00		 mov	 rdx, QWORD PTR _First2$[rbp]
  000cb	48 03 d1	 add	 rdx, rcx
  000ce	48 8b ca	 mov	 rcx, rdx
  000d1	0f b6 09	 movzx	 ecx, BYTE PTR [rcx]
  000d4	88 08		 mov	 BYTE PTR [rax], cl

; 242  :                 }

  000d6	eb bf		 jmp	 SHORT $LN5@move
$LN6@move:

; 243  :             } else {

  000d8	eb 4a		 jmp	 SHORT $LN14@move
$LN13@move:

; 244  :                 for (size_t _Idx = _Count; _Idx != 0; --_Idx) {

  000da	48 8b 85 70 01
	00 00		 mov	 rax, QWORD PTR _Count$[rbp]
  000e1	48 89 45 68	 mov	 QWORD PTR _Idx$4[rbp], rax
  000e5	eb 0b		 jmp	 SHORT $LN10@move
$LN8@move:
  000e7	48 8b 45 68	 mov	 rax, QWORD PTR _Idx$4[rbp]
  000eb	48 ff c8	 dec	 rax
  000ee	48 89 45 68	 mov	 QWORD PTR _Idx$4[rbp], rax
$LN10@move:
  000f2	48 83 7d 68 00	 cmp	 QWORD PTR _Idx$4[rbp], 0
  000f7	74 2b		 je	 SHORT $LN14@move

; 245  :                     _First1[_Idx - 1] = _First2[_Idx - 1];

  000f9	48 8b 45 68	 mov	 rax, QWORD PTR _Idx$4[rbp]
  000fd	48 8b 8d 60 01
	00 00		 mov	 rcx, QWORD PTR _First1$[rbp]
  00104	48 03 c8	 add	 rcx, rax
  00107	48 8b c1	 mov	 rax, rcx
  0010a	48 8b 4d 68	 mov	 rcx, QWORD PTR _Idx$4[rbp]
  0010e	48 8b 95 68 01
	00 00		 mov	 rdx, QWORD PTR _First2$[rbp]
  00115	48 03 d1	 add	 rdx, rcx
  00118	48 8b ca	 mov	 rcx, rdx
  0011b	0f b6 49 ff	 movzx	 ecx, BYTE PTR [rcx-1]
  0011f	88 48 ff	 mov	 BYTE PTR [rax-1], cl

; 246  :                 }

  00122	eb c3		 jmp	 SHORT $LN8@move
$LN14@move:

; 247  :             }
; 248  : 
; 249  :             return _First1;

  00124	48 8b 85 60 01
	00 00		 mov	 rax, QWORD PTR _First1$[rbp]
  0012b	eb 22		 jmp	 SHORT $LN1@move
$LN11@move:

; 250  :         }
; 251  : #endif // _HAS_CXX20
; 252  : 
; 253  :         _CSTD memmove(_First1, _First2, _Count * sizeof(_Elem));

  0012d	4c 8b 85 70 01
	00 00		 mov	 r8, QWORD PTR _Count$[rbp]
  00134	48 8b 95 68 01
	00 00		 mov	 rdx, QWORD PTR _First2$[rbp]
  0013b	48 8b 8d 60 01
	00 00		 mov	 rcx, QWORD PTR _First1$[rbp]
  00142	e8 00 00 00 00	 call	 memmove
  00147	90		 npad	 1

; 254  : #endif // ^^^ !_HAS_MEMCPY_MEMMOVE_INTRINSICS ^^^
; 255  : 
; 256  :         return _First1;

  00148	48 8b 85 60 01
	00 00		 mov	 rax, QWORD PTR _First1$[rbp]
$LN1@move:

; 257  :     }

  0014f	48 8d a5 48 01
	00 00		 lea	 rsp, QWORD PTR [rbp+328]
  00156	5f		 pop	 rdi
  00157	5d		 pop	 rbp
  00158	c3		 ret	 0
?move@?$_Char_traits@DH@std@@SAPEADQEADQEBD_K@Z ENDP	; std::_Char_traits<char,int>::move
_TEXT	ENDS
; Function compile flags: /Odtp /RTCsu /ZI
; File C:\Program Files\Microsoft Visual Studio\18\Community\VC\Tools\MSVC\14.50.35717\include\__msvc_string_view.hpp
;	COMDAT ?copy@?$_Char_traits@DH@std@@SAPEADQEADQEBD_K@Z
_TEXT	SEGMENT
_Idx$1 = 8
_First1$ = 256
_First2$ = 264
_Count$ = 272
?copy@?$_Char_traits@DH@std@@SAPEADQEADQEBD_K@Z PROC	; std::_Char_traits<char,int>::copy, COMDAT

; 184  :         _In_reads_(_Count) const _Elem* const _First2, const size_t _Count) noexcept /* strengthened */ {

$LN8:
  00000	4c 89 44 24 18	 mov	 QWORD PTR [rsp+24], r8
  00005	48 89 54 24 10	 mov	 QWORD PTR [rsp+16], rdx
  0000a	48 89 4c 24 08	 mov	 QWORD PTR [rsp+8], rcx
  0000f	55		 push	 rbp
  00010	57		 push	 rdi
  00011	48 81 ec 08 01
	00 00		 sub	 rsp, 264		; 00000108H
  00018	48 8d 6c 24 20	 lea	 rbp, QWORD PTR [rsp+32]
  0001d	48 8d 0d 00 00
	00 00		 lea	 rcx, OFFSET FLAT:__FEA281E8___msvc_string_view@hpp
  00024	e8 00 00 00 00	 call	 __CheckForDebuggerJustMyCode
  00029	90		 npad	 1

; 185  :         // copy [_First2, _First2 + _Count) to [_First1, ...)
; 186  : #if _HAS_MEMCPY_MEMMOVE_INTRINSICS
; 187  :         __builtin_memcpy(_First1, _First2, _Count * sizeof(_Elem));
; 188  : #else // ^^^ _HAS_MEMCPY_MEMMOVE_INTRINSICS / !_HAS_MEMCPY_MEMMOVE_INTRINSICS vvv
; 189  : #if _HAS_CXX20
; 190  :         if (_STD is_constant_evaluated()) {

  0002a	e8 00 00 00 00	 call	 ?is_constant_evaluated@std@@YA_NXZ ; std::is_constant_evaluated
  0002f	0f b6 c0	 movzx	 eax, al
  00032	85 c0		 test	 eax, eax
  00034	74 54		 je	 SHORT $LN5@copy

; 191  :             // pre: [_First1, _First1 + _Count) and [_First2, _First2 + _Count) do not overlap
; 192  :             for (size_t _Idx = 0; _Idx != _Count; ++_Idx) {

  00036	48 c7 45 08 00
	00 00 00	 mov	 QWORD PTR _Idx$1[rbp], 0
  0003e	eb 0b		 jmp	 SHORT $LN4@copy
$LN2@copy:
  00040	48 8b 45 08	 mov	 rax, QWORD PTR _Idx$1[rbp]
  00044	48 ff c0	 inc	 rax
  00047	48 89 45 08	 mov	 QWORD PTR _Idx$1[rbp], rax
$LN4@copy:
  0004b	48 8b 85 10 01
	00 00		 mov	 rax, QWORD PTR _Count$[rbp]
  00052	48 39 45 08	 cmp	 QWORD PTR _Idx$1[rbp], rax
  00056	74 29		 je	 SHORT $LN3@copy

; 193  :                 _First1[_Idx] = _First2[_Idx];

  00058	48 8b 45 08	 mov	 rax, QWORD PTR _Idx$1[rbp]
  0005c	48 8b 8d 00 01
	00 00		 mov	 rcx, QWORD PTR _First1$[rbp]
  00063	48 03 c8	 add	 rcx, rax
  00066	48 8b c1	 mov	 rax, rcx
  00069	48 8b 4d 08	 mov	 rcx, QWORD PTR _Idx$1[rbp]
  0006d	48 8b 95 08 01
	00 00		 mov	 rdx, QWORD PTR _First2$[rbp]
  00074	48 03 d1	 add	 rdx, rcx
  00077	48 8b ca	 mov	 rcx, rdx
  0007a	0f b6 09	 movzx	 ecx, BYTE PTR [rcx]
  0007d	88 08		 mov	 BYTE PTR [rax], cl

; 194  :             }

  0007f	eb bf		 jmp	 SHORT $LN2@copy
$LN3@copy:

; 195  : 
; 196  :             return _First1;

  00081	48 8b 85 00 01
	00 00		 mov	 rax, QWORD PTR _First1$[rbp]
  00088	eb 22		 jmp	 SHORT $LN1@copy
$LN5@copy:

; 197  :         }
; 198  : #endif // _HAS_CXX20
; 199  : 
; 200  :         _CSTD memcpy(_First1, _First2, _Count * sizeof(_Elem));

  0008a	4c 8b 85 10 01
	00 00		 mov	 r8, QWORD PTR _Count$[rbp]
  00091	48 8b 95 08 01
	00 00		 mov	 rdx, QWORD PTR _First2$[rbp]
  00098	48 8b 8d 00 01
	00 00		 mov	 rcx, QWORD PTR _First1$[rbp]
  0009f	e8 00 00 00 00	 call	 memcpy
  000a4	90		 npad	 1

; 201  : #endif // ^^^ !_HAS_MEMCPY_MEMMOVE_INTRINSICS ^^^
; 202  : 
; 203  :         return _First1;

  000a5	48 8b 85 00 01
	00 00		 mov	 rax, QWORD PTR _First1$[rbp]
$LN1@copy:

; 204  :     }

  000ac	48 8d a5 e8 00
	00 00		 lea	 rsp, QWORD PTR [rbp+232]
  000b3	5f		 pop	 rdi
  000b4	5d		 pop	 rbp
  000b5	c3		 ret	 0
?copy@?$_Char_traits@DH@std@@SAPEADQEADQEBD_K@Z ENDP	; std::_Char_traits<char,int>::copy
_TEXT	ENDS
; Function compile flags: /Odtp /RTCsu /ZI
; File C:\Program Files (x86)\Windows Kits\10\Include\10.0.26100.0\ucrt\wchar.h
;	COMDAT wmemcpy
_TEXT	SEGMENT
_S1$ = 224
_S2$ = 232
_N$ = 240
wmemcpy	PROC						; COMDAT

; 492  :     {

$LN3:
  00000	4c 89 44 24 18	 mov	 QWORD PTR [rsp+24], r8
  00005	48 89 54 24 10	 mov	 QWORD PTR [rsp+16], rdx
  0000a	48 89 4c 24 08	 mov	 QWORD PTR [rsp+8], rcx
  0000f	55		 push	 rbp
  00010	57		 push	 rdi
  00011	48 81 ec e8 00
	00 00		 sub	 rsp, 232		; 000000e8H
  00018	48 8d 6c 24 20	 lea	 rbp, QWORD PTR [rsp+32]
  0001d	48 8d 0d 00 00
	00 00		 lea	 rcx, OFFSET FLAT:__4DD8D0FE_wchar@h
  00024	e8 00 00 00 00	 call	 __CheckForDebuggerJustMyCode
  00029	90		 npad	 1

; 493  :         #pragma warning(suppress: 6386) // Buffer overrun
; 494  :         return (wchar_t*)memcpy(_S1, _S2, _N*sizeof(wchar_t));

  0002a	48 8b 85 f0 00
	00 00		 mov	 rax, QWORD PTR _N$[rbp]
  00031	48 d1 e0	 shl	 rax, 1
  00034	4c 8b c0	 mov	 r8, rax
  00037	48 8b 95 e8 00
	00 00		 mov	 rdx, QWORD PTR _S2$[rbp]
  0003e	48 8b 8d e0 00
	00 00		 mov	 rcx, QWORD PTR _S1$[rbp]
  00045	e8 00 00 00 00	 call	 memcpy

; 495  :     }

  0004a	48 8d a5 c8 00
	00 00		 lea	 rsp, QWORD PTR [rbp+200]
  00051	5f		 pop	 rdi
  00052	5d		 pop	 rbp
  00053	c3		 ret	 0
wmemcpy	ENDP
_TEXT	ENDS
; Function compile flags: /Odtp /RTCsu /ZI
; File C:\Program Files\Microsoft Visual Studio\18\Community\VC\Tools\MSVC\14.50.35717\include\xtr1common
;	COMDAT ?is_constant_evaluated@std@@YA_NXZ
_TEXT	SEGMENT
?is_constant_evaluated@std@@YA_NXZ PROC			; std::is_constant_evaluated, COMDAT

; 182  : _EXPORT_STD _NODISCARD constexpr bool is_constant_evaluated() noexcept {

$LN4:
  00000	40 55		 push	 rbp
  00002	57		 push	 rdi
  00003	48 81 ec e8 00
	00 00		 sub	 rsp, 232		; 000000e8H
  0000a	48 8d 6c 24 20	 lea	 rbp, QWORD PTR [rsp+32]
  0000f	48 8d 0d 00 00
	00 00		 lea	 rcx, OFFSET FLAT:__62CE13B5_xtr1common
  00016	e8 00 00 00 00	 call	 __CheckForDebuggerJustMyCode
  0001b	90		 npad	 1

; 183  :     return __builtin_is_constant_evaluated();

  0001c	32 c0		 xor	 al, al

; 184  : }

  0001e	48 8d a5 c8 00
	00 00		 lea	 rsp, QWORD PTR [rbp+200]
  00025	5f		 pop	 rdi
  00026	5d		 pop	 rbp
  00027	c3		 ret	 0
?is_constant_evaluated@std@@YA_NXZ ENDP			; std::is_constant_evaluated
_TEXT	ENDS
; Function compile flags: /Odtp /RTCsu /ZI
; File C:\Program Files\Microsoft Visual Studio\18\Community\VC\Tools\MSVC\14.50.35717\include\vcruntime_new.h
;	COMDAT ??2@YAPEAX_KPEAX@Z
_TEXT	SEGMENT
_Size$ = 224
_Where$ = 232
??2@YAPEAX_KPEAX@Z PROC					; operator new, COMDAT

; 164  :     {

$LN4:
  00000	48 89 54 24 10	 mov	 QWORD PTR [rsp+16], rdx
  00005	48 89 4c 24 08	 mov	 QWORD PTR [rsp+8], rcx
  0000a	55		 push	 rbp
  0000b	57		 push	 rdi
  0000c	48 81 ec e8 00
	00 00		 sub	 rsp, 232		; 000000e8H
  00013	48 8d 6c 24 20	 lea	 rbp, QWORD PTR [rsp+32]
  00018	48 8d 0d 00 00
	00 00		 lea	 rcx, OFFSET FLAT:__9A5272F0_vcruntime_new@h
  0001f	e8 00 00 00 00	 call	 __CheckForDebuggerJustMyCode
  00024	90		 npad	 1

; 165  :         (void)_Size;
; 166  :         return _Where;

  00025	48 8b 85 e8 00
	00 00		 mov	 rax, QWORD PTR _Where$[rbp]

; 167  :     }

  0002c	48 8d a5 c8 00
	00 00		 lea	 rsp, QWORD PTR [rbp+200]
  00033	5f		 pop	 rdi
  00034	5d		 pop	 rbp
  00035	c3		 ret	 0
??2@YAPEAX_KPEAX@Z ENDP					; operator new
_TEXT	ENDS
; Function compile flags: /Odtp /RTCsu /ZI
; File C:\Users\John Lynch\source\repos\ui512\ui512_unit_tests\ui512_stub_testing.cpp
;	COMDAT ?__empty_global_delete@@YAXPEAX_KW4align_val_t@std@@@Z
_TEXT	SEGMENT
__formal$ = 224
__formal$ = 232
__formal$ = 240
?__empty_global_delete@@YAXPEAX_KW4align_val_t@std@@@Z PROC ; __empty_global_delete, COMDAT

$LN4:
  00000	4c 89 44 24 18	 mov	 QWORD PTR [rsp+24], r8
  00005	48 89 54 24 10	 mov	 QWORD PTR [rsp+16], rdx
  0000a	48 89 4c 24 08	 mov	 QWORD PTR [rsp+8], rcx
  0000f	55		 push	 rbp
  00010	57		 push	 rdi
  00011	48 81 ec e8 00
	00 00		 sub	 rsp, 232		; 000000e8H
  00018	48 8d 6c 24 20	 lea	 rbp, QWORD PTR [rsp+32]
  0001d	48 8d 0d 00 00
	00 00		 lea	 rcx, OFFSET FLAT:__249C6933_ui512_stub_testing@cpp
  00024	e8 00 00 00 00	 call	 __CheckForDebuggerJustMyCode
  00029	90		 npad	 1
  0002a	48 8d a5 c8 00
	00 00		 lea	 rsp, QWORD PTR [rbp+200]
  00031	5f		 pop	 rdi
  00032	5d		 pop	 rbp
  00033	c3		 ret	 0
?__empty_global_delete@@YAXPEAX_KW4align_val_t@std@@@Z ENDP ; __empty_global_delete
_TEXT	ENDS
; Function compile flags: /Odtp /RTCsu /ZI
; File C:\Users\John Lynch\source\repos\ui512\ui512_unit_tests\ui512_stub_testing.cpp
;	COMDAT ?__empty_global_delete@@YAXPEAXW4align_val_t@std@@@Z
_TEXT	SEGMENT
__formal$ = 224
__formal$ = 232
?__empty_global_delete@@YAXPEAXW4align_val_t@std@@@Z PROC ; __empty_global_delete, COMDAT

$LN4:
  00000	48 89 54 24 10	 mov	 QWORD PTR [rsp+16], rdx
  00005	48 89 4c 24 08	 mov	 QWORD PTR [rsp+8], rcx
  0000a	55		 push	 rbp
  0000b	57		 push	 rdi
  0000c	48 81 ec e8 00
	00 00		 sub	 rsp, 232		; 000000e8H
  00013	48 8d 6c 24 20	 lea	 rbp, QWORD PTR [rsp+32]
  00018	48 8d 0d 00 00
	00 00		 lea	 rcx, OFFSET FLAT:__249C6933_ui512_stub_testing@cpp
  0001f	e8 00 00 00 00	 call	 __CheckForDebuggerJustMyCode
  00024	90		 npad	 1
  00025	48 8d a5 c8 00
	00 00		 lea	 rsp, QWORD PTR [rbp+200]
  0002c	5f		 pop	 rdi
  0002d	5d		 pop	 rbp
  0002e	c3		 ret	 0
?__empty_global_delete@@YAXPEAXW4align_val_t@std@@@Z ENDP ; __empty_global_delete
_TEXT	ENDS
; Function compile flags: /Odtp /RTCsu /ZI
; File C:\Users\John Lynch\source\repos\ui512\ui512_unit_tests\ui512_stub_testing.cpp
;	COMDAT ?__empty_global_delete@@YAXPEAX_K@Z
_TEXT	SEGMENT
__formal$ = 224
__formal$ = 232
?__empty_global_delete@@YAXPEAX_K@Z PROC		; __empty_global_delete, COMDAT

$LN4:
  00000	48 89 54 24 10	 mov	 QWORD PTR [rsp+16], rdx
  00005	48 89 4c 24 08	 mov	 QWORD PTR [rsp+8], rcx
  0000a	55		 push	 rbp
  0000b	57		 push	 rdi
  0000c	48 81 ec e8 00
	00 00		 sub	 rsp, 232		; 000000e8H
  00013	48 8d 6c 24 20	 lea	 rbp, QWORD PTR [rsp+32]
  00018	48 8d 0d 00 00
	00 00		 lea	 rcx, OFFSET FLAT:__249C6933_ui512_stub_testing@cpp
  0001f	e8 00 00 00 00	 call	 __CheckForDebuggerJustMyCode
  00024	90		 npad	 1
  00025	48 8d a5 c8 00
	00 00		 lea	 rsp, QWORD PTR [rbp+200]
  0002c	5f		 pop	 rdi
  0002d	5d		 pop	 rbp
  0002e	c3		 ret	 0
?__empty_global_delete@@YAXPEAX_K@Z ENDP		; __empty_global_delete
_TEXT	ENDS
; Function compile flags: /Odtp /RTCsu /ZI
; File C:\Users\John Lynch\source\repos\ui512\ui512_unit_tests\ui512_stub_testing.cpp
;	COMDAT ?__empty_global_delete@@YAXPEAX@Z
_TEXT	SEGMENT
__formal$ = 224
?__empty_global_delete@@YAXPEAX@Z PROC			; __empty_global_delete, COMDAT

$LN4:
  00000	48 89 4c 24 08	 mov	 QWORD PTR [rsp+8], rcx
  00005	55		 push	 rbp
  00006	57		 push	 rdi
  00007	48 81 ec e8 00
	00 00		 sub	 rsp, 232		; 000000e8H
  0000e	48 8d 6c 24 20	 lea	 rbp, QWORD PTR [rsp+32]
  00013	48 8d 0d 00 00
	00 00		 lea	 rcx, OFFSET FLAT:__249C6933_ui512_stub_testing@cpp
  0001a	e8 00 00 00 00	 call	 __CheckForDebuggerJustMyCode
  0001f	90		 npad	 1
  00020	48 8d a5 c8 00
	00 00		 lea	 rsp, QWORD PTR [rbp+200]
  00027	5f		 pop	 rdi
  00028	5d		 pop	 rbp
  00029	c3		 ret	 0
?__empty_global_delete@@YAXPEAX@Z ENDP			; __empty_global_delete
_TEXT	ENDS
END
