; Listing generated by Microsoft (R) Optimizing Compiler Version 19.50.35721.0 

include listing.inc

INCLUDELIB MSVCRTD
INCLUDELIB OLDNAMES

PUBLIC	_Avx2WmemEnabledWeakValue
;	COMDAT _Avx2WmemEnabledWeakValue
_BSS	SEGMENT
_Avx2WmemEnabledWeakValue DD 01H DUP (?)
_BSS	ENDS
msvcjmc	SEGMENT
__BCDB5C9F_ui512_unit_tests@pch DB 01H
__4F9DAAF3_predefined C++ types (compiler internal) DB 01H
__5E836398_CommonTypeDefs@h DB 01H
__20193517_vector DB 01H
__D1A2D489_xsmf_control@h DB 01H
__AE5FB554_optional DB 01H
__93F89AEE_iomanip DB 01H
__2438182B_forward_list DB 01H
__20F45165___msvc_tzdb@hpp DB 01H
__EA574C79_ratio DB 01H
__63042391___msvc_chrono@hpp DB 01H
__0959437D_chrono DB 01H
__0CC0A096_xloctime DB 01H
__AA1FC06D_xlocmon DB 01H
__33F6443E_xlocmes DB 01H
__1FB5F5B9_xlocbuf DB 01H
__7AF7BBD4_locale DB 01H
__53D5BF5B_xcharconv_tables@h DB 01H
__2A8E0789_xcharconv_ryu_tables@h DB 01H
__80010E97_xcharconv_ryu@h DB 01H
__6C2ABDB7_xcharconv@h DB 01H
__4D844272_xbit_ops@h DB 01H
__D8047733_charconv DB 01H
__C395D46E___msvc_bit_utils@hpp DB 01H
__D74B0347_bit DB 01H
__57562046___msvc_ranges_tuple_formatter@hpp DB 01H
__8B09BF59_xfilesystem_abi@h DB 01H
__2B08D9FB___msvc_print@hpp DB 01H
__85E81555___msvc_formatter@hpp DB 01H
__DAF60B2D___msvc_format_ucd_tables@hpp DB 01H
__E5CD0F93_format DB 01H
__73AE2530_ui512_unit_tests@h DB 01H
__5BD680C0_ui512_unit_tests_division@cpp DB 01H
__92E676FC_CppUnitTestLogger@h DB 01H
__FFBDF365_locale@h DB 01H
__7A237B76_clocale DB 01H
__D602BFDF___msvc_xlocinfo_types@hpp DB 01H
__A8DD0984_xlocinfo DB 01H
__FD5F1E76_xfacet DB 01H
__A3D3F6D7_vcruntime_typeinfo@h DB 01H
__B754EA4C_typeinfo DB 01H
__D11A4979_memory DB 01H
__1FFAB342_xlocale DB 01H
__1FF36214_time@h DB 01H
__405749DF_ctime DB 01H
__714FFA14_xtimec@h DB 01H
__EEAFAE40___msvc_threads_core@hpp DB 01H
__F88E164F_xthreads@h DB 01H
__D91C7F2A_xatomic_wait@h DB 01H
__06811935_atomic DB 01H
__F75A0417_xerrc@h DB 01H
__A083E855_xcall_once@h DB 01H
__24B6FA99_stdexcept DB 01H
__E537B7EF_cerrno DB 01H
__43DB425A___msvc_system_error_abi@hpp DB 01H
__1FDEFA75_system_error DB 01H
__85852BDB_share@h DB 01H
__91387E97_xiosbase DB 01H
__26164225_streambuf DB 01H
__D627AE15_iterator DB 01H
__817DD555_xlocnum DB 01H
__1320DE83_ios DB 01H
__1D8A815F___msvc_ostream@hpp DB 01H
__6F3A5CBC_istream DB 01H
__AC949F3C_sstream DB 01H
__6CD6613D_ctype@h DB 01H
__77DD24B3_cctype DB 01H
__3ABE9893_xpolymorphic_allocator@h DB 01H
__20C7CC96_tuple DB 01H
__A7F44C12_xatomic@h DB 01H
__C071288D_corecrt_terminate@h DB 01H
__7747910A_eh@h DB 01H
__4A687918_vcruntime_exception@h DB 01H
__ADF8C0C4_exception DB 01H
__EBEDE495_new DB 01H
__CB8A55F3_float@h DB 01H
__0B520893_cfloat DB 01H
__6DB445F7_limits DB 01H
__B41741EF_xmemory DB 01H
__6D608555_climits DB 01H
__4323F09F_concepts DB 01H
__109A9D16_compare DB 01H
__F79AC0B4_initializer_list DB 01H
__DE82222C_utility DB 01H
__B73D1048___msvc_iter_core@hpp DB 01H
__C78B1955_xutility DB 01H
__9715746B_ammintrin@h DB 01H
__1AC237E4_zmmintrin@h DB 01H
__7CD62D9E_malloc@h DB 01H
__5CE08A7F_mmintrin@h DB 01H
__42AE8E25_xmmintrin@h DB 01H
__27CC07E9_emmintrin@h DB 01H
__F86D6F60_pmmintrin@h DB 01H
__48B41CE2_tmmintrin@h DB 01H
__618F0961_smmintrin@h DB 01H
__04ED80AD_nmmintrin@h DB 01H
__D1567AE3_wmmintrin@h DB 01H
__2DD6952E_immintrin@h DB 01H
__3B3089AB_setjmp@h DB 01H
__1D0635DC_intrin@h DB 01H
__2A5E3E75_types@h DB 01H
__B16B2B9B_stat@h DB 01H
__9E5BC8DA_corecrt_wtime@h DB 01H
__F49D648E_corecrt_wprocess@h DB 01H
__260A2221_corecrt_share@h DB 01H
__EB642103_corecrt_wio@h DB 01H
__547F429B_corecrt_wdirect@h DB 01H
__108B2620_corecrt_wctype@h DB 01H
__8BDC0229_corecrt_wconio@h DB 01H
__4DD8D0FE_wchar@h DB 01H
__E29D1547_cwchar DB 01H
__60B45B40_corecrt_stdio_config@h DB 01H
__CFA3741E_corecrt_wstdio@h DB 01H
__B3FE3303_stdio@h DB 01H
__7816C314_cstdio DB 01H
__A15D9071_iosfwd DB 01H
__FEA281E8___msvc_string_view@hpp DB 01H
__CAE7E606___msvc_sanitizer_annotate_container@hpp DB 01H
__C0C4C773_xstring DB 01H
__A5C9CFE5_string DB 01H
__4C447D0A_cstddef DB 01H
__680F61A7_type_traits DB 01H
__D889C389_intrin0@inl@h DB 01H
__7C8A1759_intrin0@h DB 01H
__62CE13B5_xtr1common DB 01H
__99C021FC_use_ansi@h DB 01H
__65A7AE52_crtdefs@h DB 01H
__5FCF1118_yvals@h DB 01H
__86E4D5D7_cmath DB 01H
__825995EE_CppUnitTestAssert@h DB 01H
__9A5272F0_vcruntime_new@h DB 01H
__42867C4A_vcruntime_new_debug@h DB 01H
__15FC02C9_crtdbg@h DB 01H
__AB5361A8_stdint@h DB 01H
__54D146DA_cstdint DB 01H
__15254F97_limits@h DB 01H
__8B813BF6_corecrt_wstdlib@h DB 01H
__955456CD_stddef@h DB 01H
__99AED4FB_corecrt_search@h DB 01H
__211DB995_corecrt_malloc@h DB 01H
__E8FB0A68_stdlib@h DB 01H
__1D9A7FA2_corecrt_math@h DB 01H
__2E93F1C0_math@h DB 01H
__E98FA7A7_cstdlib DB 01H
__12FEDF4E_sdkddkver@h DB 01H
__DA6CE5E7_CppUnitTestCommon@h DB 01H
__A9AD3190_CppUnitTest@h DB 01H
__BFCD2E3E_pch@h DB 01H
__EE7C4E54_pch@cpp DB 01H
msvcjmc	ENDS
PUBLIC	?__empty_global_delete@@YAXPEAX@Z		; __empty_global_delete
PUBLIC	?__empty_global_delete@@YAXPEAX_K@Z		; __empty_global_delete
PUBLIC	?__empty_global_delete@@YAXPEAXW4align_val_t@std@@@Z ; __empty_global_delete
PUBLIC	?__empty_global_delete@@YAXPEAX_KW4align_val_t@std@@@Z ; __empty_global_delete
PUBLIC	?AreEqual@regs@@QEBA_NPEAU1@@Z			; regs::AreEqual
PUBLIC	??2@YAPEAX_KPEAX@Z				; operator new
PUBLIC	?_Is_constant_evaluated@std@@YA_NXZ		; std::_Is_constant_evaluated
PUBLIC	?is_constant_evaluated@std@@YA_NXZ		; std::is_constant_evaluated
PUBLIC	wmemcpy
PUBLIC	?copy@?$_Char_traits@_WG@std@@SAPEA_WQEA_WQEB_W_K@Z ; std::_Char_traits<wchar_t,unsigned short>::copy
PUBLIC	?move@?$_Char_traits@_WG@std@@SAPEA_WQEA_WQEB_W_K@Z ; std::_Char_traits<wchar_t,unsigned short>::move
PUBLIC	?length@?$_WChar_traits@_W@std@@SA_KPEB_W@Z	; std::_WChar_traits<wchar_t>::length
PUBLIC	?assign@?$_WChar_traits@_W@std@@SAXAEA_WAEB_W@Z	; std::_WChar_traits<wchar_t>::assign
PUBLIC	?eq@?$_WChar_traits@_W@std@@SA_N_W0@Z		; std::_WChar_traits<wchar_t>::eq
PUBLIC	?to_char_type@?$_WChar_traits@_W@std@@SA_WG@Z	; std::_WChar_traits<wchar_t>::to_char_type
PUBLIC	?to_int_type@?$_WChar_traits@_W@std@@SAG_W@Z	; std::_WChar_traits<wchar_t>::to_int_type
PUBLIC	?eq_int_type@?$_WChar_traits@_W@std@@SA_NGG@Z	; std::_WChar_traits<wchar_t>::eq_int_type
PUBLIC	?not_eof@?$_WChar_traits@_W@std@@SAGG@Z		; std::_WChar_traits<wchar_t>::not_eof
PUBLIC	?eof@?$_WChar_traits@_W@std@@SAGXZ		; std::_WChar_traits<wchar_t>::eof
PUBLIC	?copy@?$_Char_traits@DH@std@@SAPEADQEADQEBD_K@Z	; std::_Char_traits<char,int>::copy
PUBLIC	?move@?$_Char_traits@DH@std@@SAPEADQEADQEBD_K@Z	; std::_Char_traits<char,int>::move
PUBLIC	?assign@?$_Char_traits@DH@std@@SAPEADQEAD_KD@Z	; std::_Char_traits<char,int>::assign
PUBLIC	?compare@?$_Narrow_char_traits@DH@std@@SAHQEBD0_K@Z ; std::_Narrow_char_traits<char,int>::compare
PUBLIC	?length@?$_Narrow_char_traits@DH@std@@SA_KQEBD@Z ; std::_Narrow_char_traits<char,int>::length
PUBLIC	?assign@?$_Narrow_char_traits@DH@std@@SAPEADQEAD_KD@Z ; std::_Narrow_char_traits<char,int>::assign
PUBLIC	?assign@?$_Narrow_char_traits@DH@std@@SAXAEADAEBD@Z ; std::_Narrow_char_traits<char,int>::assign
PUBLIC	?eq@?$_Narrow_char_traits@DH@std@@SA_NDD@Z	; std::_Narrow_char_traits<char,int>::eq
PUBLIC	?to_char_type@?$_Narrow_char_traits@DH@std@@SADH@Z ; std::_Narrow_char_traits<char,int>::to_char_type
PUBLIC	?to_int_type@?$_Narrow_char_traits@DH@std@@SAHD@Z ; std::_Narrow_char_traits<char,int>::to_int_type
PUBLIC	?eq_int_type@?$_Narrow_char_traits@DH@std@@SA_NHH@Z ; std::_Narrow_char_traits<char,int>::eq_int_type
PUBLIC	?not_eof@?$_Narrow_char_traits@DH@std@@SAHH@Z	; std::_Narrow_char_traits<char,int>::not_eof
PUBLIC	?eof@?$_Narrow_char_traits@DH@std@@SAHXZ	; std::_Narrow_char_traits<char,int>::eof
PUBLIC	??$min@_K@std@@YAAEB_KAEB_K0@Z			; std::min<unsigned __int64>
PUBLIC	??0exception@std@@QEAA@QEBDH@Z			; std::exception::exception
PUBLIC	??0exception@std@@QEAA@AEBV01@@Z		; std::exception::exception
PUBLIC	??1exception@std@@UEAA@XZ			; std::exception::~exception
PUBLIC	?what@exception@std@@UEBAPEBDXZ			; std::exception::what
PUBLIC	??_Gexception@std@@UEAAPEAXI@Z			; std::exception::`scalar deleting destructor'
PUBLIC	??0bad_alloc@std@@AEAA@QEBD@Z			; std::bad_alloc::bad_alloc
PUBLIC	??1bad_alloc@std@@UEAA@XZ			; std::bad_alloc::~bad_alloc
PUBLIC	??0bad_alloc@std@@QEAA@AEBV01@@Z		; std::bad_alloc::bad_alloc
PUBLIC	??_Gbad_alloc@std@@UEAAPEAXI@Z			; std::bad_alloc::`scalar deleting destructor'
PUBLIC	??0bad_array_new_length@std@@QEAA@XZ		; std::bad_array_new_length::bad_array_new_length
PUBLIC	??1bad_array_new_length@std@@UEAA@XZ		; std::bad_array_new_length::~bad_array_new_length
PUBLIC	??0bad_array_new_length@std@@QEAA@AEBV01@@Z	; std::bad_array_new_length::bad_array_new_length
PUBLIC	??_Gbad_array_new_length@std@@UEAAPEAXI@Z	; std::bad_array_new_length::`scalar deleting destructor'
PUBLIC	?_Throw_bad_array_new_length@std@@YAXXZ		; std::_Throw_bad_array_new_length
PUBLIC	?_Allocate@_Default_allocate_traits@std@@SAPEAX_K@Z ; std::_Default_allocate_traits::_Allocate
PUBLIC	?_Adjust_manually_vector_aligned@std@@YAXAEAPEAXAEA_K@Z ; std::_Adjust_manually_vector_aligned
PUBLIC	??0_Container_proxy@std@@QEAA@PEAU_Container_base12@1@@Z ; std::_Container_proxy::_Container_proxy
PUBLIC	??0_Container_base12@std@@QEAA@XZ		; std::_Container_base12::_Container_base12
PUBLIC	?_Orphan_all@_Container_base12@std@@QEAAXXZ	; std::_Container_base12::_Orphan_all
PUBLIC	?_Orphan_all_unlocked_v3@_Container_base12@std@@AEAAXXZ ; std::_Container_base12::_Orphan_all_unlocked_v3
PUBLIC	?_Orphan_all_locked_v3@_Container_base12@std@@AEAAXXZ ; std::_Container_base12::_Orphan_all_locked_v3
PUBLIC	??0_Iterator_base12@std@@QEAA@XZ		; std::_Iterator_base12::_Iterator_base12
PUBLIC	??0_Iterator_base12@std@@QEAA@AEBU01@@Z		; std::_Iterator_base12::_Iterator_base12
PUBLIC	??4_Iterator_base12@std@@QEAAAEAU01@AEBU01@@Z	; std::_Iterator_base12::operator=
PUBLIC	??1_Iterator_base12@std@@QEAA@XZ		; std::_Iterator_base12::~_Iterator_base12
PUBLIC	?_Adopt@_Iterator_base12@std@@QEAAXPEBU_Container_base12@2@@Z ; std::_Iterator_base12::_Adopt
PUBLIC	?_Getcont@_Iterator_base12@std@@QEBAPEBU_Container_base12@2@XZ ; std::_Iterator_base12::_Getcont
PUBLIC	?_Assign_unlocked@_Iterator_base12@std@@AEAAXAEBU12@@Z ; std::_Iterator_base12::_Assign_unlocked
PUBLIC	?_Assign_locked@_Iterator_base12@std@@AEAAXAEBU12@@Z ; std::_Iterator_base12::_Assign_locked
PUBLIC	?_Adopt_unlocked@_Iterator_base12@std@@AEAAXPEBU_Container_base12@2@@Z ; std::_Iterator_base12::_Adopt_unlocked
PUBLIC	?_Adopt_locked@_Iterator_base12@std@@AEAAXPEBU_Container_base12@2@@Z ; std::_Iterator_base12::_Adopt_locked
PUBLIC	?_Orphan_me_unlocked_v3@_Iterator_base12@std@@AEAAXXZ ; std::_Iterator_base12::_Orphan_me_unlocked_v3
PUBLIC	?_Orphan_me_locked_v3@_Iterator_base12@std@@AEAAXXZ ; std::_Iterator_base12::_Orphan_me_locked_v3
PUBLIC	??$exchange@PEAU_Iterator_base12@std@@$$T@std@@YAPEAU_Iterator_base12@0@AEAPEAU10@$$QEA$$T@Z ; std::exchange<std::_Iterator_base12 *,std::nullptr_t>
PUBLIC	?_Release@_Basic_container_proxy_ptr12@std@@QEAAXXZ ; std::_Basic_container_proxy_ptr12::_Release
PUBLIC	??0_Basic_container_proxy_ptr12@std@@IEAA@XZ	; std::_Basic_container_proxy_ptr12::_Basic_container_proxy_ptr12
PUBLIC	??$addressof@U_Container_base12@std@@@std@@YAPEAU_Container_base12@0@AEAU10@@Z ; std::addressof<std::_Container_base12>
PUBLIC	??$_Construct_in_place@U_Container_proxy@std@@PEAU_Container_base12@2@@std@@YAXAEAU_Container_proxy@0@$$QEAPEAU_Container_base12@0@@Z ; std::_Construct_in_place<std::_Container_proxy,std::_Container_base12 *>
PUBLIC	?_Xlen_string@std@@YAXXZ			; std::_Xlen_string
PUBLIC	??0?$allocator@D@std@@QEAA@XZ			; std::allocator<char>::allocator<char>
PUBLIC	?deallocate@?$allocator@D@std@@QEAAXQEAD_K@Z	; std::allocator<char>::deallocate
PUBLIC	?allocate@?$allocator@D@std@@QEAAPEAD_K@Z	; std::allocator<char>::allocate
PUBLIC	?max_size@?$_Default_allocator_traits@V?$allocator@D@std@@@std@@SA_KAEBV?$allocator@D@2@@Z ; std::_Default_allocator_traits<std::allocator<char> >::max_size
PUBLIC	??0?$_String_val@U?$_Simple_types@D@std@@@std@@QEAA@XZ ; std::_String_val<std::_Simple_types<char> >::_String_val<std::_Simple_types<char> >
PUBLIC	?_Myptr@?$_String_val@U?$_Simple_types@D@std@@@std@@QEAAPEADXZ ; std::_String_val<std::_Simple_types<char> >::_Myptr
PUBLIC	?_Myptr@?$_String_val@U?$_Simple_types@D@std@@@std@@QEBAPEBDXZ ; std::_String_val<std::_Simple_types<char> >::_Myptr
PUBLIC	?_Large_mode_engaged@?$_String_val@U?$_Simple_types@D@std@@@std@@QEBA_NXZ ; std::_String_val<std::_Simple_types<char> >::_Large_mode_engaged
PUBLIC	?_Activate_SSO_buffer@?$_String_val@U?$_Simple_types@D@std@@@std@@QEAAXXZ ; std::_String_val<std::_Simple_types<char> >::_Activate_SSO_buffer
PUBLIC	?_Check_offset@?$_String_val@U?$_Simple_types@D@std@@@std@@QEBAX_K@Z ; std::_String_val<std::_Simple_types<char> >::_Check_offset
PUBLIC	?_Xran@?$_String_val@U?$_Simple_types@D@std@@@std@@SAXXZ ; std::_String_val<std::_Simple_types<char> >::_Xran
PUBLIC	??0_Bxty@?$_String_val@U?$_Simple_types@D@std@@@std@@QEAA@XZ ; std::_String_val<std::_Simple_types<char> >::_Bxty::_Bxty
PUBLIC	??1_Bxty@?$_String_val@U?$_Simple_types@D@std@@@std@@QEAA@XZ ; std::_String_val<std::_Simple_types<char> >::_Bxty::~_Bxty
PUBLIC	?_Switch_to_buf@_Bxty@?$_String_val@U?$_Simple_types@D@std@@@std@@QEAAXXZ ; std::_String_val<std::_Simple_types<char> >::_Bxty::_Switch_to_buf
PUBLIC	??1?$_String_val@U?$_Simple_types@D@std@@@std@@QEAA@XZ ; std::_String_val<std::_Simple_types<char> >::~_String_val<std::_Simple_types<char> >
PUBLIC	??0?$basic_string@DU?$char_traits@D@std@@V?$allocator@D@2@@std@@QEAA@AEBV?$allocator@D@1@@Z ; std::basic_string<char,std::char_traits<char>,std::allocator<char> >::basic_string<char,std::char_traits<char>,std::allocator<char> >
PUBLIC	??0?$basic_string@DU?$char_traits@D@std@@V?$allocator@D@2@@std@@QEAA@QEBD@Z ; std::basic_string<char,std::char_traits<char>,std::allocator<char> >::basic_string<char,std::char_traits<char>,std::allocator<char> >
PUBLIC	?_Deallocate_for_capacity@?$basic_string@DU?$char_traits@D@std@@V?$allocator@D@2@@std@@CAXAEAV?$allocator@D@2@QEAD_K@Z ; std::basic_string<char,std::char_traits<char>,std::allocator<char> >::_Deallocate_for_capacity
PUBLIC	?_Construct_empty@?$basic_string@DU?$char_traits@D@std@@V?$allocator@D@2@@std@@AEAAXXZ ; std::basic_string<char,std::char_traits<char>,std::allocator<char> >::_Construct_empty
PUBLIC	??1?$basic_string@DU?$char_traits@D@std@@V?$allocator@D@2@@std@@QEAA@XZ ; std::basic_string<char,std::char_traits<char>,std::allocator<char> >::~basic_string<char,std::char_traits<char>,std::allocator<char> >
PUBLIC	?assign@?$basic_string@DU?$char_traits@D@std@@V?$allocator@D@2@@std@@QEAAAEAV12@QEBD_K@Z ; std::basic_string<char,std::char_traits<char>,std::allocator<char> >::assign
PUBLIC	?insert@?$basic_string@DU?$char_traits@D@std@@V?$allocator@D@2@@std@@QEAAAEAV12@_K0D@Z ; std::basic_string<char,std::char_traits<char>,std::allocator<char> >::insert
PUBLIC	?insert@?$basic_string@DU?$char_traits@D@std@@V?$allocator@D@2@@std@@QEAA?AV?$_String_iterator@V?$_String_val@U?$_Simple_types@D@std@@@std@@@2@V?$_String_const_iterator@V?$_String_val@U?$_Simple_types@D@std@@@std@@@2@D@Z ; std::basic_string<char,std::char_traits<char>,std::allocator<char> >::insert
PUBLIC	?begin@?$basic_string@DU?$char_traits@D@std@@V?$allocator@D@2@@std@@QEAA?AV?$_String_iterator@V?$_String_val@U?$_Simple_types@D@std@@@std@@@2@XZ ; std::basic_string<char,std::char_traits<char>,std::allocator<char> >::begin
PUBLIC	?c_str@?$basic_string@DU?$char_traits@D@std@@V?$allocator@D@2@@std@@QEBAPEBDXZ ; std::basic_string<char,std::char_traits<char>,std::allocator<char> >::c_str
PUBLIC	?max_size@?$basic_string@DU?$char_traits@D@std@@V?$allocator@D@2@@std@@QEBA_KXZ ; std::basic_string<char,std::char_traits<char>,std::allocator<char> >::max_size
PUBLIC	?_Equal@?$basic_string@DU?$char_traits@D@std@@V?$allocator@D@2@@std@@QEBA_NAEBV12@@Z ; std::basic_string<char,std::char_traits<char>,std::allocator<char> >::_Equal
PUBLIC	?_Calculate_growth@?$basic_string@DU?$char_traits@D@std@@V?$allocator@D@2@@std@@CA_K_K00@Z ; std::basic_string<char,std::char_traits<char>,std::allocator<char> >::_Calculate_growth
PUBLIC	?_Calculate_growth@?$basic_string@DU?$char_traits@D@std@@V?$allocator@D@2@@std@@AEBA_K_K@Z ; std::basic_string<char,std::char_traits<char>,std::allocator<char> >::_Calculate_growth
PUBLIC	?_Tidy_deallocate@?$basic_string@DU?$char_traits@D@std@@V?$allocator@D@2@@std@@AEAAXXZ ; std::basic_string<char,std::char_traits<char>,std::allocator<char> >::_Tidy_deallocate
PUBLIC	?_Getal@?$basic_string@DU?$char_traits@D@std@@V?$allocator@D@2@@std@@AEAAAEAV?$allocator@D@2@XZ ; std::basic_string<char,std::char_traits<char>,std::allocator<char> >::_Getal
PUBLIC	?_Getal@?$basic_string@DU?$char_traits@D@std@@V?$allocator@D@2@@std@@AEBAAEBV?$allocator@D@2@XZ ; std::basic_string<char,std::char_traits<char>,std::allocator<char> >::_Getal
PUBLIC	?_Get_first@?$_Compressed_pair@V?$allocator@D@std@@V?$_String_val@U?$_Simple_types@D@std@@@2@$00@std@@QEAAAEAV?$allocator@D@2@XZ ; std::_Compressed_pair<std::allocator<char>,std::_String_val<std::_Simple_types<char> >,1>::_Get_first
PUBLIC	?_Get_first@?$_Compressed_pair@V?$allocator@D@std@@V?$_String_val@U?$_Simple_types@D@std@@@2@$00@std@@QEBAAEBV?$allocator@D@2@XZ ; std::_Compressed_pair<std::allocator<char>,std::_String_val<std::_Simple_types<char> >,1>::_Get_first
PUBLIC	??1?$_Compressed_pair@V?$allocator@D@std@@V?$_String_val@U?$_Simple_types@D@std@@@2@$00@std@@QEAA@XZ ; std::_Compressed_pair<std::allocator<char>,std::_String_val<std::_Simple_types<char> >,1>::~_Compressed_pair<std::allocator<char>,std::_String_val<std::_Simple_types<char> >,1>
PUBLIC	??0?$allocator@_W@std@@QEAA@XZ			; std::allocator<wchar_t>::allocator<wchar_t>
PUBLIC	?deallocate@?$allocator@_W@std@@QEAAXQEA_W_K@Z	; std::allocator<wchar_t>::deallocate
PUBLIC	?allocate@?$allocator@_W@std@@QEAAPEA_W_K@Z	; std::allocator<wchar_t>::allocate
PUBLIC	?max_size@?$_Default_allocator_traits@V?$allocator@_W@std@@@std@@SA_KAEBV?$allocator@_W@2@@Z ; std::_Default_allocator_traits<std::allocator<wchar_t> >::max_size
PUBLIC	??0?$_String_val@U?$_Simple_types@_W@std@@@std@@QEAA@XZ ; std::_String_val<std::_Simple_types<wchar_t> >::_String_val<std::_Simple_types<wchar_t> >
PUBLIC	?_Myptr@?$_String_val@U?$_Simple_types@_W@std@@@std@@QEAAPEA_WXZ ; std::_String_val<std::_Simple_types<wchar_t> >::_Myptr
PUBLIC	?_Myptr@?$_String_val@U?$_Simple_types@_W@std@@@std@@QEBAPEB_WXZ ; std::_String_val<std::_Simple_types<wchar_t> >::_Myptr
PUBLIC	?_Large_mode_engaged@?$_String_val@U?$_Simple_types@_W@std@@@std@@QEBA_NXZ ; std::_String_val<std::_Simple_types<wchar_t> >::_Large_mode_engaged
PUBLIC	?_Activate_SSO_buffer@?$_String_val@U?$_Simple_types@_W@std@@@std@@QEAAXXZ ; std::_String_val<std::_Simple_types<wchar_t> >::_Activate_SSO_buffer
PUBLIC	??0_Bxty@?$_String_val@U?$_Simple_types@_W@std@@@std@@QEAA@XZ ; std::_String_val<std::_Simple_types<wchar_t> >::_Bxty::_Bxty
PUBLIC	??1_Bxty@?$_String_val@U?$_Simple_types@_W@std@@@std@@QEAA@XZ ; std::_String_val<std::_Simple_types<wchar_t> >::_Bxty::~_Bxty
PUBLIC	?_Switch_to_buf@_Bxty@?$_String_val@U?$_Simple_types@_W@std@@@std@@QEAAXXZ ; std::_String_val<std::_Simple_types<wchar_t> >::_Bxty::_Switch_to_buf
PUBLIC	??1?$_String_val@U?$_Simple_types@_W@std@@@std@@QEAA@XZ ; std::_String_val<std::_Simple_types<wchar_t> >::~_String_val<std::_Simple_types<wchar_t> >
PUBLIC	??0?$basic_string@_WU?$char_traits@_W@std@@V?$allocator@_W@2@@std@@QEAA@AEBV?$allocator@_W@1@@Z ; std::basic_string<wchar_t,std::char_traits<wchar_t>,std::allocator<wchar_t> >::basic_string<wchar_t,std::char_traits<wchar_t>,std::allocator<wchar_t> >
PUBLIC	??0?$basic_string@_WU?$char_traits@_W@std@@V?$allocator@_W@2@@std@@QEAA@QEB_W@Z ; std::basic_string<wchar_t,std::char_traits<wchar_t>,std::allocator<wchar_t> >::basic_string<wchar_t,std::char_traits<wchar_t>,std::allocator<wchar_t> >
PUBLIC	?_Deallocate_for_capacity@?$basic_string@_WU?$char_traits@_W@std@@V?$allocator@_W@2@@std@@CAXAEAV?$allocator@_W@2@QEA_W_K@Z ; std::basic_string<wchar_t,std::char_traits<wchar_t>,std::allocator<wchar_t> >::_Deallocate_for_capacity
PUBLIC	?_Construct_empty@?$basic_string@_WU?$char_traits@_W@std@@V?$allocator@_W@2@@std@@AEAAXXZ ; std::basic_string<wchar_t,std::char_traits<wchar_t>,std::allocator<wchar_t> >::_Construct_empty
PUBLIC	??1?$basic_string@_WU?$char_traits@_W@std@@V?$allocator@_W@2@@std@@QEAA@XZ ; std::basic_string<wchar_t,std::char_traits<wchar_t>,std::allocator<wchar_t> >::~basic_string<wchar_t,std::char_traits<wchar_t>,std::allocator<wchar_t> >
PUBLIC	?assign@?$basic_string@_WU?$char_traits@_W@std@@V?$allocator@_W@2@@std@@QEAAAEAV12@QEB_W_K@Z ; std::basic_string<wchar_t,std::char_traits<wchar_t>,std::allocator<wchar_t> >::assign
PUBLIC	?c_str@?$basic_string@_WU?$char_traits@_W@std@@V?$allocator@_W@2@@std@@QEBAPEB_WXZ ; std::basic_string<wchar_t,std::char_traits<wchar_t>,std::allocator<wchar_t> >::c_str
PUBLIC	?max_size@?$basic_string@_WU?$char_traits@_W@std@@V?$allocator@_W@2@@std@@QEBA_KXZ ; std::basic_string<wchar_t,std::char_traits<wchar_t>,std::allocator<wchar_t> >::max_size
PUBLIC	?_Calculate_growth@?$basic_string@_WU?$char_traits@_W@std@@V?$allocator@_W@2@@std@@CA_K_K00@Z ; std::basic_string<wchar_t,std::char_traits<wchar_t>,std::allocator<wchar_t> >::_Calculate_growth
PUBLIC	?_Calculate_growth@?$basic_string@_WU?$char_traits@_W@std@@V?$allocator@_W@2@@std@@AEBA_K_K@Z ; std::basic_string<wchar_t,std::char_traits<wchar_t>,std::allocator<wchar_t> >::_Calculate_growth
PUBLIC	?_Tidy_deallocate@?$basic_string@_WU?$char_traits@_W@std@@V?$allocator@_W@2@@std@@AEAAXXZ ; std::basic_string<wchar_t,std::char_traits<wchar_t>,std::allocator<wchar_t> >::_Tidy_deallocate
PUBLIC	?_Getal@?$basic_string@_WU?$char_traits@_W@std@@V?$allocator@_W@2@@std@@AEAAAEAV?$allocator@_W@2@XZ ; std::basic_string<wchar_t,std::char_traits<wchar_t>,std::allocator<wchar_t> >::_Getal
PUBLIC	?_Getal@?$basic_string@_WU?$char_traits@_W@std@@V?$allocator@_W@2@@std@@AEBAAEBV?$allocator@_W@2@XZ ; std::basic_string<wchar_t,std::char_traits<wchar_t>,std::allocator<wchar_t> >::_Getal
PUBLIC	?_Get_first@?$_Compressed_pair@V?$allocator@_W@std@@V?$_String_val@U?$_Simple_types@_W@std@@@2@$00@std@@QEAAAEAV?$allocator@_W@2@XZ ; std::_Compressed_pair<std::allocator<wchar_t>,std::_String_val<std::_Simple_types<wchar_t> >,1>::_Get_first
PUBLIC	?_Get_first@?$_Compressed_pair@V?$allocator@_W@std@@V?$_String_val@U?$_Simple_types@_W@std@@@2@$00@std@@QEBAAEBV?$allocator@_W@2@XZ ; std::_Compressed_pair<std::allocator<wchar_t>,std::_String_val<std::_Simple_types<wchar_t> >,1>::_Get_first
PUBLIC	??1?$_Compressed_pair@V?$allocator@_W@std@@V?$_String_val@U?$_Simple_types@_W@std@@@2@$00@std@@QEAA@XZ ; std::_Compressed_pair<std::allocator<wchar_t>,std::_String_val<std::_Simple_types<wchar_t> >,1>::~_Compressed_pair<std::allocator<wchar_t>,std::_String_val<std::_Simple_types<wchar_t> >,1>
PUBLIC	??0bad_cast@std@@QEAA@XZ			; std::bad_cast::bad_cast
PUBLIC	??1bad_cast@std@@UEAA@XZ			; std::bad_cast::~bad_cast
PUBLIC	??0bad_cast@std@@QEAA@AEBV01@@Z			; std::bad_cast::bad_cast
PUBLIC	??_Gbad_cast@std@@UEAAPEAXI@Z			; std::bad_cast::`scalar deleting destructor'
PUBLIC	?_Throw_bad_cast@std@@YAXXZ			; std::_Throw_bad_cast
PUBLIC	??1locale@std@@QEAA@XZ				; std::locale::~locale
PUBLIC	?_Getfacet@locale@std@@QEBAPEBVfacet@12@_K@Z	; std::locale::_Getfacet
PUBLIC	?_Maklocwcs@std@@YAPEA_WPEB_W@Z			; std::_Maklocwcs
PUBLIC	??$_Max_limit@_J@std@@YA_JXZ			; std::_Max_limit<__int64>
PUBLIC	??0?$basic_stringstream@_WU?$char_traits@_W@std@@V?$allocator@_W@2@@std@@QEAA@XZ ; std::basic_stringstream<wchar_t,std::char_traits<wchar_t>,std::allocator<wchar_t> >::basic_stringstream<wchar_t,std::char_traits<wchar_t>,std::allocator<wchar_t> >
PUBLIC	??1?$basic_stringstream@_WU?$char_traits@_W@std@@V?$allocator@_W@2@@std@@UEAA@XZ ; std::basic_stringstream<wchar_t,std::char_traits<wchar_t>,std::allocator<wchar_t> >::~basic_stringstream<wchar_t,std::char_traits<wchar_t>,std::allocator<wchar_t> >
PUBLIC	?str@?$basic_stringstream@_WU?$char_traits@_W@std@@V?$allocator@_W@2@@std@@QEGBA?AV?$basic_string@_WU?$char_traits@_W@std@@V?$allocator@_W@2@@2@XZ ; std::basic_stringstream<wchar_t,std::char_traits<wchar_t>,std::allocator<wchar_t> >::str
PUBLIC	??0?$basic_stringbuf@_WU?$char_traits@_W@std@@V?$allocator@_W@2@@std@@QEAA@H@Z ; std::basic_stringbuf<wchar_t,std::char_traits<wchar_t>,std::allocator<wchar_t> >::basic_stringbuf<wchar_t,std::char_traits<wchar_t>,std::allocator<wchar_t> >
PUBLIC	??1?$basic_stringbuf@_WU?$char_traits@_W@std@@V?$allocator@_W@2@@std@@UEAA@XZ ; std::basic_stringbuf<wchar_t,std::char_traits<wchar_t>,std::allocator<wchar_t> >::~basic_stringbuf<wchar_t,std::char_traits<wchar_t>,std::allocator<wchar_t> >
PUBLIC	?_Get_buffer_view@?$basic_stringbuf@_WU?$char_traits@_W@std@@V?$allocator@_W@2@@std@@QEBA?AU_Buffer_view@12@XZ ; std::basic_stringbuf<wchar_t,std::char_traits<wchar_t>,std::allocator<wchar_t> >::_Get_buffer_view
PUBLIC	?str@?$basic_stringbuf@_WU?$char_traits@_W@std@@V?$allocator@_W@2@@std@@QEGBA?AV?$basic_string@_WU?$char_traits@_W@std@@V?$allocator@_W@2@@2@XZ ; std::basic_stringbuf<wchar_t,std::char_traits<wchar_t>,std::allocator<wchar_t> >::str
PUBLIC	?overflow@?$basic_stringbuf@_WU?$char_traits@_W@std@@V?$allocator@_W@2@@std@@MEAAGG@Z ; std::basic_stringbuf<wchar_t,std::char_traits<wchar_t>,std::allocator<wchar_t> >::overflow
PUBLIC	?pbackfail@?$basic_stringbuf@_WU?$char_traits@_W@std@@V?$allocator@_W@2@@std@@MEAAGG@Z ; std::basic_stringbuf<wchar_t,std::char_traits<wchar_t>,std::allocator<wchar_t> >::pbackfail
PUBLIC	?underflow@?$basic_stringbuf@_WU?$char_traits@_W@std@@V?$allocator@_W@2@@std@@MEAAGXZ ; std::basic_stringbuf<wchar_t,std::char_traits<wchar_t>,std::allocator<wchar_t> >::underflow
PUBLIC	?seekoff@?$basic_stringbuf@_WU?$char_traits@_W@std@@V?$allocator@_W@2@@std@@MEAA?AV?$fpos@U_Mbstatet@@@2@_JHH@Z ; std::basic_stringbuf<wchar_t,std::char_traits<wchar_t>,std::allocator<wchar_t> >::seekoff
PUBLIC	?seekpos@?$basic_stringbuf@_WU?$char_traits@_W@std@@V?$allocator@_W@2@@std@@MEAA?AV?$fpos@U_Mbstatet@@@2@V32@H@Z ; std::basic_stringbuf<wchar_t,std::char_traits<wchar_t>,std::allocator<wchar_t> >::seekpos
PUBLIC	?_Tidy@?$basic_stringbuf@_WU?$char_traits@_W@std@@V?$allocator@_W@2@@std@@IEAAXXZ ; std::basic_stringbuf<wchar_t,std::char_traits<wchar_t>,std::allocator<wchar_t> >::_Tidy
PUBLIC	?_Getstate@?$basic_stringbuf@_WU?$char_traits@_W@std@@V?$allocator@_W@2@@std@@CAHH@Z ; std::basic_stringbuf<wchar_t,std::char_traits<wchar_t>,std::allocator<wchar_t> >::_Getstate
PUBLIC	??_G?$basic_stringbuf@_WU?$char_traits@_W@std@@V?$allocator@_W@2@@std@@UEAAPEAXI@Z ; std::basic_stringbuf<wchar_t,std::char_traits<wchar_t>,std::allocator<wchar_t> >::`scalar deleting destructor'
PUBLIC	?__autoclassinit2@?$basic_stringstream@_WU?$char_traits@_W@std@@V?$allocator@_W@2@@std@@QEAAX_K@Z ; std::basic_stringstream<wchar_t,std::char_traits<wchar_t>,std::allocator<wchar_t> >::__autoclassinit2
PUBLIC	??_G?$basic_stringstream@_WU?$char_traits@_W@std@@V?$allocator@_W@2@@std@@UEAAPEAXI@Z ; std::basic_stringstream<wchar_t,std::char_traits<wchar_t>,std::allocator<wchar_t> >::`scalar deleting destructor'
PUBLIC	??_D?$basic_stringstream@_WU?$char_traits@_W@std@@V?$allocator@_W@2@@std@@QEAAXXZ ; std::basic_stringstream<wchar_t,std::char_traits<wchar_t>,std::allocator<wchar_t> >::`vbase destructor'
PUBLIC	??$?6_WU?$char_traits@_W@std@@@std@@YAAEAV?$basic_ostream@_WU?$char_traits@_W@std@@@0@AEAV10@PEBD@Z ; std::operator<<<wchar_t,std::char_traits<wchar_t> >
PUBLIC	??$?6_WU?$char_traits@_W@std@@@std@@YAAEAV?$basic_ostream@_WU?$char_traits@_W@std@@@0@AEAV10@PEB_W@Z ; std::operator<<<wchar_t,std::char_traits<wchar_t> >
PUBLIC	?IsTrue@Assert@CppUnitTestFramework@VisualStudio@Microsoft@@SAX_NPEB_WPEBU__LineInfo@234@@Z ; Microsoft::VisualStudio::CppUnitTestFramework::Assert::IsTrue
PUBLIC	?GetAssertMessage@Assert@CppUnitTestFramework@VisualStudio@Microsoft@@CA?AV?$basic_string@_WU?$char_traits@_W@std@@V?$allocator@_W@2@@std@@_NAEBV56@1PEB_W@Z ; Microsoft::VisualStudio::CppUnitTestFramework::Assert::GetAssertMessage
PUBLIC	?WriteMessage@Logger@CppUnitTestFramework@VisualStudio@Microsoft@@SAXPEB_W@Z ; Microsoft::VisualStudio::CppUnitTestFramework::Logger::WriteMessage
PUBLIC	?WriteMessage@Logger@CppUnitTestFramework@VisualStudio@Microsoft@@SAXPEBD@Z ; Microsoft::VisualStudio::CppUnitTestFramework::Logger::WriteMessage
PUBLIC	??0TestClassImpl@CppUnitTestFramework@VisualStudio@Microsoft@@QEAA@XZ ; Microsoft::VisualStudio::CppUnitTestFramework::TestClassImpl::TestClassImpl
PUBLIC	??1TestClassImpl@CppUnitTestFramework@VisualStudio@Microsoft@@UEAA@XZ ; Microsoft::VisualStudio::CppUnitTestFramework::TestClassImpl::~TestClassImpl
PUBLIC	??0CrtHandlersSetter@TestClassImpl@CppUnitTestFramework@VisualStudio@Microsoft@@QEAA@XZ ; Microsoft::VisualStudio::CppUnitTestFramework::TestClassImpl::CrtHandlersSetter::CrtHandlersSetter
PUBLIC	??1CrtHandlersSetter@TestClassImpl@CppUnitTestFramework@VisualStudio@Microsoft@@QEAA@XZ ; Microsoft::VisualStudio::CppUnitTestFramework::TestClassImpl::CrtHandlersSetter::~CrtHandlersSetter
PUBLIC	??_GTestClassImpl@CppUnitTestFramework@VisualStudio@Microsoft@@UEAAPEAXI@Z ; Microsoft::VisualStudio::CppUnitTestFramework::TestClassImpl::`scalar deleting destructor'
PUBLIC	??$_Getvals@_W@?$time_get@DV?$istreambuf_iterator@DU?$char_traits@D@std@@@std@@@std@@IEAAX_WAEBV_Locinfo@1@@Z ; std::time_get<char,std::istreambuf_iterator<char,std::char_traits<char> > >::_Getvals<wchar_t>
PUBLIC	??$_Getvals@_W@?$time_get@_WV?$istreambuf_iterator@_WU?$char_traits@_W@std@@@std@@@std@@IEAAX_WAEBV_Locinfo@1@@Z ; std::time_get<wchar_t,std::istreambuf_iterator<wchar_t,std::char_traits<wchar_t> > >::_Getvals<wchar_t>
PUBLIC	??$max@_K@std@@YAAEB_KAEB_K0@Z			; std::max<unsigned __int64>
PUBLIC	??0?$basic_stringbuf@DU?$char_traits@D@std@@V?$allocator@D@2@@std@@QEAA@H@Z ; std::basic_stringbuf<char,std::char_traits<char>,std::allocator<char> >::basic_stringbuf<char,std::char_traits<char>,std::allocator<char> >
PUBLIC	??1?$basic_stringbuf@DU?$char_traits@D@std@@V?$allocator@D@2@@std@@UEAA@XZ ; std::basic_stringbuf<char,std::char_traits<char>,std::allocator<char> >::~basic_stringbuf<char,std::char_traits<char>,std::allocator<char> >
PUBLIC	?_Get_buffer_view@?$basic_stringbuf@DU?$char_traits@D@std@@V?$allocator@D@2@@std@@QEBA?AU_Buffer_view@12@XZ ; std::basic_stringbuf<char,std::char_traits<char>,std::allocator<char> >::_Get_buffer_view
PUBLIC	?str@?$basic_stringbuf@DU?$char_traits@D@std@@V?$allocator@D@2@@std@@QEGBA?AV?$basic_string@DU?$char_traits@D@std@@V?$allocator@D@2@@2@XZ ; std::basic_stringbuf<char,std::char_traits<char>,std::allocator<char> >::str
PUBLIC	?overflow@?$basic_stringbuf@DU?$char_traits@D@std@@V?$allocator@D@2@@std@@MEAAHH@Z ; std::basic_stringbuf<char,std::char_traits<char>,std::allocator<char> >::overflow
PUBLIC	?pbackfail@?$basic_stringbuf@DU?$char_traits@D@std@@V?$allocator@D@2@@std@@MEAAHH@Z ; std::basic_stringbuf<char,std::char_traits<char>,std::allocator<char> >::pbackfail
PUBLIC	?underflow@?$basic_stringbuf@DU?$char_traits@D@std@@V?$allocator@D@2@@std@@MEAAHXZ ; std::basic_stringbuf<char,std::char_traits<char>,std::allocator<char> >::underflow
PUBLIC	?seekoff@?$basic_stringbuf@DU?$char_traits@D@std@@V?$allocator@D@2@@std@@MEAA?AV?$fpos@U_Mbstatet@@@2@_JHH@Z ; std::basic_stringbuf<char,std::char_traits<char>,std::allocator<char> >::seekoff
PUBLIC	?seekpos@?$basic_stringbuf@DU?$char_traits@D@std@@V?$allocator@D@2@@std@@MEAA?AV?$fpos@U_Mbstatet@@@2@V32@H@Z ; std::basic_stringbuf<char,std::char_traits<char>,std::allocator<char> >::seekpos
PUBLIC	?_Tidy@?$basic_stringbuf@DU?$char_traits@D@std@@V?$allocator@D@2@@std@@IEAAXXZ ; std::basic_stringbuf<char,std::char_traits<char>,std::allocator<char> >::_Tidy
PUBLIC	?_Getstate@?$basic_stringbuf@DU?$char_traits@D@std@@V?$allocator@D@2@@std@@CAHH@Z ; std::basic_stringbuf<char,std::char_traits<char>,std::allocator<char> >::_Getstate
PUBLIC	??_G?$basic_stringbuf@DU?$char_traits@D@std@@V?$allocator@D@2@@std@@UEAAPEAXI@Z ; std::basic_stringbuf<char,std::char_traits<char>,std::allocator<char> >::`scalar deleting destructor'
PUBLIC	?__New@?$TestClass@Vui512_unit_tests_division@ui512_Unit_Tests@@@CppUnitTestFramework@VisualStudio@Microsoft@@SAPEAVTestClassImpl@234@XZ ; Microsoft::VisualStudio::CppUnitTestFramework::TestClass<ui512_Unit_Tests::ui512_unit_tests_division>::__New
PUBLIC	?__Delete@?$TestClass@Vui512_unit_tests_division@ui512_Unit_Tests@@@CppUnitTestFramework@VisualStudio@Microsoft@@SAXPEAVTestClassImpl@234@@Z ; Microsoft::VisualStudio::CppUnitTestFramework::TestClass<ui512_Unit_Tests::ui512_unit_tests_division>::__Delete
PUBLIC	??1?$TestClass@Vui512_unit_tests_division@ui512_Unit_Tests@@@CppUnitTestFramework@VisualStudio@Microsoft@@UEAA@XZ ; Microsoft::VisualStudio::CppUnitTestFramework::TestClass<ui512_Unit_Tests::ui512_unit_tests_division>::~TestClass<ui512_Unit_Tests::ui512_unit_tests_division>
PUBLIC	?__Invoke@?$TestClass@Vui512_unit_tests_division@ui512_Unit_Tests@@@CppUnitTestFramework@VisualStudio@Microsoft@@UEAAXP8TestClassImpl@234@EAAXXZ@Z ; Microsoft::VisualStudio::CppUnitTestFramework::TestClass<ui512_Unit_Tests::ui512_unit_tests_division>::__Invoke
PUBLIC	?__GetTestClassInfo@?$TestClass@Vui512_unit_tests_division@ui512_Unit_Tests@@@CppUnitTestFramework@VisualStudio@Microsoft@@SAPEBUTestClassInfo@234@XZ ; Microsoft::VisualStudio::CppUnitTestFramework::TestClass<ui512_Unit_Tests::ui512_unit_tests_division>::__GetTestClassInfo
PUBLIC	?__GetTestVersion@?$TestClass@Vui512_unit_tests_division@ui512_Unit_Tests@@@CppUnitTestFramework@VisualStudio@Microsoft@@SAPEBUTestDataVersion@234@XZ ; Microsoft::VisualStudio::CppUnitTestFramework::TestClass<ui512_Unit_Tests::ui512_unit_tests_division>::__GetTestVersion
PUBLIC	??0?$TestClass@Vui512_unit_tests_division@ui512_Unit_Tests@@@CppUnitTestFramework@VisualStudio@Microsoft@@QEAA@XZ ; Microsoft::VisualStudio::CppUnitTestFramework::TestClass<ui512_Unit_Tests::ui512_unit_tests_division>::TestClass<ui512_Unit_Tests::ui512_unit_tests_division>
PUBLIC	??_G?$TestClass@Vui512_unit_tests_division@ui512_Unit_Tests@@@CppUnitTestFramework@VisualStudio@Microsoft@@UEAAPEAXI@Z ; Microsoft::VisualStudio::CppUnitTestFramework::TestClass<ui512_Unit_Tests::ui512_unit_tests_division>::`scalar deleting destructor'
PUBLIC	?__GetTestMethodInfo_ui512_01_div_pt1@ui512_unit_tests_division@ui512_Unit_Tests@@CAPEBUMemberMethodInfo@CppUnitTestFramework@VisualStudio@Microsoft@@XZ ; ui512_Unit_Tests::ui512_unit_tests_division::__GetTestMethodInfo_ui512_01_div_pt1
PUBLIC	?ui512_01_div_pt1@ui512_unit_tests_division@ui512_Unit_Tests@@AEAAXXZ ; ui512_Unit_Tests::ui512_unit_tests_division::ui512_01_div_pt1
PUBLIC	?__GetTestMethodInfo_ui512_01_div_pt2@ui512_unit_tests_division@ui512_Unit_Tests@@CAPEBUMemberMethodInfo@CppUnitTestFramework@VisualStudio@Microsoft@@XZ ; ui512_Unit_Tests::ui512_unit_tests_division::__GetTestMethodInfo_ui512_01_div_pt2
PUBLIC	?ui512_01_div_pt2@ui512_unit_tests_division@ui512_Unit_Tests@@AEAAXXZ ; ui512_Unit_Tests::ui512_unit_tests_division::ui512_01_div_pt2
PUBLIC	?__GetTestMethodInfo_ui512_01_div_pt3@ui512_unit_tests_division@ui512_Unit_Tests@@CAPEBUMemberMethodInfo@CppUnitTestFramework@VisualStudio@Microsoft@@XZ ; ui512_Unit_Tests::ui512_unit_tests_division::__GetTestMethodInfo_ui512_01_div_pt3
PUBLIC	?ui512_01_div_pt3@ui512_unit_tests_division@ui512_Unit_Tests@@AEAAXXZ ; ui512_Unit_Tests::ui512_unit_tests_division::ui512_01_div_pt3
PUBLIC	?__GetTestMethodInfo_ui512_01_div_pt4@ui512_unit_tests_division@ui512_Unit_Tests@@CAPEBUMemberMethodInfo@CppUnitTestFramework@VisualStudio@Microsoft@@XZ ; ui512_Unit_Tests::ui512_unit_tests_division::__GetTestMethodInfo_ui512_01_div_pt4
PUBLIC	?ui512_01_div_pt4@ui512_unit_tests_division@ui512_Unit_Tests@@AEAAXXZ ; ui512_Unit_Tests::ui512_unit_tests_division::ui512_01_div_pt4
PUBLIC	?__GetTestMethodInfo_ui512_02_div64@ui512_unit_tests_division@ui512_Unit_Tests@@CAPEBUMemberMethodInfo@CppUnitTestFramework@VisualStudio@Microsoft@@XZ ; ui512_Unit_Tests::ui512_unit_tests_division::__GetTestMethodInfo_ui512_02_div64
PUBLIC	?ui512_02_div64@ui512_unit_tests_division@ui512_Unit_Tests@@AEAAXXZ ; ui512_Unit_Tests::ui512_unit_tests_division::ui512_02_div64
PUBLIC	?__GetTestMethodInfo_ui512_02_div64_performance@ui512_unit_tests_division@ui512_Unit_Tests@@CAPEBUMemberMethodInfo@CppUnitTestFramework@VisualStudio@Microsoft@@XZ ; ui512_Unit_Tests::ui512_unit_tests_division::__GetTestMethodInfo_ui512_02_div64_performance
PUBLIC	?ui512_02_div64_performance@ui512_unit_tests_division@ui512_Unit_Tests@@AEAAXXZ ; ui512_Unit_Tests::ui512_unit_tests_division::ui512_02_div64_performance
PUBLIC	??0ui512_unit_tests_division@ui512_Unit_Tests@@QEAA@XZ ; ui512_Unit_Tests::ui512_unit_tests_division::ui512_unit_tests_division
PUBLIC	??1ui512_unit_tests_division@ui512_Unit_Tests@@UEAA@XZ ; ui512_Unit_Tests::ui512_unit_tests_division::~ui512_unit_tests_division
PUBLIC	??_Gui512_unit_tests_division@ui512_Unit_Tests@@UEAAPEAXI@Z ; ui512_Unit_Tests::ui512_unit_tests_division::`scalar deleting destructor'
PUBLIC	??R<lambda_1>@?5??ui512_01_div_pt1@ui512_unit_tests_division@ui512_Unit_Tests@@AEAAXXZ@QEBA@XZ ; `ui512_Unit_Tests::ui512_unit_tests_division::ui512_01_div_pt1'::`6'::<lambda_1>::operator()
PUBLIC	??0<lambda_1>@?5??ui512_01_div_pt1@ui512_unit_tests_division@ui512_Unit_Tests@@AEAAXXZ@QEAA@AEAH0@Z ; `ui512_Unit_Tests::ui512_unit_tests_division::ui512_01_div_pt1'::`6'::<lambda_1>::<lambda_1>
PUBLIC	??$AreEqual@_K$0A@@Assert@CppUnitTestFramework@VisualStudio@Microsoft@@SAXAEB_K0PEB_WPEBU__LineInfo@123@@Z ; Microsoft::VisualStudio::CppUnitTestFramework::Assert::AreEqual<unsigned __int64,0>
PUBLIC	??R<lambda_2>@?5??ui512_01_div_pt1@ui512_unit_tests_division@ui512_Unit_Tests@@AEAAXXZ@QEBA@XZ ; `ui512_Unit_Tests::ui512_unit_tests_division::ui512_01_div_pt1'::`6'::<lambda_2>::operator()
PUBLIC	??0<lambda_2>@?5??ui512_01_div_pt1@ui512_unit_tests_division@ui512_Unit_Tests@@AEAAXXZ@QEAA@AEAH0@Z ; `ui512_Unit_Tests::ui512_unit_tests_division::ui512_01_div_pt1'::`6'::<lambda_2>::<lambda_2>
PUBLIC	??$AreEqual@F$0A@@Assert@CppUnitTestFramework@VisualStudio@Microsoft@@SAXAEBF0PEB_WPEBU__LineInfo@123@@Z ; Microsoft::VisualStudio::CppUnitTestFramework::Assert::AreEqual<short,0>
PUBLIC	??R<lambda_3>@?9??ui512_01_div_pt1@ui512_unit_tests_division@ui512_Unit_Tests@@AEAAXXZ@QEBA@XZ ; `ui512_Unit_Tests::ui512_unit_tests_division::ui512_01_div_pt1'::`10'::<lambda_3>::operator()
PUBLIC	??0<lambda_3>@?9??ui512_01_div_pt1@ui512_unit_tests_division@ui512_Unit_Tests@@AEAAXXZ@QEAA@AEAH0@Z ; `ui512_Unit_Tests::ui512_unit_tests_division::ui512_01_div_pt1'::`10'::<lambda_3>::<lambda_3>
PUBLIC	??R<lambda_4>@?9??ui512_01_div_pt1@ui512_unit_tests_division@ui512_Unit_Tests@@AEAAXXZ@QEBA@XZ ; `ui512_Unit_Tests::ui512_unit_tests_division::ui512_01_div_pt1'::`10'::<lambda_4>::operator()
PUBLIC	??0<lambda_4>@?9??ui512_01_div_pt1@ui512_unit_tests_division@ui512_Unit_Tests@@AEAAXXZ@QEAA@AEAH0@Z ; `ui512_Unit_Tests::ui512_unit_tests_division::ui512_01_div_pt1'::`10'::<lambda_4>::<lambda_4>
PUBLIC	??R<lambda_5>@?O@??ui512_01_div_pt1@ui512_unit_tests_division@ui512_Unit_Tests@@AEAAXXZ@QEBA@XZ ; `ui512_Unit_Tests::ui512_unit_tests_division::ui512_01_div_pt1'::`14'::<lambda_5>::operator()
PUBLIC	??0<lambda_5>@?O@??ui512_01_div_pt1@ui512_unit_tests_division@ui512_Unit_Tests@@AEAAXXZ@QEAA@AEAH0@Z ; `ui512_Unit_Tests::ui512_unit_tests_division::ui512_01_div_pt1'::`14'::<lambda_5>::<lambda_5>
PUBLIC	??R<lambda_6>@?O@??ui512_01_div_pt1@ui512_unit_tests_division@ui512_Unit_Tests@@AEAAXXZ@QEBA@XZ ; `ui512_Unit_Tests::ui512_unit_tests_division::ui512_01_div_pt1'::`14'::<lambda_6>::operator()
PUBLIC	??0<lambda_6>@?O@??ui512_01_div_pt1@ui512_unit_tests_division@ui512_Unit_Tests@@AEAAXXZ@QEAA@AEAH0@Z ; `ui512_Unit_Tests::ui512_unit_tests_division::ui512_01_div_pt1'::`14'::<lambda_6>::<lambda_6>
PUBLIC	??R<lambda_7>@?BC@??ui512_01_div_pt1@ui512_unit_tests_division@ui512_Unit_Tests@@AEAAXXZ@QEBA@XZ ; `ui512_Unit_Tests::ui512_unit_tests_division::ui512_01_div_pt1'::`18'::<lambda_7>::operator()
PUBLIC	??0<lambda_7>@?BC@??ui512_01_div_pt1@ui512_unit_tests_division@ui512_Unit_Tests@@AEAAXXZ@QEAA@AEAH0@Z ; `ui512_Unit_Tests::ui512_unit_tests_division::ui512_01_div_pt1'::`18'::<lambda_7>::<lambda_7>
PUBLIC	??R<lambda_8>@?BC@??ui512_01_div_pt1@ui512_unit_tests_division@ui512_Unit_Tests@@AEAAXXZ@QEBA@XZ ; `ui512_Unit_Tests::ui512_unit_tests_division::ui512_01_div_pt1'::`18'::<lambda_8>::operator()
PUBLIC	??0<lambda_8>@?BC@??ui512_01_div_pt1@ui512_unit_tests_division@ui512_Unit_Tests@@AEAAXXZ@QEAA@AEAH0@Z ; `ui512_Unit_Tests::ui512_unit_tests_division::ui512_01_div_pt1'::`18'::<lambda_8>::<lambda_8>
PUBLIC	??R<lambda_9>@?BG@??ui512_01_div_pt1@ui512_unit_tests_division@ui512_Unit_Tests@@AEAAXXZ@QEBA@XZ ; `ui512_Unit_Tests::ui512_unit_tests_division::ui512_01_div_pt1'::`22'::<lambda_9>::operator()
PUBLIC	??0<lambda_9>@?BG@??ui512_01_div_pt1@ui512_unit_tests_division@ui512_Unit_Tests@@AEAAXXZ@QEAA@AEAH0@Z ; `ui512_Unit_Tests::ui512_unit_tests_division::ui512_01_div_pt1'::`22'::<lambda_9>::<lambda_9>
PUBLIC	??R<lambda_10>@?BG@??ui512_01_div_pt1@ui512_unit_tests_division@ui512_Unit_Tests@@AEAAXXZ@QEBA@XZ ; `ui512_Unit_Tests::ui512_unit_tests_division::ui512_01_div_pt1'::`22'::<lambda_10>::operator()
PUBLIC	??0<lambda_10>@?BG@??ui512_01_div_pt1@ui512_unit_tests_division@ui512_Unit_Tests@@AEAAXXZ@QEAA@AEAH0@Z ; `ui512_Unit_Tests::ui512_unit_tests_division::ui512_01_div_pt1'::`22'::<lambda_10>::<lambda_10>
PUBLIC	??0?$basic_stringstream@DU?$char_traits@D@std@@V?$allocator@D@2@@std@@QEAA@XZ ; std::basic_stringstream<char,std::char_traits<char>,std::allocator<char> >::basic_stringstream<char,std::char_traits<char>,std::allocator<char> >
PUBLIC	??1?$basic_stringstream@DU?$char_traits@D@std@@V?$allocator@D@2@@std@@UEAA@XZ ; std::basic_stringstream<char,std::char_traits<char>,std::allocator<char> >::~basic_stringstream<char,std::char_traits<char>,std::allocator<char> >
PUBLIC	?str@?$basic_stringstream@DU?$char_traits@D@std@@V?$allocator@D@2@@std@@QEGBA?AV?$basic_string@DU?$char_traits@D@std@@V?$allocator@D@2@@2@XZ ; std::basic_stringstream<char,std::char_traits<char>,std::allocator<char> >::str
PUBLIC	?__autoclassinit2@?$basic_stringstream@DU?$char_traits@D@std@@V?$allocator@D@2@@std@@QEAAX_K@Z ; std::basic_stringstream<char,std::char_traits<char>,std::allocator<char> >::__autoclassinit2
PUBLIC	??_G?$basic_stringstream@DU?$char_traits@D@std@@V?$allocator@D@2@@std@@UEAAPEAXI@Z ; std::basic_stringstream<char,std::char_traits<char>,std::allocator<char> >::`scalar deleting destructor'
PUBLIC	??_D?$basic_stringstream@DU?$char_traits@D@std@@V?$allocator@D@2@@std@@QEAAXXZ ; std::basic_stringstream<char,std::char_traits<char>,std::allocator<char> >::`vbase destructor'
PUBLIC	??R<lambda_11>@?BH@??ui512_01_div_pt1@ui512_unit_tests_division@ui512_Unit_Tests@@AEAAXXZ@QEBA@XZ ; `ui512_Unit_Tests::ui512_unit_tests_division::ui512_01_div_pt1'::`23'::<lambda_11>::operator()
PUBLIC	??$?6U?$char_traits@D@std@@@std@@YAAEAV?$basic_ostream@DU?$char_traits@D@std@@@0@AEAV10@PEBD@Z ; std::operator<<<std::char_traits<char> >
PUBLIC	??R<lambda_1>@?3??ui512_01_div_pt2@ui512_unit_tests_division@ui512_Unit_Tests@@AEAAXXZ@QEBA@XZ ; `ui512_Unit_Tests::ui512_unit_tests_division::ui512_01_div_pt2'::`4'::<lambda_1>::operator()
PUBLIC	??0<lambda_1>@?3??ui512_01_div_pt2@ui512_unit_tests_division@ui512_Unit_Tests@@AEAAXXZ@QEAA@AEAH@Z ; `ui512_Unit_Tests::ui512_unit_tests_division::ui512_01_div_pt2'::`4'::<lambda_1>::<lambda_1>
PUBLIC	??R<lambda_2>@?4??ui512_01_div_pt2@ui512_unit_tests_division@ui512_Unit_Tests@@AEAAXXZ@QEBA@XZ ; `ui512_Unit_Tests::ui512_unit_tests_division::ui512_01_div_pt2'::`5'::<lambda_2>::operator()
PUBLIC	??R<lambda_1>@?N@??ui512_01_div_pt3@ui512_unit_tests_division@ui512_Unit_Tests@@AEAAXXZ@QEBA@XZ ; `ui512_Unit_Tests::ui512_unit_tests_division::ui512_01_div_pt3'::`13'::<lambda_1>::operator()
PUBLIC	??0<lambda_1>@?N@??ui512_01_div_pt3@ui512_unit_tests_division@ui512_Unit_Tests@@AEAAXXZ@QEAA@AEAH0@Z ; `ui512_Unit_Tests::ui512_unit_tests_division::ui512_01_div_pt3'::`13'::<lambda_1>::<lambda_1>
PUBLIC	??R<lambda_2>@?N@??ui512_01_div_pt3@ui512_unit_tests_division@ui512_Unit_Tests@@AEAAXXZ@QEBA@XZ ; `ui512_Unit_Tests::ui512_unit_tests_division::ui512_01_div_pt3'::`13'::<lambda_2>::operator()
PUBLIC	??0<lambda_2>@?N@??ui512_01_div_pt3@ui512_unit_tests_division@ui512_Unit_Tests@@AEAAXXZ@QEAA@AEAH@Z ; `ui512_Unit_Tests::ui512_unit_tests_division::ui512_01_div_pt3'::`13'::<lambda_2>::<lambda_2>
PUBLIC	??R<lambda_3>@?O@??ui512_01_div_pt3@ui512_unit_tests_division@ui512_Unit_Tests@@AEAAXXZ@QEBA@XZ ; `ui512_Unit_Tests::ui512_unit_tests_division::ui512_01_div_pt3'::`14'::<lambda_3>::operator()
PUBLIC	??R<lambda_1>@?N@??ui512_01_div_pt4@ui512_unit_tests_division@ui512_Unit_Tests@@AEAAXXZ@QEBA@XZ ; `ui512_Unit_Tests::ui512_unit_tests_division::ui512_01_div_pt4'::`13'::<lambda_1>::operator()
PUBLIC	??0<lambda_1>@?N@??ui512_01_div_pt4@ui512_unit_tests_division@ui512_Unit_Tests@@AEAAXXZ@QEAA@AEAHAEAG0@Z ; `ui512_Unit_Tests::ui512_unit_tests_division::ui512_01_div_pt4'::`13'::<lambda_1>::<lambda_1>
PUBLIC	??R<lambda_2>@?N@??ui512_01_div_pt4@ui512_unit_tests_division@ui512_Unit_Tests@@AEAAXXZ@QEBA@XZ ; `ui512_Unit_Tests::ui512_unit_tests_division::ui512_01_div_pt4'::`13'::<lambda_2>::operator()
PUBLIC	??0<lambda_2>@?N@??ui512_01_div_pt4@ui512_unit_tests_division@ui512_Unit_Tests@@AEAAXXZ@QEAA@AEAHAEAG0@Z ; `ui512_Unit_Tests::ui512_unit_tests_division::ui512_01_div_pt4'::`13'::<lambda_2>::<lambda_2>
PUBLIC	??R<lambda_3>@?O@??ui512_01_div_pt4@ui512_unit_tests_division@ui512_Unit_Tests@@AEAAXXZ@QEBA@XZ ; `ui512_Unit_Tests::ui512_unit_tests_division::ui512_01_div_pt4'::`14'::<lambda_3>::operator()
PUBLIC	??R<lambda_4>@?BJ@??ui512_01_div_pt4@ui512_unit_tests_division@ui512_Unit_Tests@@AEAAXXZ@QEBA@XZ ; `ui512_Unit_Tests::ui512_unit_tests_division::ui512_01_div_pt4'::`25'::<lambda_4>::operator()
PUBLIC	??R<lambda_1>@?5??ui512_02_div64@ui512_unit_tests_division@ui512_Unit_Tests@@AEAAXXZ@QEBA@XZ ; `ui512_Unit_Tests::ui512_unit_tests_division::ui512_02_div64'::`6'::<lambda_1>::operator()
PUBLIC	??0<lambda_1>@?5??ui512_02_div64@ui512_unit_tests_division@ui512_Unit_Tests@@AEAAXXZ@QEAA@AEAH0@Z ; `ui512_Unit_Tests::ui512_unit_tests_division::ui512_02_div64'::`6'::<lambda_1>::<lambda_1>
PUBLIC	??R<lambda_2>@?3??ui512_02_div64@ui512_unit_tests_division@ui512_Unit_Tests@@AEAAXXZ@QEBA@XZ ; `ui512_Unit_Tests::ui512_unit_tests_division::ui512_02_div64'::`4'::<lambda_2>::operator()
PUBLIC	??0<lambda_2>@?3??ui512_02_div64@ui512_unit_tests_division@ui512_Unit_Tests@@AEAAXXZ@QEAA@AEAH@Z ; `ui512_Unit_Tests::ui512_unit_tests_division::ui512_02_div64'::`4'::<lambda_2>::<lambda_2>
PUBLIC	??R<lambda_3>@?9??ui512_02_div64@ui512_unit_tests_division@ui512_Unit_Tests@@AEAAXXZ@QEBA@XZ ; `ui512_Unit_Tests::ui512_unit_tests_division::ui512_02_div64'::`10'::<lambda_3>::operator()
PUBLIC	??0<lambda_3>@?9??ui512_02_div64@ui512_unit_tests_division@ui512_Unit_Tests@@AEAAXXZ@QEAA@AEAH0@Z ; `ui512_Unit_Tests::ui512_unit_tests_division::ui512_02_div64'::`10'::<lambda_3>::<lambda_3>
PUBLIC	??R<lambda_4>@?7??ui512_02_div64@ui512_unit_tests_division@ui512_Unit_Tests@@AEAAXXZ@QEBA@XZ ; `ui512_Unit_Tests::ui512_unit_tests_division::ui512_02_div64'::`8'::<lambda_4>::operator()
PUBLIC	??0<lambda_4>@?7??ui512_02_div64@ui512_unit_tests_division@ui512_Unit_Tests@@AEAAXXZ@QEAA@AEAH@Z ; `ui512_Unit_Tests::ui512_unit_tests_division::ui512_02_div64'::`8'::<lambda_4>::<lambda_4>
PUBLIC	??R<lambda_5>@?O@??ui512_02_div64@ui512_unit_tests_division@ui512_Unit_Tests@@AEAAXXZ@QEBA@XZ ; `ui512_Unit_Tests::ui512_unit_tests_division::ui512_02_div64'::`14'::<lambda_5>::operator()
PUBLIC	??0<lambda_5>@?O@??ui512_02_div64@ui512_unit_tests_division@ui512_Unit_Tests@@AEAAXXZ@QEAA@AEAH0@Z ; `ui512_Unit_Tests::ui512_unit_tests_division::ui512_02_div64'::`14'::<lambda_5>::<lambda_5>
PUBLIC	??R<lambda_6>@?M@??ui512_02_div64@ui512_unit_tests_division@ui512_Unit_Tests@@AEAAXXZ@QEBA@XZ ; `ui512_Unit_Tests::ui512_unit_tests_division::ui512_02_div64'::`12'::<lambda_6>::operator()
PUBLIC	??0<lambda_6>@?M@??ui512_02_div64@ui512_unit_tests_division@ui512_Unit_Tests@@AEAAXXZ@QEAA@AEAH@Z ; `ui512_Unit_Tests::ui512_unit_tests_division::ui512_02_div64'::`12'::<lambda_6>::<lambda_6>
PUBLIC	??R<lambda_7>@?P@??ui512_02_div64@ui512_unit_tests_division@ui512_Unit_Tests@@AEAAXXZ@QEBA@XZ ; `ui512_Unit_Tests::ui512_unit_tests_division::ui512_02_div64'::`15'::<lambda_7>::operator()
PUBLIC	??R<lambda_8>@?BD@??ui512_02_div64@ui512_unit_tests_division@ui512_Unit_Tests@@AEAAXXZ@QEBA@XZ ; `ui512_Unit_Tests::ui512_unit_tests_division::ui512_02_div64'::`19'::<lambda_8>::operator()
PUBLIC	??0<lambda_8>@?BD@??ui512_02_div64@ui512_unit_tests_division@ui512_Unit_Tests@@AEAAXXZ@QEAA@AEAH0@Z ; `ui512_Unit_Tests::ui512_unit_tests_division::ui512_02_div64'::`19'::<lambda_8>::<lambda_8>
PUBLIC	??R<lambda_9>@?BB@??ui512_02_div64@ui512_unit_tests_division@ui512_Unit_Tests@@AEAAXXZ@QEBA@XZ ; `ui512_Unit_Tests::ui512_unit_tests_division::ui512_02_div64'::`17'::<lambda_9>::operator()
PUBLIC	??0<lambda_9>@?BB@??ui512_02_div64@ui512_unit_tests_division@ui512_Unit_Tests@@AEAAXXZ@QEAA@AEAH@Z ; `ui512_Unit_Tests::ui512_unit_tests_division::ui512_02_div64'::`17'::<lambda_9>::<lambda_9>
PUBLIC	??R<lambda_10>@?BE@??ui512_02_div64@ui512_unit_tests_division@ui512_Unit_Tests@@AEAAXXZ@QEBA@XZ ; `ui512_Unit_Tests::ui512_unit_tests_division::ui512_02_div64'::`20'::<lambda_10>::operator()
PUBLIC	??R<lambda_11>@?BK@??ui512_02_div64@ui512_unit_tests_division@ui512_Unit_Tests@@AEAAXXZ@QEBA@XZ ; `ui512_Unit_Tests::ui512_unit_tests_division::ui512_02_div64'::`26'::<lambda_11>::operator()
PUBLIC	??0<lambda_11>@?BK@??ui512_02_div64@ui512_unit_tests_division@ui512_Unit_Tests@@AEAAXXZ@QEAA@AEAHAEAG0@Z ; `ui512_Unit_Tests::ui512_unit_tests_division::ui512_02_div64'::`26'::<lambda_11>::<lambda_11>
PUBLIC	??R<lambda_12>@?BI@??ui512_02_div64@ui512_unit_tests_division@ui512_Unit_Tests@@AEAAXXZ@QEBA@XZ ; `ui512_Unit_Tests::ui512_unit_tests_division::ui512_02_div64'::`24'::<lambda_12>::operator()
PUBLIC	??0<lambda_12>@?BI@??ui512_02_div64@ui512_unit_tests_division@ui512_Unit_Tests@@AEAAXXZ@QEAA@AEAGAEAH@Z ; `ui512_Unit_Tests::ui512_unit_tests_division::ui512_02_div64'::`24'::<lambda_12>::<lambda_12>
PUBLIC	??R<lambda_13>@?BL@??ui512_02_div64@ui512_unit_tests_division@ui512_Unit_Tests@@AEAAXXZ@QEBA@XZ ; `ui512_Unit_Tests::ui512_unit_tests_division::ui512_02_div64'::`27'::<lambda_13>::operator()
PUBLIC	??0?$_String_const_iterator@V?$_String_val@U?$_Simple_types@D@std@@@std@@@std@@QEAA@PEBDPEBU_Container_base12@1@@Z ; std::_String_const_iterator<std::_String_val<std::_Simple_types<char> > >::_String_const_iterator<std::_String_val<std::_Simple_types<char> > >
PUBLIC	?_Verify_offset@?$_String_const_iterator@V?$_String_val@U?$_Simple_types@D@std@@@std@@@std@@QEBAX_J@Z ; std::_String_const_iterator<std::_String_val<std::_Simple_types<char> > >::_Verify_offset
PUBLIC	??Y?$_String_const_iterator@V?$_String_val@U?$_Simple_types@D@std@@@std@@@std@@QEAAAEAV01@_J@Z ; std::_String_const_iterator<std::_String_val<std::_Simple_types<char> > >::operator+=
PUBLIC	??1?$_String_const_iterator@V?$_String_val@U?$_Simple_types@D@std@@@std@@@std@@QEAA@XZ ; std::_String_const_iterator<std::_String_val<std::_Simple_types<char> > >::~_String_const_iterator<std::_String_val<std::_Simple_types<char> > >
PUBLIC	??0?$_String_const_iterator@V?$_String_val@U?$_Simple_types@D@std@@@std@@@std@@QEAA@AEBV01@@Z ; std::_String_const_iterator<std::_String_val<std::_Simple_types<char> > >::_String_const_iterator<std::_String_val<std::_Simple_types<char> > >
PUBLIC	??0?$_String_const_iterator@V?$_String_val@U?$_Simple_types@D@std@@@std@@@std@@QEAA@$$QEAV01@@Z ; std::_String_const_iterator<std::_String_val<std::_Simple_types<char> > >::_String_const_iterator<std::_String_val<std::_Simple_types<char> > >
PUBLIC	??Y?$_String_iterator@V?$_String_val@U?$_Simple_types@D@std@@@std@@@std@@QEAAAEAV01@_J@Z ; std::_String_iterator<std::_String_val<std::_Simple_types<char> > >::operator+=
PUBLIC	??H?$_String_iterator@V?$_String_val@U?$_Simple_types@D@std@@@std@@@std@@QEBA?AV01@_J@Z ; std::_String_iterator<std::_String_val<std::_Simple_types<char> > >::operator+
PUBLIC	??1?$_String_iterator@V?$_String_val@U?$_Simple_types@D@std@@@std@@@std@@QEAA@XZ ; std::_String_iterator<std::_String_val<std::_Simple_types<char> > >::~_String_iterator<std::_String_val<std::_Simple_types<char> > >
PUBLIC	??0?$_String_iterator@V?$_String_val@U?$_Simple_types@D@std@@@std@@@std@@QEAA@AEBV01@@Z ; std::_String_iterator<std::_String_val<std::_Simple_types<char> > >::_String_iterator<std::_String_val<std::_Simple_types<char> > >
PUBLIC	?__autoclassinit2@?$_String_iterator@V?$_String_val@U?$_Simple_types@D@std@@@std@@@std@@QEAAX_K@Z ; std::_String_iterator<std::_String_val<std::_Simple_types<char> > >::__autoclassinit2
PUBLIC	??0?$_String_iterator@V?$_String_val@U?$_Simple_types@D@std@@@std@@@std@@QEAA@PEBDPEBU_Container_base12@1@@Z ; std::_String_iterator<std::_String_val<std::_Simple_types<char> > >::_String_iterator<std::_String_val<std::_Simple_types<char> > >
PUBLIC	??$AreEqual@V?$basic_string@DU?$char_traits@D@std@@V?$allocator@D@2@@std@@$0A@@Assert@CppUnitTestFramework@VisualStudio@Microsoft@@SAXAEBV?$basic_string@DU?$char_traits@D@std@@V?$allocator@D@2@@std@@0PEB_WPEBU__LineInfo@123@@Z ; Microsoft::VisualStudio::CppUnitTestFramework::Assert::AreEqual<std::basic_string<char,std::char_traits<char>,std::allocator<char> >,0>
PUBLIC	??A?$vector@Uperf_stats@ui512_Unit_Tests@@V?$allocator@Uperf_stats@ui512_Unit_Tests@@@std@@@std@@QEAAAEAUperf_stats@ui512_Unit_Tests@@_K@Z ; std::vector<ui512_Unit_Tests::perf_stats,std::allocator<ui512_Unit_Tests::perf_stats> >::operator[]
PUBLIC	??$_Get_index@$0A@@id@locale@std@@QEAA_KXZ	; std::locale::id::_Get_index<0>
PUBLIC	??R?$default_delete@V_Facet_base@std@@@std@@QEBAXPEAV_Facet_base@1@@Z ; std::default_delete<std::_Facet_base>::operator()
PUBLIC	??1?$unique_ptr@V_Facet_base@std@@U?$default_delete@V_Facet_base@std@@@2@@std@@QEAA@XZ ; std::unique_ptr<std::_Facet_base,std::default_delete<std::_Facet_base> >::~unique_ptr<std::_Facet_base,std::default_delete<std::_Facet_base> >
PUBLIC	?release@?$unique_ptr@V_Facet_base@std@@U?$default_delete@V_Facet_base@std@@@2@@std@@QEAAPEAV_Facet_base@2@XZ ; std::unique_ptr<std::_Facet_base,std::default_delete<std::_Facet_base> >::release
PUBLIC	?_Get_first@?$_Compressed_pair@U?$default_delete@V_Facet_base@std@@@std@@PEAV_Facet_base@2@$00@std@@QEAAAEAU?$default_delete@V_Facet_base@std@@@2@XZ ; std::_Compressed_pair<std::default_delete<std::_Facet_base>,std::_Facet_base *,1>::_Get_first
PUBLIC	?__autoclassinit2@?$unique_ptr@V_Facet_base@std@@U?$default_delete@V_Facet_base@std@@@2@@std@@QEAAX_K@Z ; std::unique_ptr<std::_Facet_base,std::default_delete<std::_Facet_base> >::__autoclassinit2
PUBLIC	??$?0U?$default_delete@V_Facet_base@std@@@std@@$0A@@?$unique_ptr@V_Facet_base@std@@U?$default_delete@V_Facet_base@std@@@2@@std@@QEAA@PEAV_Facet_base@1@@Z ; std::unique_ptr<std::_Facet_base,std::default_delete<std::_Facet_base> >::unique_ptr<std::_Facet_base,std::default_delete<std::_Facet_base> ><std::default_delete<std::_Facet_base>,0>
PUBLIC	??0_Sentry_base@?$basic_ostream@_WU?$char_traits@_W@std@@@std@@QEAA@AEAV12@@Z ; std::basic_ostream<wchar_t,std::char_traits<wchar_t> >::_Sentry_base::_Sentry_base
PUBLIC	??1_Sentry_base@?$basic_ostream@_WU?$char_traits@_W@std@@@std@@QEAA@XZ ; std::basic_ostream<wchar_t,std::char_traits<wchar_t> >::_Sentry_base::~_Sentry_base
PUBLIC	??0sentry@?$basic_ostream@_WU?$char_traits@_W@std@@@std@@QEAA@AEAV12@@Z ; std::basic_ostream<wchar_t,std::char_traits<wchar_t> >::sentry::sentry
PUBLIC	??1sentry@?$basic_ostream@_WU?$char_traits@_W@std@@@std@@QEAA@XZ ; std::basic_ostream<wchar_t,std::char_traits<wchar_t> >::sentry::~sentry
PUBLIC	??Bsentry@?$basic_ostream@_WU?$char_traits@_W@std@@@std@@QEBA_NXZ ; std::basic_ostream<wchar_t,std::char_traits<wchar_t> >::sentry::operator bool
PUBLIC	??$use_facet@V?$ctype@_W@std@@@std@@YAAEBV?$ctype@_W@0@AEBVlocale@0@@Z ; std::use_facet<std::ctype<wchar_t> >
PUBLIC	??$?0AEBV?$allocator@_W@std@@$$V@?$_Compressed_pair@V?$allocator@_W@std@@V?$_String_val@U?$_Simple_types@_W@std@@@2@$00@std@@QEAA@U_One_then_variadic_args_t@1@AEBV?$allocator@_W@1@@Z ; std::_Compressed_pair<std::allocator<wchar_t>,std::_String_val<std::_Simple_types<wchar_t> >,1>::_Compressed_pair<std::allocator<wchar_t>,std::_String_val<std::_Simple_types<wchar_t> >,1><std::allocator<wchar_t> const &>
PUBLIC	??$_Convert_size@_K_K@std@@YA_K_K@Z		; std::_Convert_size<unsigned __int64,unsigned __int64>
PUBLIC	??$_Construct@$00PEB_W@?$basic_string@_WU?$char_traits@_W@std@@V?$allocator@_W@2@@std@@AEAAXQEB_W_K@Z ; std::basic_string<wchar_t,std::char_traits<wchar_t>,std::allocator<wchar_t> >::_Construct<1,wchar_t const *>
PUBLIC	??$?0AEBV?$allocator@D@std@@$$V@?$_Compressed_pair@V?$allocator@D@std@@V?$_String_val@U?$_Simple_types@D@std@@@2@$00@std@@QEAA@U_One_then_variadic_args_t@1@AEBV?$allocator@D@1@@Z ; std::_Compressed_pair<std::allocator<char>,std::_String_val<std::_Simple_types<char> >,1>::_Compressed_pair<std::allocator<char>,std::_String_val<std::_Simple_types<char> >,1><std::allocator<char> const &>
PUBLIC	??$_Construct@$00PEBD@?$basic_string@DU?$char_traits@D@std@@V?$allocator@D@2@@std@@AEAAXQEBD_K@Z ; std::basic_string<char,std::char_traits<char>,std::allocator<char> >::_Construct<1,char const *>
PUBLIC	??0_Sentry_base@?$basic_ostream@DU?$char_traits@D@std@@@std@@QEAA@AEAV12@@Z ; std::basic_ostream<char,std::char_traits<char> >::_Sentry_base::_Sentry_base
PUBLIC	??1_Sentry_base@?$basic_ostream@DU?$char_traits@D@std@@@std@@QEAA@XZ ; std::basic_ostream<char,std::char_traits<char> >::_Sentry_base::~_Sentry_base
PUBLIC	??0sentry@?$basic_ostream@DU?$char_traits@D@std@@@std@@QEAA@AEAV12@@Z ; std::basic_ostream<char,std::char_traits<char> >::sentry::sentry
PUBLIC	??1sentry@?$basic_ostream@DU?$char_traits@D@std@@@std@@QEAA@XZ ; std::basic_ostream<char,std::char_traits<char> >::sentry::~sentry
PUBLIC	??Bsentry@?$basic_ostream@DU?$char_traits@D@std@@@std@@QEBA_NXZ ; std::basic_ostream<char,std::char_traits<char> >::sentry::operator bool
PUBLIC	??$?8DU?$char_traits@D@std@@V?$allocator@D@1@@std@@YA_NAEBV?$basic_string@DU?$char_traits@D@std@@V?$allocator@D@2@@0@0@Z ; std::operator==<char,std::char_traits<char>,std::allocator<char> >
PUBLIC	?deallocate@?$allocator@U_Container_proxy@std@@@std@@QEAAXQEAU_Container_proxy@2@_K@Z ; std::allocator<std::_Container_proxy>::deallocate
PUBLIC	?allocate@?$allocator@U_Container_proxy@std@@@std@@QEAAPEAU_Container_proxy@2@_K@Z ; std::allocator<std::_Container_proxy>::allocate
PUBLIC	??$_Delete_plain_internal@V?$allocator@U_Container_proxy@std@@@std@@@std@@YAXAEAV?$allocator@U_Container_proxy@std@@@0@QEAU_Container_proxy@0@@Z ; std::_Delete_plain_internal<std::allocator<std::_Container_proxy> >
PUBLIC	??$_Alloc_proxy@V?$allocator@U_Container_proxy@std@@@std@@@_Container_base12@std@@QEAAX$$QEAV?$allocator@U_Container_proxy@std@@@1@@Z ; std::_Container_base12::_Alloc_proxy<std::allocator<std::_Container_proxy> >
PUBLIC	??$_Get_proxy_allocator@V?$allocator@_W@std@@@std@@YA?AV?$allocator@U_Container_proxy@std@@@0@AEBV?$allocator@_W@0@@Z ; std::_Get_proxy_allocator<std::allocator<wchar_t> >
PUBLIC	??$?0_W@?$allocator@U_Container_proxy@std@@@std@@QEAA@AEBV?$allocator@_W@1@@Z ; std::allocator<std::_Container_proxy>::allocator<std::_Container_proxy><wchar_t>
PUBLIC	??$?0$$V@?$_Compressed_pair@V?$allocator@_W@std@@V?$_String_val@U?$_Simple_types@_W@std@@@2@$00@std@@QEAA@U_Zero_then_variadic_args_t@1@@Z ; std::_Compressed_pair<std::allocator<wchar_t>,std::_String_val<std::_Simple_types<wchar_t> >,1>::_Compressed_pair<std::allocator<wchar_t>,std::_String_val<std::_Simple_types<wchar_t> >,1><>
PUBLIC	??$_Refancy@PEAD$0A@@std@@YAPEADPEAD@Z		; std::_Refancy<char *,0>
PUBLIC	?pointer_to@?$pointer_traits@PEAD@std@@SAPEADAEAD@Z ; std::pointer_traits<char *>::pointer_to
PUBLIC	??$addressof@V?$_String_val@U?$_Simple_types@D@std@@@std@@@std@@YAPEAV?$_String_val@U?$_Simple_types@D@std@@@0@AEAV10@@Z ; std::addressof<std::_String_val<std::_Simple_types<char> > >
PUBLIC	??$_Unfancy@$$CBD@std@@YAPEBDPEBD@Z		; std::_Unfancy<char const >
PUBLIC	??$_Get_proxy_allocator@V?$allocator@D@std@@@std@@YA?AV?$allocator@U_Container_proxy@std@@@0@AEBV?$allocator@D@0@@Z ; std::_Get_proxy_allocator<std::allocator<char> >
PUBLIC	??$?0D@?$allocator@U_Container_proxy@std@@@std@@QEAA@AEBV?$allocator@D@1@@Z ; std::allocator<std::_Container_proxy>::allocator<std::_Container_proxy><char>
PUBLIC	??$?0$$V@?$_Compressed_pair@V?$allocator@D@std@@V?$_String_val@U?$_Simple_types@D@std@@@2@$00@std@@QEAA@U_Zero_then_variadic_args_t@1@@Z ; std::_Compressed_pair<std::allocator<char>,std::_String_val<std::_Simple_types<char> >,1>::_Compressed_pair<std::allocator<char>,std::_String_val<std::_Simple_types<char> >,1><>
PUBLIC	??$addressof@V?$basic_stringbuf@_WU?$char_traits@_W@std@@V?$allocator@_W@2@@std@@@std@@YAPEAV?$basic_stringbuf@_WU?$char_traits@_W@std@@V?$allocator@_W@2@@0@AEAV10@@Z ; std::addressof<std::basic_stringbuf<wchar_t,std::char_traits<wchar_t>,std::allocator<wchar_t> > >
PUBLIC	??0?$fpos@U_Mbstatet@@@std@@QEAA@_J@Z		; std::fpos<_Mbstatet>::fpos<_Mbstatet>
PUBLIC	??B?$fpos@U_Mbstatet@@@std@@QEBA_JXZ		; std::fpos<_Mbstatet>::operator __int64
PUBLIC	??$max@PEA_W@std@@YAAEBQEA_WAEBQEA_W0@Z		; std::max<wchar_t *>
PUBLIC	??$_Allocate_at_least_helper@V?$allocator@_W@std@@@std@@YAPEA_WAEAV?$allocator@_W@0@AEA_K@Z ; std::_Allocate_at_least_helper<std::allocator<wchar_t> >
PUBLIC	??$_Unfancy@_W@std@@YAPEA_WPEA_W@Z		; std::_Unfancy<wchar_t>
PUBLIC	?pointer_to@?$pointer_traits@PEA_W@std@@SAPEA_WAEA_W@Z ; std::pointer_traits<wchar_t *>::pointer_to
PUBLIC	??$addressof@V?$basic_stringbuf@DU?$char_traits@D@std@@V?$allocator@D@2@@std@@@std@@YAPEAV?$basic_stringbuf@DU?$char_traits@D@std@@V?$allocator@D@2@@0@AEAV10@@Z ; std::addressof<std::basic_stringbuf<char,std::char_traits<char>,std::allocator<char> > >
PUBLIC	??$max@PEAD@std@@YAAEBQEADAEBQEAD0@Z		; std::max<char *>
PUBLIC	??$_Allocate_at_least_helper@V?$allocator@D@std@@@std@@YAPEADAEAV?$allocator@D@0@AEA_K@Z ; std::_Allocate_at_least_helper<std::allocator<char> >
PUBLIC	??$_Unfancy@D@std@@YAPEADPEAD@Z			; std::_Unfancy<char>
PUBLIC	??$?0AEAPEAV_Facet_base@std@@@?$_Compressed_pair@U?$default_delete@V_Facet_base@std@@@std@@PEAV_Facet_base@2@$00@std@@QEAA@U_Zero_then_variadic_args_t@1@AEAPEAV_Facet_base@1@@Z ; std::_Compressed_pair<std::default_delete<std::_Facet_base>,std::_Facet_base *,1>::_Compressed_pair<std::default_delete<std::_Facet_base>,std::_Facet_base *,1><std::_Facet_base * &>
PUBLIC	??0?$_Container_proxy_ptr12@V?$allocator@U_Container_proxy@std@@@std@@@std@@QEAA@AEAV?$allocator@U_Container_proxy@std@@@1@AEAU_Container_base12@1@@Z ; std::_Container_proxy_ptr12<std::allocator<std::_Container_proxy> >::_Container_proxy_ptr12<std::allocator<std::_Container_proxy> >
PUBLIC	??1?$_Container_proxy_ptr12@V?$allocator@U_Container_proxy@std@@@std@@@std@@QEAA@XZ ; std::_Container_proxy_ptr12<std::allocator<std::_Container_proxy> >::~_Container_proxy_ptr12<std::allocator<std::_Container_proxy> >
PUBLIC	??$_Traits_copy_batch@U?$char_traits@_W@std@@_W@std@@YAXQEA_WQEB_W_K@Z ; std::_Traits_copy_batch<std::char_traits<wchar_t>,wchar_t>
PUBLIC	??$_Allocate_for_capacity@$0A@@?$basic_string@_WU?$char_traits@_W@std@@V?$allocator@_W@2@@std@@CAPEA_WAEAV?$allocator@_W@1@AEA_K@Z ; std::basic_string<wchar_t,std::char_traits<wchar_t>,std::allocator<wchar_t> >::_Allocate_for_capacity<0>
PUBLIC	??$construct_at@_W$$V@std@@YAPEA_WQEA_W@Z	; std::construct_at<wchar_t>
PUBLIC	??$_Construct_in_place@PEA_WAEBQEA_W@std@@YAXAEAPEA_WAEBQEA_W@Z ; std::_Construct_in_place<wchar_t *,wchar_t * const &>
PUBLIC	??$_Traits_copy_batch@U?$char_traits@D@std@@D@std@@YAXQEADQEBD_K@Z ; std::_Traits_copy_batch<std::char_traits<char>,char>
PUBLIC	??$_Allocate_for_capacity@$0A@@?$basic_string@DU?$char_traits@D@std@@V?$allocator@D@2@@std@@CAPEADAEAV?$allocator@D@1@AEA_K@Z ; std::basic_string<char,std::char_traits<char>,std::allocator<char> >::_Allocate_for_capacity<0>
PUBLIC	??$construct_at@D$$V@std@@YAPEADQEAD@Z		; std::construct_at<char>
PUBLIC	??$_Construct_in_place@PEADAEBQEAD@std@@YAXAEAPEADAEBQEAD@Z ; std::_Construct_in_place<char *,char * const &>
PUBLIC	??$_Deallocate_plain@V?$allocator@U_Container_proxy@std@@@std@@@std@@YAXAEAV?$allocator@U_Container_proxy@std@@@0@QEAU_Container_proxy@0@@Z ; std::_Deallocate_plain<std::allocator<std::_Container_proxy> >
PUBLIC	??$_Unfancy@U_Container_proxy@std@@@std@@YAPEAU_Container_proxy@0@PEAU10@@Z ; std::_Unfancy<std::_Container_proxy>
PUBLIC	??$_Traits_move_batch@U?$char_traits@D@std@@D@std@@YAXQEADQEBD_K@Z ; std::_Traits_move_batch<std::char_traits<char>,char>
PUBLIC	??$addressof@D@std@@YAPEADAEAD@Z		; std::addressof<char>
PUBLIC	??$addressof@_W@std@@YAPEA_WAEA_W@Z		; std::addressof<wchar_t>
PUBLIC	??$addressof@V?$basic_ostream@_WU?$char_traits@_W@std@@@std@@@std@@YAPEAV?$basic_ostream@_WU?$char_traits@_W@std@@@0@AEAV10@@Z ; std::addressof<std::basic_ostream<wchar_t,std::char_traits<wchar_t> > >
PUBLIC	??$addressof@V?$basic_ostream@DU?$char_traits@D@std@@@std@@@std@@YAPEAV?$basic_ostream@DU?$char_traits@D@std@@@0@AEAV10@@Z ; std::addressof<std::basic_ostream<char,std::char_traits<char> > >
PUBLIC	??$exchange@PEAV_Facet_base@std@@$$T@std@@YAPEAV_Facet_base@0@AEAPEAV10@$$QEA$$T@Z ; std::exchange<std::_Facet_base *,std::nullptr_t>
PUBLIC	??R<lambda_1>@?1??insert@?$basic_string@DU?$char_traits@D@std@@V?$allocator@D@2@@std@@QEAAAEAV23@_K0D@Z@SA@QEADQEBD000D@Z ; `std::basic_string<char,std::char_traits<char>,std::allocator<char> >::insert'::`2'::<lambda_1>::operator()
PUBLIC	??$_Reallocate_grow_by@V<lambda_1>@?1??insert@?$basic_string@DU?$char_traits@D@std@@V?$allocator@D@2@@std@@QEAAAEAV34@_K0D@Z@_K_KD@?$basic_string@DU?$char_traits@D@std@@V?$allocator@D@2@@std@@AEAAAEAV01@_KV<lambda_1>@?1??insert@01@QEAAAEAV01@00D@Z@_K2D@Z ; std::basic_string<char,std::char_traits<char>,std::allocator<char> >::_Reallocate_grow_by<`std::basic_string<char,std::char_traits<char>,std::allocator<char> >::insert'::`2'::<lambda_1>,unsigned __int64,unsigned __int64,char>
PUBLIC	??$_Traits_equal@U?$char_traits@D@std@@@std@@YA_NQEBD_K01@Z ; std::_Traits_equal<std::char_traits<char> >
PUBLIC	??$_Get_size_of_n@$01@std@@YA_K_K@Z		; std::_Get_size_of_n<2>
PUBLIC	??$_Allocate@$0BA@U_Default_allocate_traits@std@@@std@@YAPEAX_K@Z ; std::_Allocate<16,std::_Default_allocate_traits>
PUBLIC	??$_Deallocate@$0BA@@std@@YAXPEAX_K@Z		; std::_Deallocate<16>
PUBLIC	??$_Get_size_of_n@$00@std@@YA_K_K@Z		; std::_Get_size_of_n<1>
PUBLIC	??$addressof@U_Container_proxy@std@@@std@@YAPEAU_Container_proxy@0@AEAU10@@Z ; std::addressof<std::_Container_proxy>
PUBLIC	??$construct_at@U_Container_proxy@std@@PEAU_Container_base12@2@@std@@YAPEAU_Container_proxy@0@QEAU10@$$QEAPEAU_Container_base12@0@@Z ; std::construct_at<std::_Container_proxy,std::_Container_base12 *>
PUBLIC	??$addressof@PEA_W@std@@YAPEAPEA_WAEAPEA_W@Z	; std::addressof<wchar_t *>
PUBLIC	??$construct_at@PEA_WAEBQEA_W@std@@YAPEAPEA_WQEAPEA_WAEBQEA_W@Z ; std::construct_at<wchar_t *,wchar_t * const &>
PUBLIC	??$addressof@PEAD@std@@YAPEAPEADAEAPEAD@Z	; std::addressof<char *>
PUBLIC	??$construct_at@PEADAEBQEAD@std@@YAPEAPEADQEAPEADAEBQEAD@Z ; std::construct_at<char *,char * const &>
PUBLIC	?deallocate@?$_Default_allocator_traits@V?$allocator@U_Container_proxy@std@@@std@@@std@@SAXAEAV?$allocator@U_Container_proxy@std@@@2@QEAU_Container_proxy@2@_K@Z ; std::_Default_allocator_traits<std::allocator<std::_Container_proxy> >::deallocate
PUBLIC	??$_Allocate_manually_vector_aligned@U_Default_allocate_traits@std@@@std@@YAPEAX_K@Z ; std::_Allocate_manually_vector_aligned<std::_Default_allocate_traits>
PUBLIC	??$_Get_size_of_n@$0BA@@std@@YA_K_K@Z		; std::_Get_size_of_n<16>
PUBLIC	??$_Destroy_in_place@PEA_W@std@@YAXAEAPEA_W@Z	; std::_Destroy_in_place<wchar_t *>
PUBLIC	??$_Destroy_in_place@PEAD@std@@YAXAEAPEAD@Z	; std::_Destroy_in_place<char *>
PUBLIC	??$_Assign@_W@?$basic_string@_WU?$char_traits@_W@std@@V?$allocator@_W@2@@std@@AEAAAEAV01@QEB_W_K@Z ; std::basic_string<wchar_t,std::char_traits<wchar_t>,std::allocator<wchar_t> >::_Assign<wchar_t>
PUBLIC	??$_Assign@D@?$basic_string@DU?$char_traits@D@std@@V?$allocator@D@2@@std@@AEAAAEAV01@QEBD_K@Z ; std::basic_string<char,std::char_traits<char>,std::allocator<char> >::_Assign<char>
PUBLIC	??$_Traits_move_batch@U?$char_traits@_W@std@@_W@std@@YAXQEA_WQEB_W_K@Z ; std::_Traits_move_batch<std::char_traits<wchar_t>,wchar_t>
PUBLIC	??R<lambda_1>@?1???$_Assign@_W@?$basic_string@_WU?$char_traits@_W@std@@V?$allocator@_W@2@@std@@AEAAAEAV12@QEB_W_K@Z@SA@QEA_W10@Z ; `std::basic_string<wchar_t,std::char_traits<wchar_t>,std::allocator<wchar_t> >::_Assign<wchar_t>'::`2'::<lambda_1>::operator()
PUBLIC	??$_Reallocate_for@V<lambda_1>@?1???$_Assign@_W@?$basic_string@_WU?$char_traits@_W@std@@V?$allocator@_W@2@@std@@AEAAAEAV23@QEB_W_K@Z@PEB_W@?$basic_string@_WU?$char_traits@_W@std@@V?$allocator@_W@2@@std@@AEAAAEAV01@_KV<lambda_1>@?1???$_Assign@_W@01@AEAAAEAV01@QEB_W0@Z@PEB_W@Z ; std::basic_string<wchar_t,std::char_traits<wchar_t>,std::allocator<wchar_t> >::_Reallocate_for<`std::basic_string<wchar_t,std::char_traits<wchar_t>,std::allocator<wchar_t> >::_Assign<wchar_t>'::`2'::<lambda_1>,wchar_t const *>
PUBLIC	??R<lambda_1>@?1???$_Assign@D@?$basic_string@DU?$char_traits@D@std@@V?$allocator@D@2@@std@@AEAAAEAV12@QEBD_K@Z@SA@QEAD10@Z ; `std::basic_string<char,std::char_traits<char>,std::allocator<char> >::_Assign<char>'::`2'::<lambda_1>::operator()
PUBLIC	??$_Reallocate_for@V<lambda_1>@?1???$_Assign@D@?$basic_string@DU?$char_traits@D@std@@V?$allocator@D@2@@std@@AEAAAEAV23@QEBD_K@Z@PEBD@?$basic_string@DU?$char_traits@D@std@@V?$allocator@D@2@@std@@AEAAAEAV01@_KV<lambda_1>@?1???$_Assign@D@01@AEAAAEAV01@QEBD0@Z@PEBD@Z ; std::basic_string<char,std::char_traits<char>,std::allocator<char> >::_Reallocate_for<`std::basic_string<char,std::char_traits<char>,std::allocator<char> >::_Assign<char>'::`2'::<lambda_1>,char const *>
PUBLIC	??_E?$basic_stringstream@DU?$char_traits@D@std@@V?$allocator@D@2@@std@@$4PPPPPPPM@A@EAAPEAXI@Z ; std::basic_stringstream<char,std::char_traits<char>,std::allocator<char> >::`vector deleting destructor'
PUBLIC	??_E?$basic_stringstream@_WU?$char_traits@_W@std@@V?$allocator@_W@2@@std@@$4PPPPPPPM@A@EAAPEAXI@Z ; std::basic_stringstream<wchar_t,std::char_traits<wchar_t>,std::allocator<wchar_t> >::`vector deleting destructor'
PUBLIC	__JustMyCode_Default
PUBLIC	??_7exception@std@@6B@				; std::exception::`vftable'
PUBLIC	??_C@_0BC@EOODALEL@Unknown?5exception@		; `string'
PUBLIC	??_7bad_alloc@std@@6B@				; std::bad_alloc::`vftable'
PUBLIC	??_7bad_array_new_length@std@@6B@		; std::bad_array_new_length::`vftable'
PUBLIC	??_C@_0BF@KINCDENJ@bad?5array?5new?5length@	; `string'
PUBLIC	??_R0?AVexception@std@@@8			; std::exception `RTTI Type Descriptor'
PUBLIC	_CT??_R0?AVexception@std@@@8??0exception@std@@QEAA@AEBV01@@Z24
PUBLIC	_TI3?AVbad_array_new_length@std@@
PUBLIC	_CTA3?AVbad_array_new_length@std@@
PUBLIC	??_R0?AVbad_array_new_length@std@@@8		; std::bad_array_new_length `RTTI Type Descriptor'
PUBLIC	_CT??_R0?AVbad_array_new_length@std@@@8??0bad_array_new_length@std@@QEAA@AEBV01@@Z24
PUBLIC	??_R0?AVbad_alloc@std@@@8			; std::bad_alloc `RTTI Type Descriptor'
PUBLIC	_CT??_R0?AVbad_alloc@std@@@8??0bad_alloc@std@@QEAA@AEBV01@@Z24
PUBLIC	?__LINE__Var@?0??_Adjust_manually_vector_aligned@std@@YAXAEAPEAXAEA_K@Z@4JA ; `std::_Adjust_manually_vector_aligned'::`1'::__LINE__Var
PUBLIC	??_C@_0BB@FCMFBGOM@invalid?5argument@		; `string'
PUBLIC	??_C@_02DKCKIIND@?$CFs@				; `string'
PUBLIC	??_C@_0GA@HFAKHCPJ@C?3?2Program?5Files?2Microsoft?5Visu@ ; `string'
PUBLIC	??_C@_0BJ@LFDBABJJ@ITERATOR?5LIST?5CORRUPTED?$CB@ ; `string'
PUBLIC	??_C@_0BA@JFNIOLAK@string?5too?5long@		; `string'
PUBLIC	??_7bad_cast@std@@6B@				; std::bad_cast::`vftable'
PUBLIC	??_C@_08EPJLHIJG@bad?5cast@			; `string'
PUBLIC	_TI2?AVbad_cast@std@@
PUBLIC	_CTA2?AVbad_cast@std@@
PUBLIC	??_R0?AVbad_cast@std@@@8			; std::bad_cast `RTTI Type Descriptor'
PUBLIC	_CT??_R0?AVbad_cast@std@@@8??0bad_cast@std@@QEAA@AEBV01@@Z24
PUBLIC	??_C@_00CNPNBAHC@@				; `string'
PUBLIC	?__LINE__Var@?0??_Maklocwcs@std@@YAPEA_WPEB_W@Z@4JA ; `std::_Maklocwcs'::`1'::__LINE__Var
PUBLIC	??_C@_0GA@FOILECPP@C?3?2Program?5Files?2Microsoft?5Visu@ ; `string'
PUBLIC	??_7?$basic_stringbuf@_WU?$char_traits@_W@std@@V?$allocator@_W@2@@std@@6B@ ; std::basic_stringbuf<wchar_t,std::char_traits<wchar_t>,std::allocator<wchar_t> >::`vftable'
PUBLIC	??_7?$basic_stringstream@_WU?$char_traits@_W@std@@V?$allocator@_W@2@@std@@6B@ ; std::basic_stringstream<wchar_t,std::char_traits<wchar_t>,std::allocator<wchar_t> >::`vftable'
PUBLIC	??_8?$basic_stringstream@_WU?$char_traits@_W@std@@V?$allocator@_W@2@@std@@7B?$basic_istream@_WU?$char_traits@_W@std@@@1@@ ; std::basic_stringstream<wchar_t,std::char_traits<wchar_t>,std::allocator<wchar_t> >::`vbtable'
PUBLIC	??_8?$basic_stringstream@_WU?$char_traits@_W@std@@V?$allocator@_W@2@@std@@7B?$basic_ostream@_WU?$char_traits@_W@std@@@1@@ ; std::basic_stringstream<wchar_t,std::char_traits<wchar_t>,std::allocator<wchar_t> >::`vbtable'
PUBLIC	??_7TestClassImpl@CppUnitTestFramework@VisualStudio@Microsoft@@6B@ ; Microsoft::VisualStudio::CppUnitTestFramework::TestClassImpl::`vftable'
PUBLIC	??_7?$basic_stringbuf@DU?$char_traits@D@std@@V?$allocator@D@2@@std@@6B@ ; std::basic_stringbuf<char,std::char_traits<char>,std::allocator<char> >::`vftable'
PUBLIC	??_7?$TestClass@Vui512_unit_tests_division@ui512_Unit_Tests@@@CppUnitTestFramework@VisualStudio@Microsoft@@6B@ ; Microsoft::VisualStudio::CppUnitTestFramework::TestClass<ui512_Unit_Tests::ui512_unit_tests_division>::`vftable'
PUBLIC	??_7ui512_unit_tests_division@ui512_Unit_Tests@@6B@ ; ui512_Unit_Tests::ui512_unit_tests_division::`vftable'
PUBLIC	?s_Metadata@?1??__GetTestMethodInfo_ui512_01_div_pt1@ui512_unit_tests_division@ui512_Unit_Tests@@CAPEBUMemberMethodInfo@CppUnitTestFramework@VisualStudio@Microsoft@@XZ@4UMethodMetadata@567@B ; `ui512_Unit_Tests::ui512_unit_tests_division::__GetTestMethodInfo_ui512_01_div_pt1'::`2'::s_Metadata
PUBLIC	??_C@_1BO@LIDJJEMN@?$AAT?$AAe?$AAs?$AAt?$AAM?$AAe?$AAt?$AAh?$AAo?$AAd?$AAI?$AAn?$AAf?$AAo@ ; `string'
PUBLIC	??_C@_1CC@LDHAIOLP@?$AAu?$AAi?$AA5?$AA1?$AA2?$AA_?$AA0?$AA1?$AA_?$AAd?$AAi?$AAv?$AA_?$AAp?$AAt@ ; `string'
PUBLIC	??_C@_0FC@NHHMKFNP@ui512_Unit_Tests?3?3ui512_unit_te@ ; `string'
PUBLIC	??_C@_0JJ@HKPFOIDL@?$DP__GetTestMethodInfo_ui512_01_d@ ; `string'
PUBLIC	??_C@_1KM@BJBCBHJC@?$AAC?$AA?3?$AA?2?$AAU?$AAs?$AAe?$AAr?$AAs?$AA?2?$AAJ?$AAo?$AAh?$AAn?$AA?5?$AAL@ ; `string'
PUBLIC	?s_Info@?1??__GetTestMethodInfo_ui512_01_div_pt1@ui512_unit_tests_division@ui512_Unit_Tests@@CAPEBUMemberMethodInfo@CppUnitTestFramework@VisualStudio@Microsoft@@XZ@4U4567@A ; `ui512_Unit_Tests::ui512_unit_tests_division::__GetTestMethodInfo_ui512_01_div_pt1'::`2'::s_Info
PUBLIC	??_C@_0CI@BNAOKKDO@?5failed?5zero?5divided?5by?5random?5@ ; `string'
PUBLIC	??_C@_1CG@ODCOFCEH@?$AAQ?$AAu?$AAo?$AAt?$AAi?$AAe?$AAn?$AAt?$AA?5?$AAa?$AAt?$AA?5?$AAw?$AAo?$AAr@ ; `string'
PUBLIC	??_C@_1CI@LAAKABII@?$AAR?$AAe?$AAm?$AAa?$AAi?$AAn?$AAd?$AAe?$AAr?$AA?5?$AAa?$AAt?$AA?5?$AAw?$AAo@ ; `string'
PUBLIC	??_C@_0CI@CPHHKPNI@?5failed?5random?5divided?5by?5zero?5@ ; `string'
PUBLIC	??_C@_0CH@HGJAIGPL@?5failed?5random?5divided?5by?5one?5o@ ; `string'
PUBLIC	??_C@_0CH@LAGGDJDP@?5failed?5one?5divided?5by?5random?5o@ ; `string'
PUBLIC	??_C@_0DO@EKHHIANH@?5failed?5random?5divided?5by?5one?5w@ ; `string'
PUBLIC	??_7?$basic_stringstream@DU?$char_traits@D@std@@V?$allocator@D@2@@std@@6B@ ; std::basic_stringstream<char,std::char_traits<char>,std::allocator<char> >::`vftable'
PUBLIC	??_8?$basic_stringstream@DU?$char_traits@D@std@@V?$allocator@D@2@@std@@7B?$basic_istream@DU?$char_traits@D@std@@@1@@ ; std::basic_stringstream<char,std::char_traits<char>,std::allocator<char> >::`vbtable'
PUBLIC	??_8?$basic_stringstream@DU?$char_traits@D@std@@V?$allocator@D@2@@std@@7B?$basic_ostream@DU?$char_traits@D@std@@@1@@ ; std::basic_stringstream<char,std::char_traits<char>,std::allocator<char> >::`vbtable'
PUBLIC	??_C@_0CK@CJHECGEB@?5times?5each?0?5with?5pseudo?5random@ ; `string'
PUBLIC	??_C@_0LD@OLHFNCDM@Divide?5function?5testing?4?6?5Edge?5@ ; `string'
PUBLIC	??_C@_1DG@MPBKICBG@?$AAR?$AAe?$AAg?$AAi?$AAs?$AAt?$AAe?$AAr?$AA?5?$AAv?$AAa?$AAl?$AAi?$AAd?$AAa@ ; `string'
PUBLIC	??_C@_1FE@GAGHCNNB@?$AAR?$AAe?$AAt?$AAu?$AAr?$AAn?$AA?5?$AAc?$AAo?$AAd?$AAe?$AA?5?$AAf?$AAa?$AAi@ ; `string'
PUBLIC	??_C@_1FE@KEBBLB@?$AAR?$AAe?$AAt?$AAu?$AAr?$AAn?$AA?5?$AAc?$AAo?$AAd?$AAe?$AA?5?$AAf?$AAa?$AAi@ ; `string'
PUBLIC	??_C@_1FC@LBECLKKE@?$AAR?$AAe?$AAt?$AAu?$AAr?$AAn?$AA?5?$AAc?$AAo?$AAd?$AAe?$AA?5?$AAf?$AAa?$AAi@ ; `string'
PUBLIC	??_C@_1FC@DBKFNIFK@?$AAR?$AAe?$AAt?$AAu?$AAr?$AAn?$AA?5?$AAc?$AAo?$AAd?$AAe?$AA?5?$AAf?$AAa?$AAi@ ; `string'
PUBLIC	??_C@_1OG@CFLLNBHP@?$AAP?$AAa?$AAs?$AAs?$AAe?$AAd?$AA?4?$AA?5?$AAN?$AAo?$AAn?$AA?9?$AAv?$AAo?$AAl@ ; `string'
PUBLIC	?s_Metadata@?1??__GetTestMethodInfo_ui512_01_div_pt2@ui512_unit_tests_division@ui512_Unit_Tests@@CAPEBUMemberMethodInfo@CppUnitTestFramework@VisualStudio@Microsoft@@XZ@4UMethodMetadata@567@B ; `ui512_Unit_Tests::ui512_unit_tests_division::__GetTestMethodInfo_ui512_01_div_pt2'::`2'::s_Metadata
PUBLIC	??_C@_1CC@KBMFCBFB@?$AAu?$AAi?$AA5?$AA1?$AA2?$AA_?$AA0?$AA1?$AA_?$AAd?$AAi?$AAv?$AA_?$AAp?$AAt@ ; `string'
PUBLIC	??_C@_0FC@PMFBPGBM@ui512_Unit_Tests?3?3ui512_unit_te@ ; `string'
PUBLIC	??_C@_0JJ@FCPFPIAO@?$DP__GetTestMethodInfo_ui512_01_d@ ; `string'
PUBLIC	?s_Info@?1??__GetTestMethodInfo_ui512_01_div_pt2@ui512_unit_tests_division@ui512_Unit_Tests@@CAPEBUMemberMethodInfo@CppUnitTestFramework@VisualStudio@Microsoft@@XZ@4U4567@A ; `ui512_Unit_Tests::ui512_unit_tests_division::__GetTestMethodInfo_ui512_01_div_pt2'::`2'::s_Info
PUBLIC	??_C@_1GA@HIJLEAEK@?$AAS?$AAp?$AAe?$AAc?$AAi?$AAf?$AAi?$AAc?$AA?5?$AAv?$AAa?$AAl?$AAu?$AAe?$AA?5@ ; `string'
PUBLIC	??_C@_0DA@OONIPKAL@Divide?5function?5testing?4?6?5Speci@ ; `string'
PUBLIC	??_C@_1EO@KDEODNND@?$AAR?$AAe?$AAt?$AAu?$AAr?$AAn?$AA?5?$AAc?$AAo?$AAd?$AAe?$AA?5?$AAf?$AAa?$AAi@ ; `string'
PUBLIC	?s_Metadata@?1??__GetTestMethodInfo_ui512_01_div_pt3@ui512_unit_tests_division@ui512_Unit_Tests@@CAPEBUMemberMethodInfo@CppUnitTestFramework@VisualStudio@Microsoft@@XZ@4UMethodMetadata@567@B ; `ui512_Unit_Tests::ui512_unit_tests_division::__GetTestMethodInfo_ui512_01_div_pt3'::`2'::s_Metadata
PUBLIC	??_C@_1CC@BJHJEGDE@?$AAu?$AAi?$AA5?$AA1?$AA2?$AA_?$AA0?$AA1?$AA_?$AAd?$AAi?$AAv?$AA_?$AAp?$AAt@ ; `string'
PUBLIC	??_C@_0FC@OFEKMHFN@ui512_Unit_Tests?3?3ui512_unit_te@ ; `string'
PUBLIC	??_C@_0JJ@PMCFAKCC@?$DP__GetTestMethodInfo_ui512_01_d@ ; `string'
PUBLIC	?s_Info@?1??__GetTestMethodInfo_ui512_01_div_pt3@ui512_unit_tests_division@ui512_Unit_Tests@@CAPEBUMemberMethodInfo@CppUnitTestFramework@VisualStudio@Microsoft@@XZ@4U4567@A ; `ui512_Unit_Tests::ui512_unit_tests_division::__GetTestMethodInfo_ui512_01_div_pt3'::`2'::s_Info
PUBLIC	??_C@_08FNJADCO@?5failed?5@			; `string'
PUBLIC	??_C@_1BK@NGOHOBLM@?$AAQ?$AAu?$AAo?$AAt?$AAi?$AAe?$AAn?$AAt?$AA?5?$AAa?$AAt?$AA?5@ ; `string'
PUBLIC	??_C@_1CE@MOIIOIA@?$AAR?$AAe?$AAm?$AAa?$AAi?$AAn?$AAd?$AAe?$AAr?$AA?5?$AAf?$AAa?$AAi?$AAl?$AAe@ ; `string'
PUBLIC	??_C@_0CJ@COIHDGMB@?5times?0?5each?5with?5pseudo?5random@ ; `string'
PUBLIC	??_C@_0CN@ILKFAIH@Divide?5function?5testing?4?5Simple@ ; `string'
PUBLIC	??_C@_1FK@JJDEFPIN@?$AAP?$AAa?$AAs?$AAs?$AAe?$AAd?$AA?4?$AA?5?$AAT?$AAe?$AAs?$AAt?$AAe?$AAd?$AA?5@ ; `string'
PUBLIC	?s_Metadata@?1??__GetTestMethodInfo_ui512_01_div_pt4@ui512_unit_tests_division@ui512_Unit_Tests@@CAPEBUMemberMethodInfo@CppUnitTestFramework@VisualStudio@Microsoft@@XZ@4UMethodMetadata@567@B ; `ui512_Unit_Tests::ui512_unit_tests_division::__GetTestMethodInfo_ui512_01_div_pt4'::`2'::s_Metadata
PUBLIC	??_C@_1CC@IEKOHOIN@?$AAu?$AAi?$AA5?$AA1?$AA2?$AA_?$AA0?$AA1?$AA_?$AAd?$AAi?$AAv?$AA_?$AAp?$AAt@ ; `string'
PUBLIC	??_C@_0FC@KKALFBJK@ui512_Unit_Tests?3?3ui512_unit_te@ ; `string'
PUBLIC	??_C@_0JJ@CPFNIGE@?$DP__GetTestMethodInfo_ui512_01_d@ ; `string'
PUBLIC	?s_Info@?1??__GetTestMethodInfo_ui512_01_div_pt4@ui512_unit_tests_division@ui512_Unit_Tests@@CAPEBUMemberMethodInfo@CppUnitTestFramework@VisualStudio@Microsoft@@XZ@4U4567@A ; `ui512_Unit_Tests::ui512_unit_tests_division::__GetTestMethodInfo_ui512_01_div_pt4'::`2'::s_Info
PUBLIC	??_C@_04LNPKFDKO@?5at?5@			; `string'
PUBLIC	??_C@_04EMJEACDL@?5on?5@			; `string'
PUBLIC	??_C@_1CK@CGHHMKFE@?$AAR?$AAe?$AAm?$AAa?$AAi?$AAn?$AAd?$AAe?$AAr?$AA?5?$AAf?$AAa?$AAi?$AAl?$AAe@ ; `string'
PUBLIC	??_C@_0DL@GDOAGBNJ@Divide?5function?5testing?4?5Divide@ ; `string'
PUBLIC	??_C@_0CE@JIINENFO@Divide?5function?5testing?4?5Ran?5te@ ; `string'
PUBLIC	??_C@_1CG@JBIFNOGF@?$AAQ?$AAu?$AAo?$AAt?$AAi?$AAe?$AAn?$AAt?$AA?5?$AAi?$AAn?$AAc?$AAo?$AAr?$AAr@ ; `string'
PUBLIC	??_C@_1CK@OJEOEKDM@?$AA?5?$AAR?$AAe?$AAm?$AAa?$AAi?$AAn?$AAd?$AAe?$AAr?$AA?5?$AAi?$AAn?$AAc?$AAo@ ; `string'
PUBLIC	?s_Metadata@?1??__GetTestMethodInfo_ui512_02_div64@ui512_unit_tests_division@ui512_Unit_Tests@@CAPEBUMemberMethodInfo@CppUnitTestFramework@VisualStudio@Microsoft@@XZ@4UMethodMetadata@567@B ; `ui512_Unit_Tests::ui512_unit_tests_division::__GetTestMethodInfo_ui512_02_div64'::`2'::s_Metadata
PUBLIC	??_C@_1BO@BHAJCIJH@?$AAu?$AAi?$AA5?$AA1?$AA2?$AA_?$AA0?$AA2?$AA_?$AAd?$AAi?$AAv?$AA6?$AA4@ ; `string'
PUBLIC	??_C@_0FA@MMEAKABN@ui512_Unit_Tests?3?3ui512_unit_te@ ; `string'
PUBLIC	??_C@_0JH@BFNOHAD@?$DP__GetTestMethodInfo_ui512_02_d@ ; `string'
PUBLIC	?s_Info@?1??__GetTestMethodInfo_ui512_02_div64@ui512_unit_tests_division@ui512_Unit_Tests@@CAPEBUMemberMethodInfo@CppUnitTestFramework@VisualStudio@Microsoft@@XZ@4U4567@A ; `ui512_Unit_Tests::ui512_unit_tests_division::__GetTestMethodInfo_ui512_02_div64'::`2'::s_Info
PUBLIC	??_C@_1GC@MJHDMPHH@?$AAR?$AAe?$AAm?$AAa?$AAi?$AAn?$AAd?$AAe?$AAr?$AA?5?$AAf?$AAa?$AAi?$AAl?$AAe@ ; `string'
PUBLIC	??_C@_1FA@JPJCCHFP@?$AAR?$AAe?$AAm?$AAa?$AAi?$AAn?$AAd?$AAe?$AAr?$AA?5?$AAf?$AAa?$AAi?$AAl?$AAe@ ; `string'
PUBLIC	??_C@_0CI@BPEFFAPP@?5failed?5random?5divided?5by?5self?5@ ; `string'
PUBLIC	??_C@_1FC@PKHGNIM@?$AAR?$AAe?$AAm?$AAa?$AAi?$AAn?$AAd?$AAe?$AAr?$AA?5?$AAf?$AAa?$AAi?$AAl?$AAe@ ; `string'
PUBLIC	??_C@_0CJ@CCFBPMEP@?5times?5each?0?5with?5pseudo?5random@ ; `string'
PUBLIC	??_C@_0HJ@KGKGPADN@Divide?5?$CIu64?$CJ?5function?5testing?4?6@ ; `string'
PUBLIC	??_C@_0BB@IDAGBPMK@?5failed?5on?5run?5?$CD@	; `string'
PUBLIC	??_C@_0DD@GPJJCIDI@Divide?5?$CIu64?$CJ?5function?5testing?4?5@ ; `string'
PUBLIC	??_C@_09PAOLCDPN@?5on?5run?5?$CD@		; `string'
PUBLIC	??_C@_0BD@GLJAELFL@?5failed?5shifting?3?5@	; `string'
PUBLIC	??_C@_1DI@ONAGFOEB@?$AAR?$AAe?$AAm?$AAa?$AAi?$AAn?$AAd?$AAe?$AAr?$AA?5?$AAf?$AAa?$AAi?$AAl?$AAe@ ; `string'
PUBLIC	??_C@_1FK@FMCNELDK@?$AAU?$AAs?$AAe?$AA?5?$AAc?$AAa?$AAs?$AAe?$AA?3?$AA?5?$AAD?$AAi?$AAv?$AAi?$AAd@ ; `string'
PUBLIC	??_C@_1KE@CCLBEKFF@?$AA?6?$AAP?$AAa?$AAs?$AAs?$AAe?$AAd?$AA?4?$AA?5?$AAN?$AAo?$AAn?$AA?9?$AAv?$AAo@ ; `string'
PUBLIC	??_C@_0BH@DAGLNLOD@12?0345?0678?0910?0111?0213@	; `string'
PUBLIC	??_C@_1GI@NFADNKBN@?$AA?6?$AAU?$AAs?$AAe?$AA?5?$AAc?$AAa?$AAs?$AAe?$AA?3?$AA?5?$AAD?$AAi?$AAv?$AAi@ ; `string'
PUBLIC	??_C@_1PC@KNGPKHBN@?$AA?6?$AAP?$AAa?$AAs?$AAs?$AAe?$AAd?$AA?4?$AA?6?$AA?7?$AAN?$AAo?$AAn?$AA?9?$AAv@ ; `string'
PUBLIC	?s_Metadata@?1??__GetTestMethodInfo_ui512_02_div64_performance@ui512_unit_tests_division@ui512_Unit_Tests@@CAPEBUMemberMethodInfo@CppUnitTestFramework@VisualStudio@Microsoft@@XZ@4UMethodMetadata@567@B ; `ui512_Unit_Tests::ui512_unit_tests_division::__GetTestMethodInfo_ui512_02_div64_performance'::`2'::s_Metadata
PUBLIC	??_C@_1DG@FPJFHNMN@?$AAu?$AAi?$AA5?$AA1?$AA2?$AA_?$AA0?$AA2?$AA_?$AAd?$AAi?$AAv?$AA6?$AA4?$AA_@ ; `string'
PUBLIC	??_C@_0FM@LOJDAOCA@ui512_Unit_Tests?3?3ui512_unit_te@ ; `string'
PUBLIC	??_C@_0KD@DDGEJPPE@?$DP__GetTestMethodInfo_ui512_02_d@ ; `string'
PUBLIC	?s_Info@?1??__GetTestMethodInfo_ui512_02_div64_performance@ui512_unit_tests_division@ui512_Unit_Tests@@CAPEBUMemberMethodInfo@CppUnitTestFramework@VisualStudio@Microsoft@@XZ@4U4567@A ; `ui512_Unit_Tests::ui512_unit_tests_division::__GetTestMethodInfo_ui512_02_div64_performance'::`2'::s_Info
PUBLIC	??_C@_1FO@BDCHJOKC@?$AAD?$AAi?$AAv?$AAi?$AAd?$AAe?$AA?5?$AAx?$AA6?$AA4?$AA?5?$AAf?$AAu?$AAn?$AAc@ ; `string'
PUBLIC	??_C@_1BI@IJNPOKDK@?$AAF?$AAi?$AAr?$AAs?$AAt?$AA?5?$AAr?$AAu?$AAn?$AA?4?$AA?6@ ; `string'
PUBLIC	??_C@_1BK@EFEOPHLM@?$AAS?$AAe?$AAc?$AAo?$AAn?$AAd?$AA?5?$AAr?$AAu?$AAn?$AA?4?$AA?6@ ; `string'
PUBLIC	??_C@_1BI@ODGGIFOK@?$AAT?$AAh?$AAi?$AAr?$AAd?$AA?5?$AAr?$AAu?$AAn?$AA?4?$AA?6@ ; `string'
PUBLIC	??_C@_1BK@MHIKGOKE@?$AA?3?$AAA?$AAM?$AA?3?$AAa?$AAm?$AA?3?$AAP?$AAM?$AA?3?$AAp?$AAm@ ; `string'
PUBLIC	??_C@_0GA@IMMHHOBA@C?3?2Program?5Files?2Microsoft?5Visu@ ; `string'
PUBLIC	?s_version@?1??__GetTestVersion@?$TestClass@Vui512_unit_tests_division@ui512_Unit_Tests@@@CppUnitTestFramework@VisualStudio@Microsoft@@SAPEBUTestDataVersion@345@XZ@4U6345@A ; `Microsoft::VisualStudio::CppUnitTestFramework::TestClass<ui512_Unit_Tests::ui512_unit_tests_division>::__GetTestVersion'::`2'::s_version
PUBLIC	?s_Metadata@?1??__GetTestClassInfo@?$TestClass@Vui512_unit_tests_division@ui512_Unit_Tests@@@CppUnitTestFramework@VisualStudio@Microsoft@@SAPEBUTestClassInfo@345@XZ@4UClassMetadata@345@B ; `Microsoft::VisualStudio::CppUnitTestFramework::TestClass<ui512_Unit_Tests::ui512_unit_tests_division>::__GetTestClassInfo'::`2'::s_Metadata
PUBLIC	??_C@_1BM@OILAKHEN@?$AAT?$AAe?$AAs?$AAt?$AAC?$AAl?$AAa?$AAs?$AAs?$AAI?$AAn?$AAf?$AAo@ ; `string'
PUBLIC	??_C@_0IA@HGFNIDLM@Microsoft?3?3VisualStudio?3?3CppUni@ ; `string'
PUBLIC	??_C@_0JG@JJMFMHML@?$DP__GetTestClassInfo?$EA?$DP$TestClass@ ; `string'
PUBLIC	?s_Info@?1??__GetTestClassInfo@?$TestClass@Vui512_unit_tests_division@ui512_Unit_Tests@@@CppUnitTestFramework@VisualStudio@Microsoft@@SAPEBUTestClassInfo@345@XZ@4U6345@B ; `Microsoft::VisualStudio::CppUnitTestFramework::TestClass<ui512_Unit_Tests::ui512_unit_tests_division>::__GetTestClassInfo'::`2'::s_Info
PUBLIC	??_C@_0BO@PFKOHNJC@vector?5subscript?5out?5of?5range@ ; `string'
PUBLIC	??_C@_0FP@FHDFLINP@C?3?2Program?5Files?2Microsoft?5Visu@ ; `string'
PUBLIC	??_C@_0BN@KGJKMKBE@string?5iterator?5incompatible@ ; `string'
PUBLIC	?_Psave@?$_Facetptr@V?$ctype@_W@std@@@std@@2PEBVfacet@locale@2@EB ; std::_Facetptr<std::ctype<wchar_t> >::_Psave
PUBLIC	??_C@_0DG@KGHKKGBC@null?5pointer?5cannot?5point?5to?5a?5@ ; `string'
PUBLIC	??_C@_0BI@CFPLBAOH@invalid?5string?5position@	; `string'
PUBLIC	??_C@_0CO@HMKHBNHI@cannot?5seek?5value?9initialized?5s@ ; `string'
PUBLIC	??_C@_0HL@FFBIGJOL@cannot?5seek?5string?5iterator?5bec@ ; `string'
PUBLIC	??_C@_0CJ@CGBGDMPO@cannot?5seek?5string?5iterator?5bef@ ; `string'
PUBLIC	??_C@_0CG@BGNOMIGA@cannot?5seek?5string?5iterator?5aft@ ; `string'
PUBLIC	??_R4?$basic_stringbuf@DU?$char_traits@D@std@@V?$allocator@D@2@@std@@6B@ ; std::basic_stringbuf<char,std::char_traits<char>,std::allocator<char> >::`RTTI Complete Object Locator'
PUBLIC	??_R0?AV?$basic_stringbuf@DU?$char_traits@D@std@@V?$allocator@D@2@@std@@@8 ; std::basic_stringbuf<char,std::char_traits<char>,std::allocator<char> > `RTTI Type Descriptor'
PUBLIC	??_R3?$basic_stringbuf@DU?$char_traits@D@std@@V?$allocator@D@2@@std@@8 ; std::basic_stringbuf<char,std::char_traits<char>,std::allocator<char> >::`RTTI Class Hierarchy Descriptor'
PUBLIC	??_R2?$basic_stringbuf@DU?$char_traits@D@std@@V?$allocator@D@2@@std@@8 ; std::basic_stringbuf<char,std::char_traits<char>,std::allocator<char> >::`RTTI Base Class Array'
PUBLIC	??_R1A@?0A@EA@?$basic_stringbuf@DU?$char_traits@D@std@@V?$allocator@D@2@@std@@8 ; std::basic_stringbuf<char,std::char_traits<char>,std::allocator<char> >::`RTTI Base Class Descriptor at (0,-1,0,64)'
PUBLIC	??_R1A@?0A@EA@?$basic_streambuf@DU?$char_traits@D@std@@@std@@8 ; std::basic_streambuf<char,std::char_traits<char> >::`RTTI Base Class Descriptor at (0,-1,0,64)'
PUBLIC	??_R0?AV?$basic_streambuf@DU?$char_traits@D@std@@@std@@@8 ; std::basic_streambuf<char,std::char_traits<char> > `RTTI Type Descriptor'
PUBLIC	??_R3?$basic_streambuf@DU?$char_traits@D@std@@@std@@8 ; std::basic_streambuf<char,std::char_traits<char> >::`RTTI Class Hierarchy Descriptor'
PUBLIC	??_R2?$basic_streambuf@DU?$char_traits@D@std@@@std@@8 ; std::basic_streambuf<char,std::char_traits<char> >::`RTTI Base Class Array'
PUBLIC	??_R1A@?0A@EA@?$basic_ostream@DU?$char_traits@D@std@@@std@@8 ; std::basic_ostream<char,std::char_traits<char> >::`RTTI Base Class Descriptor at (0,-1,0,64)'
PUBLIC	??_R0?AV?$basic_ostream@DU?$char_traits@D@std@@@std@@@8 ; std::basic_ostream<char,std::char_traits<char> > `RTTI Type Descriptor'
PUBLIC	??_R3?$basic_ostream@DU?$char_traits@D@std@@@std@@8 ; std::basic_ostream<char,std::char_traits<char> >::`RTTI Class Hierarchy Descriptor'
PUBLIC	??_R2?$basic_ostream@DU?$char_traits@D@std@@@std@@8 ; std::basic_ostream<char,std::char_traits<char> >::`RTTI Base Class Array'
PUBLIC	??_R1A@A@3FA@?$basic_ios@DU?$char_traits@D@std@@@std@@8 ; std::basic_ios<char,std::char_traits<char> >::`RTTI Base Class Descriptor at (0,0,4,80)'
PUBLIC	??_R0?AV?$basic_ios@DU?$char_traits@D@std@@@std@@@8 ; std::basic_ios<char,std::char_traits<char> > `RTTI Type Descriptor'
PUBLIC	??_R3?$basic_ios@DU?$char_traits@D@std@@@std@@8	; std::basic_ios<char,std::char_traits<char> >::`RTTI Class Hierarchy Descriptor'
PUBLIC	??_R2?$basic_ios@DU?$char_traits@D@std@@@std@@8	; std::basic_ios<char,std::char_traits<char> >::`RTTI Base Class Array'
PUBLIC	??_R1A@?0A@EA@?$basic_ios@DU?$char_traits@D@std@@@std@@8 ; std::basic_ios<char,std::char_traits<char> >::`RTTI Base Class Descriptor at (0,-1,0,64)'
PUBLIC	??_R1A@?0A@EA@ios_base@std@@8			; std::ios_base::`RTTI Base Class Descriptor at (0,-1,0,64)'
PUBLIC	??_R0?AVios_base@std@@@8			; std::ios_base `RTTI Type Descriptor'
PUBLIC	??_R3ios_base@std@@8				; std::ios_base::`RTTI Class Hierarchy Descriptor'
PUBLIC	??_R2ios_base@std@@8				; std::ios_base::`RTTI Base Class Array'
PUBLIC	??_R17?0A@EA@?$_Iosb@H@std@@8			; std::_Iosb<int>::`RTTI Base Class Descriptor at (8,-1,0,64)'
PUBLIC	??_R0?AV?$_Iosb@H@std@@@8			; std::_Iosb<int> `RTTI Type Descriptor'
PUBLIC	??_R3?$_Iosb@H@std@@8				; std::_Iosb<int>::`RTTI Class Hierarchy Descriptor'
PUBLIC	??_R2?$_Iosb@H@std@@8				; std::_Iosb<int>::`RTTI Base Class Array'
PUBLIC	??_R1A@?0A@EA@?$_Iosb@H@std@@8			; std::_Iosb<int>::`RTTI Base Class Descriptor at (0,-1,0,64)'
PUBLIC	??_R1A@A@3EA@ios_base@std@@8			; std::ios_base::`RTTI Base Class Descriptor at (0,0,4,64)'
PUBLIC	??_R17A@3EA@?$_Iosb@H@std@@8			; std::_Iosb<int>::`RTTI Base Class Descriptor at (8,0,4,64)'
PUBLIC	??_R4?$basic_stringstream@DU?$char_traits@D@std@@V?$allocator@D@2@@std@@6B@ ; std::basic_stringstream<char,std::char_traits<char>,std::allocator<char> >::`RTTI Complete Object Locator'
PUBLIC	??_R0?AV?$basic_stringstream@DU?$char_traits@D@std@@V?$allocator@D@2@@std@@@8 ; std::basic_stringstream<char,std::char_traits<char>,std::allocator<char> > `RTTI Type Descriptor'
PUBLIC	??_R3?$basic_stringstream@DU?$char_traits@D@std@@V?$allocator@D@2@@std@@8 ; std::basic_stringstream<char,std::char_traits<char>,std::allocator<char> >::`RTTI Class Hierarchy Descriptor'
PUBLIC	??_R2?$basic_stringstream@DU?$char_traits@D@std@@V?$allocator@D@2@@std@@8 ; std::basic_stringstream<char,std::char_traits<char>,std::allocator<char> >::`RTTI Base Class Array'
PUBLIC	??_R1A@?0A@EA@?$basic_stringstream@DU?$char_traits@D@std@@V?$allocator@D@2@@std@@8 ; std::basic_stringstream<char,std::char_traits<char>,std::allocator<char> >::`RTTI Base Class Descriptor at (0,-1,0,64)'
PUBLIC	??_R1A@?0A@EA@?$basic_iostream@DU?$char_traits@D@std@@@std@@8 ; std::basic_iostream<char,std::char_traits<char> >::`RTTI Base Class Descriptor at (0,-1,0,64)'
PUBLIC	??_R0?AV?$basic_iostream@DU?$char_traits@D@std@@@std@@@8 ; std::basic_iostream<char,std::char_traits<char> > `RTTI Type Descriptor'
PUBLIC	??_R3?$basic_iostream@DU?$char_traits@D@std@@@std@@8 ; std::basic_iostream<char,std::char_traits<char> >::`RTTI Class Hierarchy Descriptor'
PUBLIC	??_R2?$basic_iostream@DU?$char_traits@D@std@@@std@@8 ; std::basic_iostream<char,std::char_traits<char> >::`RTTI Base Class Array'
PUBLIC	??_R1A@?0A@EA@?$basic_istream@DU?$char_traits@D@std@@@std@@8 ; std::basic_istream<char,std::char_traits<char> >::`RTTI Base Class Descriptor at (0,-1,0,64)'
PUBLIC	??_R0?AV?$basic_istream@DU?$char_traits@D@std@@@std@@@8 ; std::basic_istream<char,std::char_traits<char> > `RTTI Type Descriptor'
PUBLIC	??_R3?$basic_istream@DU?$char_traits@D@std@@@std@@8 ; std::basic_istream<char,std::char_traits<char> >::`RTTI Class Hierarchy Descriptor'
PUBLIC	??_R2?$basic_istream@DU?$char_traits@D@std@@@std@@8 ; std::basic_istream<char,std::char_traits<char> >::`RTTI Base Class Array'
PUBLIC	??_R1BA@?0A@EA@?$basic_ostream@DU?$char_traits@D@std@@@std@@8 ; std::basic_ostream<char,std::char_traits<char> >::`RTTI Base Class Descriptor at (16,-1,0,64)'
PUBLIC	??_R4?$basic_stringbuf@_WU?$char_traits@_W@std@@V?$allocator@_W@2@@std@@6B@ ; std::basic_stringbuf<wchar_t,std::char_traits<wchar_t>,std::allocator<wchar_t> >::`RTTI Complete Object Locator'
PUBLIC	??_R0?AV?$basic_stringbuf@_WU?$char_traits@_W@std@@V?$allocator@_W@2@@std@@@8 ; std::basic_stringbuf<wchar_t,std::char_traits<wchar_t>,std::allocator<wchar_t> > `RTTI Type Descriptor'
PUBLIC	??_R3?$basic_stringbuf@_WU?$char_traits@_W@std@@V?$allocator@_W@2@@std@@8 ; std::basic_stringbuf<wchar_t,std::char_traits<wchar_t>,std::allocator<wchar_t> >::`RTTI Class Hierarchy Descriptor'
PUBLIC	??_R2?$basic_stringbuf@_WU?$char_traits@_W@std@@V?$allocator@_W@2@@std@@8 ; std::basic_stringbuf<wchar_t,std::char_traits<wchar_t>,std::allocator<wchar_t> >::`RTTI Base Class Array'
PUBLIC	??_R1A@?0A@EA@?$basic_stringbuf@_WU?$char_traits@_W@std@@V?$allocator@_W@2@@std@@8 ; std::basic_stringbuf<wchar_t,std::char_traits<wchar_t>,std::allocator<wchar_t> >::`RTTI Base Class Descriptor at (0,-1,0,64)'
PUBLIC	??_R1A@?0A@EA@?$basic_streambuf@_WU?$char_traits@_W@std@@@std@@8 ; std::basic_streambuf<wchar_t,std::char_traits<wchar_t> >::`RTTI Base Class Descriptor at (0,-1,0,64)'
PUBLIC	??_R0?AV?$basic_streambuf@_WU?$char_traits@_W@std@@@std@@@8 ; std::basic_streambuf<wchar_t,std::char_traits<wchar_t> > `RTTI Type Descriptor'
PUBLIC	??_R3?$basic_streambuf@_WU?$char_traits@_W@std@@@std@@8 ; std::basic_streambuf<wchar_t,std::char_traits<wchar_t> >::`RTTI Class Hierarchy Descriptor'
PUBLIC	??_R2?$basic_streambuf@_WU?$char_traits@_W@std@@@std@@8 ; std::basic_streambuf<wchar_t,std::char_traits<wchar_t> >::`RTTI Base Class Array'
PUBLIC	??_R4?$basic_stringstream@_WU?$char_traits@_W@std@@V?$allocator@_W@2@@std@@6B@ ; std::basic_stringstream<wchar_t,std::char_traits<wchar_t>,std::allocator<wchar_t> >::`RTTI Complete Object Locator'
PUBLIC	??_R0?AV?$basic_stringstream@_WU?$char_traits@_W@std@@V?$allocator@_W@2@@std@@@8 ; std::basic_stringstream<wchar_t,std::char_traits<wchar_t>,std::allocator<wchar_t> > `RTTI Type Descriptor'
PUBLIC	??_R3?$basic_stringstream@_WU?$char_traits@_W@std@@V?$allocator@_W@2@@std@@8 ; std::basic_stringstream<wchar_t,std::char_traits<wchar_t>,std::allocator<wchar_t> >::`RTTI Class Hierarchy Descriptor'
PUBLIC	??_R2?$basic_stringstream@_WU?$char_traits@_W@std@@V?$allocator@_W@2@@std@@8 ; std::basic_stringstream<wchar_t,std::char_traits<wchar_t>,std::allocator<wchar_t> >::`RTTI Base Class Array'
PUBLIC	??_R1A@?0A@EA@?$basic_stringstream@_WU?$char_traits@_W@std@@V?$allocator@_W@2@@std@@8 ; std::basic_stringstream<wchar_t,std::char_traits<wchar_t>,std::allocator<wchar_t> >::`RTTI Base Class Descriptor at (0,-1,0,64)'
PUBLIC	??_R1A@?0A@EA@?$basic_iostream@_WU?$char_traits@_W@std@@@std@@8 ; std::basic_iostream<wchar_t,std::char_traits<wchar_t> >::`RTTI Base Class Descriptor at (0,-1,0,64)'
PUBLIC	??_R0?AV?$basic_iostream@_WU?$char_traits@_W@std@@@std@@@8 ; std::basic_iostream<wchar_t,std::char_traits<wchar_t> > `RTTI Type Descriptor'
PUBLIC	??_R3?$basic_iostream@_WU?$char_traits@_W@std@@@std@@8 ; std::basic_iostream<wchar_t,std::char_traits<wchar_t> >::`RTTI Class Hierarchy Descriptor'
PUBLIC	??_R2?$basic_iostream@_WU?$char_traits@_W@std@@@std@@8 ; std::basic_iostream<wchar_t,std::char_traits<wchar_t> >::`RTTI Base Class Array'
PUBLIC	??_R1A@?0A@EA@?$basic_istream@_WU?$char_traits@_W@std@@@std@@8 ; std::basic_istream<wchar_t,std::char_traits<wchar_t> >::`RTTI Base Class Descriptor at (0,-1,0,64)'
PUBLIC	??_R0?AV?$basic_istream@_WU?$char_traits@_W@std@@@std@@@8 ; std::basic_istream<wchar_t,std::char_traits<wchar_t> > `RTTI Type Descriptor'
PUBLIC	??_R3?$basic_istream@_WU?$char_traits@_W@std@@@std@@8 ; std::basic_istream<wchar_t,std::char_traits<wchar_t> >::`RTTI Class Hierarchy Descriptor'
PUBLIC	??_R2?$basic_istream@_WU?$char_traits@_W@std@@@std@@8 ; std::basic_istream<wchar_t,std::char_traits<wchar_t> >::`RTTI Base Class Array'
PUBLIC	??_R1A@A@3FA@?$basic_ios@_WU?$char_traits@_W@std@@@std@@8 ; std::basic_ios<wchar_t,std::char_traits<wchar_t> >::`RTTI Base Class Descriptor at (0,0,4,80)'
PUBLIC	??_R0?AV?$basic_ios@_WU?$char_traits@_W@std@@@std@@@8 ; std::basic_ios<wchar_t,std::char_traits<wchar_t> > `RTTI Type Descriptor'
PUBLIC	??_R3?$basic_ios@_WU?$char_traits@_W@std@@@std@@8 ; std::basic_ios<wchar_t,std::char_traits<wchar_t> >::`RTTI Class Hierarchy Descriptor'
PUBLIC	??_R2?$basic_ios@_WU?$char_traits@_W@std@@@std@@8 ; std::basic_ios<wchar_t,std::char_traits<wchar_t> >::`RTTI Base Class Array'
PUBLIC	??_R1A@?0A@EA@?$basic_ios@_WU?$char_traits@_W@std@@@std@@8 ; std::basic_ios<wchar_t,std::char_traits<wchar_t> >::`RTTI Base Class Descriptor at (0,-1,0,64)'
PUBLIC	??_R1BA@?0A@EA@?$basic_ostream@_WU?$char_traits@_W@std@@@std@@8 ; std::basic_ostream<wchar_t,std::char_traits<wchar_t> >::`RTTI Base Class Descriptor at (16,-1,0,64)'
PUBLIC	??_R0?AV?$basic_ostream@_WU?$char_traits@_W@std@@@std@@@8 ; std::basic_ostream<wchar_t,std::char_traits<wchar_t> > `RTTI Type Descriptor'
PUBLIC	??_R3?$basic_ostream@_WU?$char_traits@_W@std@@@std@@8 ; std::basic_ostream<wchar_t,std::char_traits<wchar_t> >::`RTTI Class Hierarchy Descriptor'
PUBLIC	??_R2?$basic_ostream@_WU?$char_traits@_W@std@@@std@@8 ; std::basic_ostream<wchar_t,std::char_traits<wchar_t> >::`RTTI Base Class Array'
PUBLIC	??_R1A@?0A@EA@?$basic_ostream@_WU?$char_traits@_W@std@@@std@@8 ; std::basic_ostream<wchar_t,std::char_traits<wchar_t> >::`RTTI Base Class Descriptor at (0,-1,0,64)'
PUBLIC	??_R4exception@std@@6B@				; std::exception::`RTTI Complete Object Locator'
PUBLIC	??_R3exception@std@@8				; std::exception::`RTTI Class Hierarchy Descriptor'
PUBLIC	??_R2exception@std@@8				; std::exception::`RTTI Base Class Array'
PUBLIC	??_R1A@?0A@EA@exception@std@@8			; std::exception::`RTTI Base Class Descriptor at (0,-1,0,64)'
PUBLIC	??_R4bad_array_new_length@std@@6B@		; std::bad_array_new_length::`RTTI Complete Object Locator'
PUBLIC	??_R3bad_array_new_length@std@@8		; std::bad_array_new_length::`RTTI Class Hierarchy Descriptor'
PUBLIC	??_R2bad_array_new_length@std@@8		; std::bad_array_new_length::`RTTI Base Class Array'
PUBLIC	??_R1A@?0A@EA@bad_array_new_length@std@@8	; std::bad_array_new_length::`RTTI Base Class Descriptor at (0,-1,0,64)'
PUBLIC	??_R1A@?0A@EA@bad_alloc@std@@8			; std::bad_alloc::`RTTI Base Class Descriptor at (0,-1,0,64)'
PUBLIC	??_R3bad_alloc@std@@8				; std::bad_alloc::`RTTI Class Hierarchy Descriptor'
PUBLIC	??_R2bad_alloc@std@@8				; std::bad_alloc::`RTTI Base Class Array'
PUBLIC	??_R4bad_alloc@std@@6B@				; std::bad_alloc::`RTTI Complete Object Locator'
PUBLIC	??_R4bad_cast@std@@6B@				; std::bad_cast::`RTTI Complete Object Locator'
PUBLIC	??_R3bad_cast@std@@8				; std::bad_cast::`RTTI Class Hierarchy Descriptor'
PUBLIC	??_R2bad_cast@std@@8				; std::bad_cast::`RTTI Base Class Array'
PUBLIC	??_R1A@?0A@EA@bad_cast@std@@8			; std::bad_cast::`RTTI Base Class Descriptor at (0,-1,0,64)'
PUBLIC	??_R4TestClassImpl@CppUnitTestFramework@VisualStudio@Microsoft@@6B@ ; Microsoft::VisualStudio::CppUnitTestFramework::TestClassImpl::`RTTI Complete Object Locator'
PUBLIC	??_R0?AVTestClassImpl@CppUnitTestFramework@VisualStudio@Microsoft@@@8 ; Microsoft::VisualStudio::CppUnitTestFramework::TestClassImpl `RTTI Type Descriptor'
PUBLIC	??_R3TestClassImpl@CppUnitTestFramework@VisualStudio@Microsoft@@8 ; Microsoft::VisualStudio::CppUnitTestFramework::TestClassImpl::`RTTI Class Hierarchy Descriptor'
PUBLIC	??_R2TestClassImpl@CppUnitTestFramework@VisualStudio@Microsoft@@8 ; Microsoft::VisualStudio::CppUnitTestFramework::TestClassImpl::`RTTI Base Class Array'
PUBLIC	??_R1A@?0A@EA@TestClassImpl@CppUnitTestFramework@VisualStudio@Microsoft@@8 ; Microsoft::VisualStudio::CppUnitTestFramework::TestClassImpl::`RTTI Base Class Descriptor at (0,-1,0,64)'
PUBLIC	??_R4ui512_unit_tests_division@ui512_Unit_Tests@@6B@ ; ui512_Unit_Tests::ui512_unit_tests_division::`RTTI Complete Object Locator'
PUBLIC	??_R0?AVui512_unit_tests_division@ui512_Unit_Tests@@@8 ; ui512_Unit_Tests::ui512_unit_tests_division `RTTI Type Descriptor'
PUBLIC	??_R3ui512_unit_tests_division@ui512_Unit_Tests@@8 ; ui512_Unit_Tests::ui512_unit_tests_division::`RTTI Class Hierarchy Descriptor'
PUBLIC	??_R2ui512_unit_tests_division@ui512_Unit_Tests@@8 ; ui512_Unit_Tests::ui512_unit_tests_division::`RTTI Base Class Array'
PUBLIC	??_R1A@?0A@EA@ui512_unit_tests_division@ui512_Unit_Tests@@8 ; ui512_Unit_Tests::ui512_unit_tests_division::`RTTI Base Class Descriptor at (0,-1,0,64)'
PUBLIC	??_R1A@?0A@EA@?$TestClass@Vui512_unit_tests_division@ui512_Unit_Tests@@@CppUnitTestFramework@VisualStudio@Microsoft@@8 ; Microsoft::VisualStudio::CppUnitTestFramework::TestClass<ui512_Unit_Tests::ui512_unit_tests_division>::`RTTI Base Class Descriptor at (0,-1,0,64)'
PUBLIC	??_R0?AV?$TestClass@Vui512_unit_tests_division@ui512_Unit_Tests@@@CppUnitTestFramework@VisualStudio@Microsoft@@@8 ; Microsoft::VisualStudio::CppUnitTestFramework::TestClass<ui512_Unit_Tests::ui512_unit_tests_division> `RTTI Type Descriptor'
PUBLIC	??_R3?$TestClass@Vui512_unit_tests_division@ui512_Unit_Tests@@@CppUnitTestFramework@VisualStudio@Microsoft@@8 ; Microsoft::VisualStudio::CppUnitTestFramework::TestClass<ui512_Unit_Tests::ui512_unit_tests_division>::`RTTI Class Hierarchy Descriptor'
PUBLIC	??_R2?$TestClass@Vui512_unit_tests_division@ui512_Unit_Tests@@@CppUnitTestFramework@VisualStudio@Microsoft@@8 ; Microsoft::VisualStudio::CppUnitTestFramework::TestClass<ui512_Unit_Tests::ui512_unit_tests_division>::`RTTI Base Class Array'
PUBLIC	??_R4?$TestClass@Vui512_unit_tests_division@ui512_Unit_Tests@@@CppUnitTestFramework@VisualStudio@Microsoft@@6B@ ; Microsoft::VisualStudio::CppUnitTestFramework::TestClass<ui512_Unit_Tests::ui512_unit_tests_division>::`RTTI Complete Object Locator'
EXTRN	_purecall:PROC
EXTRN	??2@YAPEAX_K@Z:PROC				; operator new
EXTRN	??3@YAXPEAX@Z:PROC				; operator delete
EXTRN	??3@YAXPEAX_K@Z:PROC				; operator delete
EXTRN	memcmp:PROC
EXTRN	memcpy:PROC
EXTRN	memmove:PROC
EXTRN	memset:PROC
EXTRN	__imp_wcslen:PROC
EXTRN	strlen:PROC
EXTRN	zero_u:PROC
EXTRN	copy_u:PROC
EXTRN	set_uT64:PROC
EXTRN	compare_uT64:PROC
EXTRN	add_u:PROC
EXTRN	mult_u:PROC
EXTRN	div_uT64:PROC
EXTRN	div_u:PROC
EXTRN	shr_u:PROC
EXTRN	shl_u:PROC
EXTRN	reg_verify:PROC
EXTRN	__imp__set_invalid_parameter_handler:PROC
EXTRN	__imp__calloc_dbg:PROC
EXTRN	__imp__CrtDbgReport:PROC
EXTRN	__imp__CrtSetReportFile:PROC
EXTRN	__imp__CrtSetReportMode:PROC
EXTRN	__imp_??0_Lockit@std@@QEAA@H@Z:PROC
EXTRN	__imp_??1_Lockit@std@@QEAA@XZ:PROC
EXTRN	?_Xbad_alloc@std@@YAXXZ:PROC			; std::_Xbad_alloc
EXTRN	?_Xlength_error@std@@YAXPEBD@Z:PROC		; std::_Xlength_error
EXTRN	?_Xout_of_range@std@@YAXPEBD@Z:PROC		; std::_Xout_of_range
EXTRN	?uncaught_exceptions@std@@YAHXZ:PROC		; std::uncaught_exceptions
EXTRN	__std_exception_copy:PROC
EXTRN	__std_exception_destroy:PROC
EXTRN	??_Eexception@std@@UEAAPEAXI@Z:PROC		; std::exception::`vector deleting destructor'
EXTRN	??_Ebad_alloc@std@@UEAAPEAXI@Z:PROC		; std::bad_alloc::`vector deleting destructor'
EXTRN	??_Ebad_array_new_length@std@@UEAAPEAXI@Z:PROC	; std::bad_array_new_length::`vector deleting destructor'
EXTRN	??_Ebad_cast@std@@UEAAPEAXI@Z:PROC		; std::bad_cast::`vector deleting destructor'
EXTRN	?_Facet_Register@std@@YAXPEAV_Facet_base@1@@Z:PROC ; std::_Facet_Register
EXTRN	__imp_?_Getcvt@_Locinfo@std@@QEBA?AU_Cvtvec@@XZ:PROC
EXTRN	__imp_?_W_Getdays@_Locinfo@std@@QEBAPEBGXZ:PROC
EXTRN	__imp_?_W_Getmonths@_Locinfo@std@@QEBAPEBGXZ:PROC
EXTRN	?_Getgloballocale@locale@std@@CAPEAV_Locimp@12@XZ:PROC ; std::locale::_Getgloballocale
EXTRN	__imp_?widen@?$ctype@_W@std@@QEBA_WD@Z:PROC
EXTRN	__imp_?_Getcat@?$ctype@_W@std@@SA_KPEAPEBVfacet@locale@2@PEBV42@@Z:PROC
EXTRN	__imp_?good@ios_base@std@@QEBA_NXZ:PROC
EXTRN	__imp_?flags@ios_base@std@@QEBAHXZ:PROC
EXTRN	__imp_?width@ios_base@std@@QEBA_JXZ:PROC
EXTRN	__imp_?width@ios_base@std@@QEAA_J_J@Z:PROC
EXTRN	__imp_?getloc@ios_base@std@@QEBA?AVlocale@2@XZ:PROC
EXTRN	__imp_??0?$basic_streambuf@DU?$char_traits@D@std@@@std@@IEAA@XZ:PROC
EXTRN	__imp_??1?$basic_streambuf@DU?$char_traits@D@std@@@std@@UEAA@XZ:PROC
EXTRN	__imp_?sputc@?$basic_streambuf@DU?$char_traits@D@std@@@std@@QEAAHD@Z:PROC
EXTRN	__imp_?sputn@?$basic_streambuf@DU?$char_traits@D@std@@@std@@QEAA_JPEBD_J@Z:PROC
EXTRN	__imp_?eback@?$basic_streambuf@DU?$char_traits@D@std@@@std@@IEBAPEADXZ:PROC
EXTRN	__imp_?gptr@?$basic_streambuf@DU?$char_traits@D@std@@@std@@IEBAPEADXZ:PROC
EXTRN	__imp_?pbase@?$basic_streambuf@DU?$char_traits@D@std@@@std@@IEBAPEADXZ:PROC
EXTRN	__imp_?pptr@?$basic_streambuf@DU?$char_traits@D@std@@@std@@IEBAPEADXZ:PROC
EXTRN	__imp_?egptr@?$basic_streambuf@DU?$char_traits@D@std@@@std@@IEBAPEADXZ:PROC
EXTRN	__imp_?gbump@?$basic_streambuf@DU?$char_traits@D@std@@@std@@IEAAXH@Z:PROC
EXTRN	__imp_?setg@?$basic_streambuf@DU?$char_traits@D@std@@@std@@IEAAXPEAD00@Z:PROC
EXTRN	__imp_?epptr@?$basic_streambuf@DU?$char_traits@D@std@@@std@@IEBAPEADXZ:PROC
EXTRN	__imp_?setp@?$basic_streambuf@DU?$char_traits@D@std@@@std@@IEAAXPEAD0@Z:PROC
EXTRN	__imp_?setp@?$basic_streambuf@DU?$char_traits@D@std@@@std@@IEAAXPEAD00@Z:PROC
EXTRN	__imp_?_Pninc@?$basic_streambuf@DU?$char_traits@D@std@@@std@@IEAAPEADXZ:PROC
EXTRN	__imp_??0?$basic_streambuf@_WU?$char_traits@_W@std@@@std@@IEAA@XZ:PROC
EXTRN	__imp_??1?$basic_streambuf@_WU?$char_traits@_W@std@@@std@@UEAA@XZ:PROC
EXTRN	__imp_?sputc@?$basic_streambuf@_WU?$char_traits@_W@std@@@std@@QEAAG_W@Z:PROC
EXTRN	__imp_?sputn@?$basic_streambuf@_WU?$char_traits@_W@std@@@std@@QEAA_JPEB_W_J@Z:PROC
EXTRN	__imp_?eback@?$basic_streambuf@_WU?$char_traits@_W@std@@@std@@IEBAPEA_WXZ:PROC
EXTRN	__imp_?gptr@?$basic_streambuf@_WU?$char_traits@_W@std@@@std@@IEBAPEA_WXZ:PROC
EXTRN	__imp_?pbase@?$basic_streambuf@_WU?$char_traits@_W@std@@@std@@IEBAPEA_WXZ:PROC
EXTRN	__imp_?pptr@?$basic_streambuf@_WU?$char_traits@_W@std@@@std@@IEBAPEA_WXZ:PROC
EXTRN	__imp_?egptr@?$basic_streambuf@_WU?$char_traits@_W@std@@@std@@IEBAPEA_WXZ:PROC
EXTRN	__imp_?gbump@?$basic_streambuf@_WU?$char_traits@_W@std@@@std@@IEAAXH@Z:PROC
EXTRN	__imp_?setg@?$basic_streambuf@_WU?$char_traits@_W@std@@@std@@IEAAXPEA_W00@Z:PROC
EXTRN	__imp_?epptr@?$basic_streambuf@_WU?$char_traits@_W@std@@@std@@IEBAPEA_WXZ:PROC
EXTRN	__imp_?setp@?$basic_streambuf@_WU?$char_traits@_W@std@@@std@@IEAAXPEA_W0@Z:PROC
EXTRN	__imp_?setp@?$basic_streambuf@_WU?$char_traits@_W@std@@@std@@IEAAXPEA_W00@Z:PROC
EXTRN	__imp_?_Pninc@?$basic_streambuf@_WU?$char_traits@_W@std@@@std@@IEAAPEA_WXZ:PROC
EXTRN	__imp_??1?$basic_ios@DU?$char_traits@D@std@@@std@@UEAA@XZ:PROC
EXTRN	__imp_?setstate@?$basic_ios@DU?$char_traits@D@std@@@std@@QEAAXH_N@Z:PROC
EXTRN	__imp_?tie@?$basic_ios@DU?$char_traits@D@std@@@std@@QEBAPEAV?$basic_ostream@DU?$char_traits@D@std@@@2@XZ:PROC
EXTRN	__imp_?rdbuf@?$basic_ios@DU?$char_traits@D@std@@@std@@QEBAPEAV?$basic_streambuf@DU?$char_traits@D@std@@@2@XZ:PROC
EXTRN	__imp_?fill@?$basic_ios@DU?$char_traits@D@std@@@std@@QEBADXZ:PROC
EXTRN	__imp_??0?$basic_ios@DU?$char_traits@D@std@@@std@@IEAA@XZ:PROC
EXTRN	__imp_??1?$basic_ios@_WU?$char_traits@_W@std@@@std@@UEAA@XZ:PROC
EXTRN	__imp_?setstate@?$basic_ios@_WU?$char_traits@_W@std@@@std@@QEAAXH_N@Z:PROC
EXTRN	__imp_?tie@?$basic_ios@_WU?$char_traits@_W@std@@@std@@QEBAPEAV?$basic_ostream@_WU?$char_traits@_W@std@@@2@XZ:PROC
EXTRN	__imp_?rdbuf@?$basic_ios@_WU?$char_traits@_W@std@@@std@@QEBAPEAV?$basic_streambuf@_WU?$char_traits@_W@std@@@2@XZ:PROC
EXTRN	__imp_?fill@?$basic_ios@_WU?$char_traits@_W@std@@@std@@QEBA_WXZ:PROC
EXTRN	__imp_??0?$basic_ios@_WU?$char_traits@_W@std@@@std@@IEAA@XZ:PROC
EXTRN	__imp_?_Osfx@?$basic_ostream@DU?$char_traits@D@std@@@std@@QEAAXXZ:PROC
EXTRN	__imp_??6?$basic_ostream@DU?$char_traits@D@std@@@std@@QEAAAEAV01@H@Z:PROC
EXTRN	__imp_?flush@?$basic_ostream@DU?$char_traits@D@std@@@std@@QEAAAEAV12@XZ:PROC
EXTRN	__imp_?_Osfx@?$basic_ostream@_WU?$char_traits@_W@std@@@std@@QEAAXXZ:PROC
EXTRN	__imp_??6?$basic_ostream@_WU?$char_traits@_W@std@@@std@@QEAAAEAV01@F@Z:PROC
EXTRN	__imp_??6?$basic_ostream@_WU?$char_traits@_W@std@@@std@@QEAAAEAV01@G@Z:PROC
EXTRN	__imp_??6?$basic_ostream@_WU?$char_traits@_W@std@@@std@@QEAAAEAV01@H@Z:PROC
EXTRN	__imp_??6?$basic_ostream@_WU?$char_traits@_W@std@@@std@@QEAAAEAV01@_K@Z:PROC
EXTRN	__imp_?flush@?$basic_ostream@_WU?$char_traits@_W@std@@@std@@QEAAAEAV12@XZ:PROC
EXTRN	__imp_??0?$basic_iostream@DU?$char_traits@D@std@@@std@@QEAA@PEAV?$basic_streambuf@DU?$char_traits@D@std@@@1@@Z:PROC
EXTRN	__imp_??1?$basic_iostream@DU?$char_traits@D@std@@@std@@UEAA@XZ:PROC
EXTRN	__imp_??0?$basic_iostream@_WU?$char_traits@_W@std@@@std@@QEAA@PEAV?$basic_streambuf@_WU?$char_traits@_W@std@@@1@@Z:PROC
EXTRN	__imp_??1?$basic_iostream@_WU?$char_traits@_W@std@@@std@@UEAA@XZ:PROC
EXTRN	??_E?$basic_stringbuf@_WU?$char_traits@_W@std@@V?$allocator@_W@2@@std@@UEAAPEAXI@Z:PROC ; std::basic_stringbuf<wchar_t,std::char_traits<wchar_t>,std::allocator<wchar_t> >::`vector deleting destructor'
EXTRN	??_E?$basic_stringstream@_WU?$char_traits@_W@std@@V?$allocator@_W@2@@std@@UEAAPEAXI@Z:PROC ; std::basic_stringstream<wchar_t,std::char_traits<wchar_t>,std::allocator<wchar_t> >::`vector deleting destructor'
EXTRN	?FailOnCondition@Assert@CppUnitTestFramework@VisualStudio@Microsoft@@CAX_NPEBGPEBU__LineInfo@234@@Z:PROC ; Microsoft::VisualStudio::CppUnitTestFramework::Assert::FailOnCondition
EXTRN	?GetAssertMessage@Assert@CppUnitTestFramework@VisualStudio@Microsoft@@CAX_NPEBG11PEAG_K@Z:PROC ; Microsoft::VisualStudio::CppUnitTestFramework::Assert::GetAssertMessage
EXTRN	?WriteMessageImplW@Logger@CppUnitTestFramework@VisualStudio@Microsoft@@CAXPEBG@Z:PROC ; Microsoft::VisualStudio::CppUnitTestFramework::Logger::WriteMessageImplW
EXTRN	?WriteMessageImplA@Logger@CppUnitTestFramework@VisualStudio@Microsoft@@CAXPEBD@Z:PROC ; Microsoft::VisualStudio::CppUnitTestFramework::Logger::WriteMessageImplA
EXTRN	?IsDebuggerAttached@CrtHandlersSetter@TestClassImpl@CppUnitTestFramework@VisualStudio@Microsoft@@CA_NXZ:PROC ; Microsoft::VisualStudio::CppUnitTestFramework::TestClassImpl::CrtHandlersSetter::IsDebuggerAttached
EXTRN	?InvalidParameterHandler@CrtHandlersSetter@TestClassImpl@CppUnitTestFramework@VisualStudio@Microsoft@@CAXPEBG00I_K@Z:PROC ; Microsoft::VisualStudio::CppUnitTestFramework::TestClassImpl::CrtHandlersSetter::InvalidParameterHandler
EXTRN	??_ETestClassImpl@CppUnitTestFramework@VisualStudio@Microsoft@@UEAAPEAXI@Z:PROC ; Microsoft::VisualStudio::CppUnitTestFramework::TestClassImpl::`vector deleting destructor'
EXTRN	??_E?$basic_stringbuf@DU?$char_traits@D@std@@V?$allocator@D@2@@std@@UEAAPEAXI@Z:PROC ; std::basic_stringbuf<char,std::char_traits<char>,std::allocator<char> >::`vector deleting destructor'
EXTRN	?RandomU64@ui512_Unit_Tests@@YA_KPEA_K@Z:PROC	; ui512_Unit_Tests::RandomU64
EXTRN	?RandomFill@ui512_Unit_Tests@@YAXPEA_K0@Z:PROC	; ui512_Unit_Tests::RandomFill
EXTRN	?RunStats@ui512_Unit_Tests@@YAXPEAUperf_stats@1@W4Perf_Tests@1@@Z:PROC ; ui512_Unit_Tests::RunStats
EXTRN	??_E?$TestClass@Vui512_unit_tests_division@ui512_Unit_Tests@@@CppUnitTestFramework@VisualStudio@Microsoft@@UEAAPEAXI@Z:PROC ; Microsoft::VisualStudio::CppUnitTestFramework::TestClass<ui512_Unit_Tests::ui512_unit_tests_division>::`vector deleting destructor'
EXTRN	??_Eui512_unit_tests_division@ui512_Unit_Tests@@UEAAPEAXI@Z:PROC ; ui512_Unit_Tests::ui512_unit_tests_division::`vector deleting destructor'
EXTRN	??_E?$basic_stringstream@DU?$char_traits@D@std@@V?$allocator@D@2@@std@@UEAAPEAXI@Z:PROC ; std::basic_stringstream<char,std::char_traits<char>,std::allocator<char> >::`vector deleting destructor'
EXTRN	?imbue@?$basic_streambuf@_WU?$char_traits@_W@std@@@std@@MEAAXAEBVlocale@2@@Z:PROC ; std::basic_streambuf<wchar_t,std::char_traits<wchar_t> >::imbue
EXTRN	?sync@?$basic_streambuf@_WU?$char_traits@_W@std@@@std@@MEAAHXZ:PROC ; std::basic_streambuf<wchar_t,std::char_traits<wchar_t> >::sync
EXTRN	?setbuf@?$basic_streambuf@_WU?$char_traits@_W@std@@@std@@MEAAPEAV12@PEA_W_J@Z:PROC ; std::basic_streambuf<wchar_t,std::char_traits<wchar_t> >::setbuf
EXTRN	?xsputn@?$basic_streambuf@_WU?$char_traits@_W@std@@@std@@MEAA_JPEB_W_J@Z:PROC ; std::basic_streambuf<wchar_t,std::char_traits<wchar_t> >::xsputn
EXTRN	?xsgetn@?$basic_streambuf@_WU?$char_traits@_W@std@@@std@@MEAA_JPEA_W_J@Z:PROC ; std::basic_streambuf<wchar_t,std::char_traits<wchar_t> >::xsgetn
EXTRN	?uflow@?$basic_streambuf@_WU?$char_traits@_W@std@@@std@@MEAAGXZ:PROC ; std::basic_streambuf<wchar_t,std::char_traits<wchar_t> >::uflow
EXTRN	?showmanyc@?$basic_streambuf@_WU?$char_traits@_W@std@@@std@@MEAA_JXZ:PROC ; std::basic_streambuf<wchar_t,std::char_traits<wchar_t> >::showmanyc
EXTRN	?_Unlock@?$basic_streambuf@_WU?$char_traits@_W@std@@@std@@UEAAXXZ:PROC ; std::basic_streambuf<wchar_t,std::char_traits<wchar_t> >::_Unlock
EXTRN	?_Lock@?$basic_streambuf@_WU?$char_traits@_W@std@@@std@@UEAAXXZ:PROC ; std::basic_streambuf<wchar_t,std::char_traits<wchar_t> >::_Lock
EXTRN	?imbue@?$basic_streambuf@DU?$char_traits@D@std@@@std@@MEAAXAEBVlocale@2@@Z:PROC ; std::basic_streambuf<char,std::char_traits<char> >::imbue
EXTRN	?sync@?$basic_streambuf@DU?$char_traits@D@std@@@std@@MEAAHXZ:PROC ; std::basic_streambuf<char,std::char_traits<char> >::sync
EXTRN	?setbuf@?$basic_streambuf@DU?$char_traits@D@std@@@std@@MEAAPEAV12@PEAD_J@Z:PROC ; std::basic_streambuf<char,std::char_traits<char> >::setbuf
EXTRN	?xsputn@?$basic_streambuf@DU?$char_traits@D@std@@@std@@MEAA_JPEBD_J@Z:PROC ; std::basic_streambuf<char,std::char_traits<char> >::xsputn
EXTRN	?xsgetn@?$basic_streambuf@DU?$char_traits@D@std@@@std@@MEAA_JPEAD_J@Z:PROC ; std::basic_streambuf<char,std::char_traits<char> >::xsgetn
EXTRN	?uflow@?$basic_streambuf@DU?$char_traits@D@std@@@std@@MEAAHXZ:PROC ; std::basic_streambuf<char,std::char_traits<char> >::uflow
EXTRN	?showmanyc@?$basic_streambuf@DU?$char_traits@D@std@@@std@@MEAA_JXZ:PROC ; std::basic_streambuf<char,std::char_traits<char> >::showmanyc
EXTRN	?_Unlock@?$basic_streambuf@DU?$char_traits@D@std@@@std@@UEAAXXZ:PROC ; std::basic_streambuf<char,std::char_traits<char> >::_Unlock
EXTRN	?_Lock@?$basic_streambuf@DU?$char_traits@D@std@@@std@@UEAAXXZ:PROC ; std::basic_streambuf<char,std::char_traits<char> >::_Lock
EXTRN	_CxxThrowException:PROC
EXTRN	_RTC_CheckStackVars:PROC
EXTRN	_RTC_InitBase:PROC
EXTRN	_RTC_Shutdown:PROC
EXTRN	__CheckForDebuggerJustMyCode:PROC
EXTRN	__CxxFrameHandler4:PROC
EXTRN	__GSHandlerCheck:PROC
EXTRN	__GSHandlerCheck_EH4:PROC
EXTRN	__chkstk:PROC
EXTRN	__security_check_cookie:PROC
EXTRN	memcmp:PROC
EXTRN	strlen:PROC
EXTRN	wcslen:PROC
EXTRN	??_7type_info@@6B@:BYTE				; type_info::`vftable'
EXTRN	__imp_?_Id_cnt@id@locale@std@@0HA:DWORD
EXTRN	__imp_?id@?$ctype@_W@std@@2V0locale@2@A:QWORD
EXTRN	?test_run_count@ui512_Unit_Tests@@3HB:DWORD	; ui512_Unit_Tests::test_run_count
EXTRN	?Perf_Test_Parms@ui512_Unit_Tests@@3V?$vector@Uperf_stats@ui512_Unit_Tests@@V?$allocator@Uperf_stats@ui512_Unit_Tests@@@std@@@std@@A:BYTE ; ui512_Unit_Tests::Perf_Test_Parms
EXTRN	__security_cookie:QWORD
;	COMDAT ?_Psave@?$_Facetptr@V?$ctype@_W@std@@@std@@2PEBVfacet@locale@2@EB
_BSS	SEGMENT
?_Psave@?$_Facetptr@V?$ctype@_W@std@@@std@@2PEBVfacet@locale@2@EB DQ 01H DUP (?) ; std::_Facetptr<std::ctype<wchar_t> >::_Psave
_BSS	ENDS
;	COMDAT pdata
pdata	SEGMENT
$pdata$?__empty_global_delete@@YAXPEAX@Z DD imagerel $LN4
	DD	imagerel $LN4+42
	DD	imagerel $unwind$?__empty_global_delete@@YAXPEAX@Z
pdata	ENDS
;	COMDAT pdata
pdata	SEGMENT
$pdata$?__empty_global_delete@@YAXPEAX_K@Z DD imagerel $LN4
	DD	imagerel $LN4+47
	DD	imagerel $unwind$?__empty_global_delete@@YAXPEAX_K@Z
pdata	ENDS
;	COMDAT pdata
pdata	SEGMENT
$pdata$?__empty_global_delete@@YAXPEAXW4align_val_t@std@@@Z DD imagerel $LN4
	DD	imagerel $LN4+47
	DD	imagerel $unwind$?__empty_global_delete@@YAXPEAXW4align_val_t@std@@@Z
pdata	ENDS
;	COMDAT pdata
pdata	SEGMENT
$pdata$?__empty_global_delete@@YAXPEAX_KW4align_val_t@std@@@Z DD imagerel $LN4
	DD	imagerel $LN4+52
	DD	imagerel $unwind$?__empty_global_delete@@YAXPEAX_KW4align_val_t@std@@@Z
pdata	ENDS
;	COMDAT pdata
pdata	SEGMENT
$pdata$?AreEqual@regs@@QEBA_NPEAU1@@Z DD imagerel $LN5
	DD	imagerel $LN5+105
	DD	imagerel $unwind$?AreEqual@regs@@QEBA_NPEAU1@@Z
pdata	ENDS
;	COMDAT pdata
pdata	SEGMENT
$pdata$??2@YAPEAX_KPEAX@Z DD imagerel $LN4
	DD	imagerel $LN4+54
	DD	imagerel $unwind$??2@YAPEAX_KPEAX@Z
pdata	ENDS
;	COMDAT pdata
pdata	SEGMENT
$pdata$?_Is_constant_evaluated@std@@YA_NXZ DD imagerel $LN4
	DD	imagerel $LN4+40
	DD	imagerel $unwind$?_Is_constant_evaluated@std@@YA_NXZ
pdata	ENDS
;	COMDAT pdata
pdata	SEGMENT
$pdata$?is_constant_evaluated@std@@YA_NXZ DD imagerel $LN4
	DD	imagerel $LN4+40
	DD	imagerel $unwind$?is_constant_evaluated@std@@YA_NXZ
pdata	ENDS
;	COMDAT pdata
pdata	SEGMENT
$pdata$wmemcpy DD imagerel $LN3
	DD	imagerel $LN3+84
	DD	imagerel $unwind$wmemcpy
pdata	ENDS
;	COMDAT pdata
pdata	SEGMENT
$pdata$?copy@?$_Char_traits@_WG@std@@SAPEA_WQEA_WQEB_W_K@Z DD imagerel $LN8
	DD	imagerel $LN8+180
	DD	imagerel $unwind$?copy@?$_Char_traits@_WG@std@@SAPEA_WQEA_WQEB_W_K@Z
pdata	ENDS
;	COMDAT pdata
pdata	SEGMENT
$pdata$?move@?$_Char_traits@_WG@std@@SAPEA_WQEA_WQEB_W_K@Z DD imagerel $LN17
	DD	imagerel $LN17+334
	DD	imagerel $unwind$?move@?$_Char_traits@_WG@std@@SAPEA_WQEA_WQEB_W_K@Z
pdata	ENDS
;	COMDAT pdata
pdata	SEGMENT
$pdata$?length@?$_WChar_traits@_W@std@@SA_KPEB_W@Z DD imagerel $LN5
	DD	imagerel $LN5+81
	DD	imagerel $unwind$?length@?$_WChar_traits@_W@std@@SA_KPEB_W@Z
pdata	ENDS
;	COMDAT pdata
pdata	SEGMENT
$pdata$?assign@?$_WChar_traits@_W@std@@SAXAEA_WAEB_W@Z DD imagerel $LN4
	DD	imagerel $LN4+67
	DD	imagerel $unwind$?assign@?$_WChar_traits@_W@std@@SAXAEA_WAEB_W@Z
pdata	ENDS
;	COMDAT pdata
pdata	SEGMENT
$pdata$?eq@?$_WChar_traits@_W@std@@SA_N_W0@Z DD imagerel $LN6
	DD	imagerel $LN6+94
	DD	imagerel $unwind$?eq@?$_WChar_traits@_W@std@@SA_N_W0@Z
pdata	ENDS
;	COMDAT pdata
pdata	SEGMENT
$pdata$?to_char_type@?$_WChar_traits@_W@std@@SA_WG@Z DD imagerel $LN4
	DD	imagerel $LN4+49
	DD	imagerel $unwind$?to_char_type@?$_WChar_traits@_W@std@@SA_WG@Z
pdata	ENDS
;	COMDAT pdata
pdata	SEGMENT
$pdata$?to_int_type@?$_WChar_traits@_W@std@@SAG_W@Z DD imagerel $LN4
	DD	imagerel $LN4+49
	DD	imagerel $unwind$?to_int_type@?$_WChar_traits@_W@std@@SAG_W@Z
pdata	ENDS
;	COMDAT pdata
pdata	SEGMENT
$pdata$?eq_int_type@?$_WChar_traits@_W@std@@SA_NGG@Z DD imagerel $LN6
	DD	imagerel $LN6+94
	DD	imagerel $unwind$?eq_int_type@?$_WChar_traits@_W@std@@SA_NGG@Z
pdata	ENDS
;	COMDAT pdata
pdata	SEGMENT
$pdata$?not_eof@?$_WChar_traits@_W@std@@SAGG@Z DD imagerel $LN8
	DD	imagerel $LN8+145
	DD	imagerel $unwind$?not_eof@?$_WChar_traits@_W@std@@SAGG@Z
pdata	ENDS
;	COMDAT pdata
pdata	SEGMENT
$pdata$?eof@?$_WChar_traits@_W@std@@SAGXZ DD imagerel $LN4
	DD	imagerel $LN4+43
	DD	imagerel $unwind$?eof@?$_WChar_traits@_W@std@@SAGXZ
pdata	ENDS
;	COMDAT pdata
pdata	SEGMENT
$pdata$?copy@?$_Char_traits@DH@std@@SAPEADQEADQEBD_K@Z DD imagerel $LN8
	DD	imagerel $LN8+182
	DD	imagerel $unwind$?copy@?$_Char_traits@DH@std@@SAPEADQEADQEBD_K@Z
pdata	ENDS
;	COMDAT pdata
pdata	SEGMENT
$pdata$?move@?$_Char_traits@DH@std@@SAPEADQEADQEBD_K@Z DD imagerel $LN17
	DD	imagerel $LN17+345
	DD	imagerel $unwind$?move@?$_Char_traits@DH@std@@SAPEADQEADQEBD_K@Z
pdata	ENDS
;	COMDAT pdata
pdata	SEGMENT
$pdata$?assign@?$_Char_traits@DH@std@@SAPEADQEAD_KD@Z DD imagerel $LN7
	DD	imagerel $LN7+125
	DD	imagerel $unwind$?assign@?$_Char_traits@DH@std@@SAPEADQEAD_KD@Z
pdata	ENDS
;	COMDAT pdata
pdata	SEGMENT
$pdata$?compare@?$_Narrow_char_traits@DH@std@@SAHQEBD0_K@Z DD imagerel $LN4
	DD	imagerel $LN4+78
	DD	imagerel $unwind$?compare@?$_Narrow_char_traits@DH@std@@SAHQEBD0_K@Z
pdata	ENDS
;	COMDAT pdata
pdata	SEGMENT
$pdata$?length@?$_Narrow_char_traits@DH@std@@SA_KQEBD@Z DD imagerel $LN4
	DD	imagerel $LN4+54
	DD	imagerel $unwind$?length@?$_Narrow_char_traits@DH@std@@SA_KQEBD@Z
pdata	ENDS
;	COMDAT pdata
pdata	SEGMENT
$pdata$?assign@?$_Narrow_char_traits@DH@std@@SAPEADQEAD_KD@Z DD imagerel $LN5
	DD	imagerel $LN5+121
	DD	imagerel $unwind$?assign@?$_Narrow_char_traits@DH@std@@SAPEADQEAD_KD@Z
pdata	ENDS
;	COMDAT pdata
pdata	SEGMENT
$pdata$?assign@?$_Narrow_char_traits@DH@std@@SAXAEADAEBD@Z DD imagerel $LN4
	DD	imagerel $LN4+66
	DD	imagerel $unwind$?assign@?$_Narrow_char_traits@DH@std@@SAXAEADAEBD@Z
pdata	ENDS
;	COMDAT pdata
pdata	SEGMENT
$pdata$?eq@?$_Narrow_char_traits@DH@std@@SA_NDD@Z DD imagerel $LN6
	DD	imagerel $LN6+92
	DD	imagerel $unwind$?eq@?$_Narrow_char_traits@DH@std@@SA_NDD@Z
pdata	ENDS
;	COMDAT pdata
pdata	SEGMENT
$pdata$?to_char_type@?$_Narrow_char_traits@DH@std@@SADH@Z DD imagerel $LN4
	DD	imagerel $LN4+48
	DD	imagerel $unwind$?to_char_type@?$_Narrow_char_traits@DH@std@@SADH@Z
pdata	ENDS
;	COMDAT pdata
pdata	SEGMENT
$pdata$?to_int_type@?$_Narrow_char_traits@DH@std@@SAHD@Z DD imagerel $LN4
	DD	imagerel $LN4+48
	DD	imagerel $unwind$?to_int_type@?$_Narrow_char_traits@DH@std@@SAHD@Z
pdata	ENDS
;	COMDAT pdata
pdata	SEGMENT
$pdata$?eq_int_type@?$_Narrow_char_traits@DH@std@@SA_NHH@Z DD imagerel $LN6
	DD	imagerel $LN6+88
	DD	imagerel $unwind$?eq_int_type@?$_Narrow_char_traits@DH@std@@SA_NHH@Z
pdata	ENDS
;	COMDAT pdata
pdata	SEGMENT
$pdata$?not_eof@?$_Narrow_char_traits@DH@std@@SAHH@Z DD imagerel $LN8
	DD	imagerel $LN8+117
	DD	imagerel $unwind$?not_eof@?$_Narrow_char_traits@DH@std@@SAHH@Z
pdata	ENDS
;	COMDAT pdata
pdata	SEGMENT
$pdata$?eof@?$_Narrow_char_traits@DH@std@@SAHXZ DD imagerel $LN4
	DD	imagerel $LN4+43
	DD	imagerel $unwind$?eof@?$_Narrow_char_traits@DH@std@@SAHXZ
pdata	ENDS
;	COMDAT pdata
pdata	SEGMENT
$pdata$??$min@_K@std@@YAAEB_KAEB_K0@Z DD imagerel $LN6
	DD	imagerel $LN6+120
	DD	imagerel $unwind$??$min@_K@std@@YAAEB_KAEB_K0@Z
pdata	ENDS
;	COMDAT pdata
pdata	SEGMENT
$pdata$??0exception@std@@QEAA@QEBDH@Z DD imagerel $LN4
	DD	imagerel $LN4+117
	DD	imagerel $unwind$??0exception@std@@QEAA@QEBDH@Z
pdata	ENDS
;	COMDAT pdata
pdata	SEGMENT
$pdata$??0exception@std@@QEAA@AEBV01@@Z DD imagerel $LN4
	DD	imagerel $LN4+125
	DD	imagerel $unwind$??0exception@std@@QEAA@AEBV01@@Z
pdata	ENDS
;	COMDAT pdata
pdata	SEGMENT
$pdata$??1exception@std@@UEAA@XZ DD imagerel $LN4
	DD	imagerel $LN4+79
	DD	imagerel $unwind$??1exception@std@@UEAA@XZ
pdata	ENDS
;	COMDAT pdata
pdata	SEGMENT
$pdata$?what@exception@std@@UEBAPEBDXZ DD imagerel $LN5
	DD	imagerel $LN5+97
	DD	imagerel $unwind$?what@exception@std@@UEBAPEBDXZ
pdata	ENDS
;	COMDAT pdata
pdata	SEGMENT
$pdata$??_Gexception@std@@UEAAPEAXI@Z DD imagerel $LN5
	DD	imagerel $LN5+84
	DD	imagerel $unwind$??_Gexception@std@@UEAAPEAXI@Z
pdata	ENDS
;	COMDAT pdata
pdata	SEGMENT
$pdata$??0bad_alloc@std@@AEAA@QEBD@Z DD imagerel $LN4
	DD	imagerel $LN4+97
	DD	imagerel $unwind$??0bad_alloc@std@@AEAA@QEBD@Z
pdata	ENDS
;	COMDAT pdata
pdata	SEGMENT
$pdata$??1bad_alloc@std@@UEAA@XZ DD imagerel $LN4
	DD	imagerel $LN4+42
	DD	imagerel $unwind$??1bad_alloc@std@@UEAA@XZ
pdata	ENDS
;	COMDAT pdata
pdata	SEGMENT
$pdata$??0bad_alloc@std@@QEAA@AEBV01@@Z DD imagerel $LN4
	DD	imagerel $LN4+78
	DD	imagerel $unwind$??0bad_alloc@std@@QEAA@AEBV01@@Z
pdata	ENDS
;	COMDAT pdata
pdata	SEGMENT
$pdata$??_Gbad_alloc@std@@UEAAPEAXI@Z DD imagerel $LN5
	DD	imagerel $LN5+84
	DD	imagerel $unwind$??_Gbad_alloc@std@@UEAAPEAXI@Z
pdata	ENDS
;	COMDAT pdata
pdata	SEGMENT
$pdata$??0bad_array_new_length@std@@QEAA@XZ DD imagerel $LN4
	DD	imagerel $LN4+86
	DD	imagerel $unwind$??0bad_array_new_length@std@@QEAA@XZ
pdata	ENDS
;	COMDAT pdata
pdata	SEGMENT
$pdata$??1bad_array_new_length@std@@UEAA@XZ DD imagerel $LN4
	DD	imagerel $LN4+42
	DD	imagerel $unwind$??1bad_array_new_length@std@@UEAA@XZ
pdata	ENDS
;	COMDAT pdata
pdata	SEGMENT
$pdata$??0bad_array_new_length@std@@QEAA@AEBV01@@Z DD imagerel $LN4
	DD	imagerel $LN4+78
	DD	imagerel $unwind$??0bad_array_new_length@std@@QEAA@AEBV01@@Z
pdata	ENDS
;	COMDAT pdata
pdata	SEGMENT
$pdata$??_Gbad_array_new_length@std@@UEAAPEAXI@Z DD imagerel $LN5
	DD	imagerel $LN5+84
	DD	imagerel $unwind$??_Gbad_array_new_length@std@@UEAAPEAXI@Z
pdata	ENDS
;	COMDAT pdata
pdata	SEGMENT
$pdata$?_Throw_bad_array_new_length@std@@YAXXZ DD imagerel $LN3
	DD	imagerel $LN3+70
	DD	imagerel $unwind$?_Throw_bad_array_new_length@std@@YAXXZ
pdata	ENDS
;	COMDAT pdata
pdata	SEGMENT
$pdata$?_Allocate@_Default_allocate_traits@std@@SAPEAX_K@Z DD imagerel $LN3
	DD	imagerel $LN3+54
	DD	imagerel $unwind$?_Allocate@_Default_allocate_traits@std@@SAPEAX_K@Z
pdata	ENDS
;	COMDAT pdata
pdata	SEGMENT
$pdata$?_Adjust_manually_vector_aligned@std@@YAXAEAPEAXAEA_K@Z DD imagerel $LN8
	DD	imagerel $LN8+336
	DD	imagerel $unwind$?_Adjust_manually_vector_aligned@std@@YAXAEAPEAXAEA_K@Z
pdata	ENDS
;	COMDAT pdata
pdata	SEGMENT
$pdata$??0_Container_proxy@std@@QEAA@PEAU_Container_base12@1@@Z DD imagerel $LN4
	DD	imagerel $LN4+86
	DD	imagerel $unwind$??0_Container_proxy@std@@QEAA@PEAU_Container_base12@1@@Z
pdata	ENDS
;	COMDAT pdata
pdata	SEGMENT
$pdata$??0_Container_base12@std@@QEAA@XZ DD imagerel $LN4
	DD	imagerel $LN4+63
	DD	imagerel $unwind$??0_Container_base12@std@@QEAA@XZ
pdata	ENDS
;	COMDAT pdata
pdata	SEGMENT
$pdata$?_Orphan_all@_Container_base12@std@@QEAAXXZ DD imagerel $LN6
	DD	imagerel $LN6+82
	DD	imagerel $unwind$?_Orphan_all@_Container_base12@std@@QEAAXXZ
pdata	ENDS
;	COMDAT pdata
pdata	SEGMENT
$pdata$?_Orphan_all_unlocked_v3@_Container_base12@std@@AEAAXXZ DD imagerel $LN8
	DD	imagerel $LN8+135
	DD	imagerel $unwind$?_Orphan_all_unlocked_v3@_Container_base12@std@@AEAAXXZ
pdata	ENDS
;	COMDAT pdata
pdata	SEGMENT
$pdata$?_Orphan_all_locked_v3@_Container_base12@std@@AEAAXXZ DD imagerel $LN4
	DD	imagerel $LN4+155
	DD	imagerel $unwind$?_Orphan_all_locked_v3@_Container_base12@std@@AEAAXXZ
pdata	ENDS
;	COMDAT pdata
pdata	SEGMENT
$pdata$??0_Iterator_base12@std@@QEAA@XZ DD imagerel $LN4
	DD	imagerel $LN4+78
	DD	imagerel $unwind$??0_Iterator_base12@std@@QEAA@XZ
pdata	ENDS
;	COMDAT pdata
pdata	SEGMENT
$pdata$??0_Iterator_base12@std@@QEAA@AEBU01@@Z DD imagerel $LN4
	DD	imagerel $LN4+103
	DD	imagerel $unwind$??0_Iterator_base12@std@@QEAA@AEBU01@@Z
pdata	ENDS
;	COMDAT pdata
pdata	SEGMENT
$pdata$??4_Iterator_base12@std@@QEAAAEAU01@AEBU01@@Z DD imagerel $LN6
	DD	imagerel $LN6+108
	DD	imagerel $unwind$??4_Iterator_base12@std@@QEAAAEAU01@AEBU01@@Z
pdata	ENDS
;	COMDAT pdata
pdata	SEGMENT
$pdata$??1_Iterator_base12@std@@QEAA@XZ DD imagerel $LN6
	DD	imagerel $LN6+82
	DD	imagerel $unwind$??1_Iterator_base12@std@@QEAA@XZ
pdata	ENDS
;	COMDAT pdata
pdata	SEGMENT
$pdata$?_Adopt@_Iterator_base12@std@@QEAAXPEBU_Container_base12@2@@Z DD imagerel $LN6
	DD	imagerel $LN6+101
	DD	imagerel $unwind$?_Adopt@_Iterator_base12@std@@QEAAXPEBU_Container_base12@2@@Z
pdata	ENDS
;	COMDAT pdata
pdata	SEGMENT
$pdata$?_Getcont@_Iterator_base12@std@@QEBAPEBU_Container_base12@2@XZ DD imagerel $LN6
	DD	imagerel $LN6+95
	DD	imagerel $unwind$?_Getcont@_Iterator_base12@std@@QEBAPEBU_Container_base12@2@XZ
pdata	ENDS
;	COMDAT pdata
pdata	SEGMENT
$pdata$?_Assign_unlocked@_Iterator_base12@std@@AEAAXAEBU12@@Z DD imagerel $LN7
	DD	imagerel $LN7+125
	DD	imagerel $unwind$?_Assign_unlocked@_Iterator_base12@std@@AEAAXAEBU12@@Z
pdata	ENDS
;	COMDAT pdata
pdata	SEGMENT
$pdata$?_Assign_locked@_Iterator_base12@std@@AEAAXAEBU12@@Z DD imagerel $LN4
	DD	imagerel $LN4+167
	DD	imagerel $unwind$?_Assign_locked@_Iterator_base12@std@@AEAAXAEBU12@@Z
pdata	ENDS
;	COMDAT pdata
pdata	SEGMENT
$pdata$?_Adopt_unlocked@_Iterator_base12@std@@AEAAXPEBU_Container_base12@2@@Z DD imagerel $LN7
	DD	imagerel $LN7+176
	DD	imagerel $unwind$?_Adopt_unlocked@_Iterator_base12@std@@AEAAXPEBU_Container_base12@2@@Z
pdata	ENDS
;	COMDAT pdata
pdata	SEGMENT
$pdata$?_Adopt_locked@_Iterator_base12@std@@AEAAXPEBU_Container_base12@2@@Z DD imagerel $LN4
	DD	imagerel $LN4+167
	DD	imagerel $unwind$?_Adopt_locked@_Iterator_base12@std@@AEAAXPEBU_Container_base12@2@@Z
pdata	ENDS
;	COMDAT pdata
pdata	SEGMENT
$pdata$?_Orphan_me_unlocked_v3@_Iterator_base12@std@@AEAAXXZ DD imagerel $LN9
	DD	imagerel $LN9+229
	DD	imagerel $unwind$?_Orphan_me_unlocked_v3@_Iterator_base12@std@@AEAAXXZ
pdata	ENDS
;	COMDAT pdata
pdata	SEGMENT
$pdata$?_Orphan_me_locked_v3@_Iterator_base12@std@@AEAAXXZ DD imagerel $LN4
	DD	imagerel $LN4+155
	DD	imagerel $unwind$?_Orphan_me_locked_v3@_Iterator_base12@std@@AEAAXXZ
pdata	ENDS
;	COMDAT pdata
pdata	SEGMENT
$pdata$??$exchange@PEAU_Iterator_base12@std@@$$T@std@@YAPEAU_Iterator_base12@0@AEAPEAU10@$$QEA$$T@Z DD imagerel $LN4
	DD	imagerel $LN4+85
	DD	imagerel $unwind$??$exchange@PEAU_Iterator_base12@std@@$$T@std@@YAPEAU_Iterator_base12@0@AEAPEAU10@$$QEA$$T@Z
pdata	ENDS
;	COMDAT pdata
pdata	SEGMENT
$pdata$?_Release@_Basic_container_proxy_ptr12@std@@QEAAXXZ DD imagerel $LN4
	DD	imagerel $LN4+56
	DD	imagerel $unwind$?_Release@_Basic_container_proxy_ptr12@std@@QEAAXXZ
pdata	ENDS
;	COMDAT pdata
pdata	SEGMENT
$pdata$??0_Basic_container_proxy_ptr12@std@@IEAA@XZ DD imagerel $LN4
	DD	imagerel $LN4+63
	DD	imagerel $unwind$??0_Basic_container_proxy_ptr12@std@@IEAA@XZ
pdata	ENDS
;	COMDAT pdata
pdata	SEGMENT
$pdata$??$addressof@U_Container_base12@std@@@std@@YAPEAU_Container_base12@0@AEAU10@@Z DD imagerel $LN4
	DD	imagerel $LN4+49
	DD	imagerel $unwind$??$addressof@U_Container_base12@std@@@std@@YAPEAU_Container_base12@0@AEAU10@@Z
pdata	ENDS
;	COMDAT pdata
pdata	SEGMENT
$pdata$??$_Construct_in_place@U_Container_proxy@std@@PEAU_Container_base12@2@@std@@YAXAEAU_Container_proxy@0@$$QEAPEAU_Container_base12@0@@Z DD imagerel $LN6
	DD	imagerel $LN6+144
	DD	imagerel $unwind$??$_Construct_in_place@U_Container_proxy@std@@PEAU_Container_base12@2@@std@@YAXAEAU_Container_proxy@0@$$QEAPEAU_Container_base12@0@@Z
pdata	ENDS
;	COMDAT pdata
pdata	SEGMENT
$pdata$?_Xlen_string@std@@YAXXZ DD imagerel $LN3
	DD	imagerel $LN3+51
	DD	imagerel $unwind$?_Xlen_string@std@@YAXXZ
pdata	ENDS
;	COMDAT pdata
pdata	SEGMENT
$pdata$??0?$allocator@D@std@@QEAA@XZ DD imagerel $LN4
	DD	imagerel $LN4+49
	DD	imagerel $unwind$??0?$allocator@D@std@@QEAA@XZ
pdata	ENDS
;	COMDAT pdata
pdata	SEGMENT
$pdata$?deallocate@?$allocator@D@std@@QEAAXQEAD_K@Z DD imagerel $LN6
	DD	imagerel $LN6+158
	DD	imagerel $unwind$?deallocate@?$allocator@D@std@@QEAAXQEAD_K@Z
pdata	ENDS
;	COMDAT pdata
pdata	SEGMENT
$pdata$?allocate@?$allocator@D@std@@QEAAPEAD_K@Z DD imagerel $LN3
	DD	imagerel $LN3+67
	DD	imagerel $unwind$?allocate@?$allocator@D@std@@QEAAPEAD_K@Z
pdata	ENDS
;	COMDAT pdata
pdata	SEGMENT
$pdata$?max_size@?$_Default_allocator_traits@V?$allocator@D@std@@@std@@SA_KAEBV?$allocator@D@2@@Z DD imagerel $LN4
	DD	imagerel $LN4+49
	DD	imagerel $unwind$?max_size@?$_Default_allocator_traits@V?$allocator@D@std@@@std@@SA_KAEBV?$allocator@D@2@@Z
pdata	ENDS
;	COMDAT pdata
pdata	SEGMENT
$pdata$??0?$_String_val@U?$_Simple_types@D@std@@@std@@QEAA@XZ DD imagerel $LN4
	DD	imagerel $LN4+112
	DD	imagerel $unwind$??0?$_String_val@U?$_Simple_types@D@std@@@std@@QEAA@XZ
pdata	ENDS
;	COMDAT pdata
pdata	SEGMENT
$pdata$?_Myptr@?$_String_val@U?$_Simple_types@D@std@@@std@@QEAAPEADXZ DD imagerel $LN5
	DD	imagerel $LN5+100
	DD	imagerel $unwind$?_Myptr@?$_String_val@U?$_Simple_types@D@std@@@std@@QEAAPEADXZ
pdata	ENDS
;	COMDAT pdata
pdata	SEGMENT
$pdata$?_Myptr@?$_String_val@U?$_Simple_types@D@std@@@std@@QEBAPEBDXZ DD imagerel $LN5
	DD	imagerel $LN5+100
	DD	imagerel $unwind$?_Myptr@?$_String_val@U?$_Simple_types@D@std@@@std@@QEBAPEBDXZ
pdata	ENDS
;	COMDAT pdata
pdata	SEGMENT
$pdata$?_Large_mode_engaged@?$_String_val@U?$_Simple_types@D@std@@@std@@QEBA_NXZ DD imagerel $LN6
	DD	imagerel $LN6+85
	DD	imagerel $unwind$?_Large_mode_engaged@?$_String_val@U?$_Simple_types@D@std@@@std@@QEBA_NXZ
pdata	ENDS
;	COMDAT pdata
pdata	SEGMENT
$pdata$?_Activate_SSO_buffer@?$_String_val@U?$_Simple_types@D@std@@@std@@QEAAXXZ DD imagerel $LN8
	DD	imagerel $LN8+105
	DD	imagerel $unwind$?_Activate_SSO_buffer@?$_String_val@U?$_Simple_types@D@std@@@std@@QEAAXXZ
pdata	ENDS
;	COMDAT pdata
pdata	SEGMENT
$pdata$?_Check_offset@?$_String_val@U?$_Simple_types@D@std@@@std@@QEBAX_K@Z DD imagerel $LN4
	DD	imagerel $LN4+73
	DD	imagerel $unwind$?_Check_offset@?$_String_val@U?$_Simple_types@D@std@@@std@@QEBAX_K@Z
pdata	ENDS
;	COMDAT pdata
pdata	SEGMENT
$pdata$?_Xran@?$_String_val@U?$_Simple_types@D@std@@@std@@SAXXZ DD imagerel $LN3
	DD	imagerel $LN3+51
	DD	imagerel $unwind$?_Xran@?$_String_val@U?$_Simple_types@D@std@@@std@@SAXXZ
pdata	ENDS
;	COMDAT pdata
pdata	SEGMENT
$pdata$??0_Bxty@?$_String_val@U?$_Simple_types@D@std@@@std@@QEAA@XZ DD imagerel $LN4
	DD	imagerel $LN4+72
	DD	imagerel $unwind$??0_Bxty@?$_String_val@U?$_Simple_types@D@std@@@std@@QEAA@XZ
pdata	ENDS
;	COMDAT pdata
pdata	SEGMENT
$pdata$??1_Bxty@?$_String_val@U?$_Simple_types@D@std@@@std@@QEAA@XZ DD imagerel $LN4
	DD	imagerel $LN4+42
	DD	imagerel $unwind$??1_Bxty@?$_String_val@U?$_Simple_types@D@std@@@std@@QEAA@XZ
pdata	ENDS
;	COMDAT pdata
pdata	SEGMENT
$pdata$?_Switch_to_buf@_Bxty@?$_String_val@U?$_Simple_types@D@std@@@std@@QEAAXXZ DD imagerel $LN8
	DD	imagerel $LN8+120
	DD	imagerel $unwind$?_Switch_to_buf@_Bxty@?$_String_val@U?$_Simple_types@D@std@@@std@@QEAAXXZ
pdata	ENDS
;	COMDAT pdata
pdata	SEGMENT
$pdata$??1?$_String_val@U?$_Simple_types@D@std@@@std@@QEAA@XZ DD imagerel $LN4
	DD	imagerel $LN4+49
	DD	imagerel $unwind$??1?$_String_val@U?$_Simple_types@D@std@@@std@@QEAA@XZ
pdata	ENDS
;	COMDAT pdata
pdata	SEGMENT
$pdata$??0?$basic_string@DU?$char_traits@D@std@@V?$allocator@D@2@@std@@QEAA@AEBV?$allocator@D@1@@Z DD imagerel $LN4
	DD	imagerel $LN4+108
	DD	imagerel $unwind$??0?$basic_string@DU?$char_traits@D@std@@V?$allocator@D@2@@std@@QEAA@AEBV?$allocator@D@1@@Z
pdata	ENDS
;	COMDAT pdata
pdata	SEGMENT
$pdata$??0?$basic_string@DU?$char_traits@D@std@@V?$allocator@D@2@@std@@QEAA@QEBD@Z DD imagerel $LN4
	DD	imagerel $LN4+131
	DD	imagerel $unwind$??0?$basic_string@DU?$char_traits@D@std@@V?$allocator@D@2@@std@@QEAA@QEBD@Z
pdata	ENDS
;	COMDAT pdata
pdata	SEGMENT
$pdata$?dtor$0@?0???0?$basic_string@DU?$char_traits@D@std@@V?$allocator@D@2@@std@@QEAA@QEBD@Z@4HA DD imagerel ?dtor$0@?0???0?$basic_string@DU?$char_traits@D@std@@V?$allocator@D@2@@std@@QEAA@QEBD@Z@4HA
	DD	imagerel ?dtor$0@?0???0?$basic_string@DU?$char_traits@D@std@@V?$allocator@D@2@@std@@QEAA@QEBD@Z@4HA+39
	DD	imagerel $unwind$?dtor$0@?0???0?$basic_string@DU?$char_traits@D@std@@V?$allocator@D@2@@std@@QEAA@QEBD@Z@4HA
pdata	ENDS
;	COMDAT pdata
pdata	SEGMENT
$pdata$?_Deallocate_for_capacity@?$basic_string@DU?$char_traits@D@std@@V?$allocator@D@2@@std@@CAXAEAV?$allocator@D@2@QEAD_K@Z DD imagerel $LN4
	DD	imagerel $LN4+85
	DD	imagerel $unwind$?_Deallocate_for_capacity@?$basic_string@DU?$char_traits@D@std@@V?$allocator@D@2@@std@@CAXAEAV?$allocator@D@2@QEAD_K@Z
pdata	ENDS
;	COMDAT pdata
pdata	SEGMENT
$pdata$?_Construct_empty@?$basic_string@DU?$char_traits@D@std@@V?$allocator@D@2@@std@@AEAAXXZ DD imagerel $LN3
	DD	imagerel $LN3+168
	DD	imagerel $unwind$?_Construct_empty@?$basic_string@DU?$char_traits@D@std@@V?$allocator@D@2@@std@@AEAAXXZ
pdata	ENDS
;	COMDAT pdata
pdata	SEGMENT
$pdata$??1?$basic_string@DU?$char_traits@D@std@@V?$allocator@D@2@@std@@QEAA@XZ DD imagerel $LN4
	DD	imagerel $LN4+211
	DD	imagerel $unwind$??1?$basic_string@DU?$char_traits@D@std@@V?$allocator@D@2@@std@@QEAA@XZ
pdata	ENDS
;	COMDAT pdata
pdata	SEGMENT
$pdata$?assign@?$basic_string@DU?$char_traits@D@std@@V?$allocator@D@2@@std@@QEAAAEAV12@QEBD_K@Z DD imagerel $LN3
	DD	imagerel $LN3+78
	DD	imagerel $unwind$?assign@?$basic_string@DU?$char_traits@D@std@@V?$allocator@D@2@@std@@QEAAAEAV12@QEBD_K@Z
pdata	ENDS
;	COMDAT pdata
pdata	SEGMENT
$pdata$?insert@?$basic_string@DU?$char_traits@D@std@@V?$allocator@D@2@@std@@QEAAAEAV12@_K0D@Z DD imagerel $LN4
	DD	imagerel $LN4+346
	DD	imagerel $unwind$?insert@?$basic_string@DU?$char_traits@D@std@@V?$allocator@D@2@@std@@QEAAAEAV12@_K0D@Z
pdata	ENDS
;	COMDAT pdata
pdata	SEGMENT
$pdata$?insert@?$basic_string@DU?$char_traits@D@std@@V?$allocator@D@2@@std@@QEAA?AV?$_String_iterator@V?$_String_val@U?$_Simple_types@D@std@@@std@@@2@V?$_String_const_iterator@V?$_String_val@U?$_Simple_types@D@std@@@std@@@2@D@Z DD imagerel $LN10
	DD	imagerel $LN10+370
	DD	imagerel $unwind$?insert@?$basic_string@DU?$char_traits@D@std@@V?$allocator@D@2@@std@@QEAA?AV?$_String_iterator@V?$_String_val@U?$_Simple_types@D@std@@@std@@@2@V?$_String_const_iterator@V?$_String_val@U?$_Simple_types@D@std@@@std@@@2@D@Z
pdata	ENDS
;	COMDAT pdata
pdata	SEGMENT
$pdata$?dtor$0@?0??insert@?$basic_string@DU?$char_traits@D@std@@V?$allocator@D@2@@std@@QEAA?AV?$_String_iterator@V?$_String_val@U?$_Simple_types@D@std@@@std@@@2@V?$_String_const_iterator@V?$_String_val@U?$_Simple_types@D@std@@@std@@@2@D@Z@4HA DD imagerel ?dtor$0@?0??insert@?$basic_string@DU?$char_traits@D@std@@V?$allocator@D@2@@std@@QEAA?AV?$_String_iterator@V?$_String_val@U?$_Simple_types@D@std@@@std@@@2@V?$_String_const_iterator@V?$_String_val@U?$_Simple_types@D@std@@@std@@@2@D@Z@4HA
	DD	imagerel ?dtor$0@?0??insert@?$basic_string@DU?$char_traits@D@std@@V?$allocator@D@2@@std@@QEAA?AV?$_String_iterator@V?$_String_val@U?$_Simple_types@D@std@@@std@@@2@V?$_String_const_iterator@V?$_String_val@U?$_Simple_types@D@std@@@std@@@2@D@Z@4HA+39
	DD	imagerel $unwind$?dtor$0@?0??insert@?$basic_string@DU?$char_traits@D@std@@V?$allocator@D@2@@std@@QEAA?AV?$_String_iterator@V?$_String_val@U?$_Simple_types@D@std@@@std@@@2@V?$_String_const_iterator@V?$_String_val@U?$_Simple_types@D@std@@@std@@@2@D@Z@4HA
pdata	ENDS
;	COMDAT pdata
pdata	SEGMENT
$pdata$?begin@?$basic_string@DU?$char_traits@D@std@@V?$allocator@D@2@@std@@QEAA?AV?$_String_iterator@V?$_String_val@U?$_Simple_types@D@std@@@std@@@2@XZ DD imagerel $LN4
	DD	imagerel $LN4+133
	DD	imagerel $unwind$?begin@?$basic_string@DU?$char_traits@D@std@@V?$allocator@D@2@@std@@QEAA?AV?$_String_iterator@V?$_String_val@U?$_Simple_types@D@std@@@std@@@2@XZ
pdata	ENDS
;	COMDAT pdata
pdata	SEGMENT
$pdata$?c_str@?$basic_string@DU?$char_traits@D@std@@V?$allocator@D@2@@std@@QEBAPEBDXZ DD imagerel $LN4
	DD	imagerel $LN4+57
	DD	imagerel $unwind$?c_str@?$basic_string@DU?$char_traits@D@std@@V?$allocator@D@2@@std@@QEBAPEBDXZ
pdata	ENDS
;	COMDAT pdata
pdata	SEGMENT
$pdata$?max_size@?$basic_string@DU?$char_traits@D@std@@V?$allocator@D@2@@std@@QEBA_KXZ DD imagerel $LN4
	DD	imagerel $LN4+224
	DD	imagerel $unwind$?max_size@?$basic_string@DU?$char_traits@D@std@@V?$allocator@D@2@@std@@QEBA_KXZ
pdata	ENDS
;	COMDAT pdata
pdata	SEGMENT
$pdata$?_Equal@?$basic_string@DU?$char_traits@D@std@@V?$allocator@D@2@@std@@QEBA_NAEBV12@@Z DD imagerel $LN4
	DD	imagerel $LN4+160
	DD	imagerel $unwind$?_Equal@?$basic_string@DU?$char_traits@D@std@@V?$allocator@D@2@@std@@QEBA_NAEBV12@@Z
pdata	ENDS
;	COMDAT pdata
pdata	SEGMENT
$pdata$?_Calculate_growth@?$basic_string@DU?$char_traits@D@std@@V?$allocator@D@2@@std@@CA_K_K00@Z DD imagerel $LN6
	DD	imagerel $LN6+272
	DD	imagerel $unwind$?_Calculate_growth@?$basic_string@DU?$char_traits@D@std@@V?$allocator@D@2@@std@@CA_K_K00@Z
pdata	ENDS
;	COMDAT pdata
pdata	SEGMENT
$pdata$?_Calculate_growth@?$basic_string@DU?$char_traits@D@std@@V?$allocator@D@2@@std@@AEBA_K_K@Z DD imagerel $LN4
	DD	imagerel $LN4+110
	DD	imagerel $unwind$?_Calculate_growth@?$basic_string@DU?$char_traits@D@std@@V?$allocator@D@2@@std@@AEBA_K_K@Z
pdata	ENDS
;	COMDAT pdata
pdata	SEGMENT
$pdata$?_Tidy_deallocate@?$basic_string@DU?$char_traits@D@std@@V?$allocator@D@2@@std@@AEAAXXZ DD imagerel $LN5
	DD	imagerel $LN5+203
	DD	imagerel $unwind$?_Tidy_deallocate@?$basic_string@DU?$char_traits@D@std@@V?$allocator@D@2@@std@@AEAAXXZ
pdata	ENDS
;	COMDAT pdata
pdata	SEGMENT
$pdata$?_Getal@?$basic_string@DU?$char_traits@D@std@@V?$allocator@D@2@@std@@AEAAAEAV?$allocator@D@2@XZ DD imagerel $LN4
	DD	imagerel $LN4+57
	DD	imagerel $unwind$?_Getal@?$basic_string@DU?$char_traits@D@std@@V?$allocator@D@2@@std@@AEAAAEAV?$allocator@D@2@XZ
pdata	ENDS
;	COMDAT pdata
pdata	SEGMENT
$pdata$?_Getal@?$basic_string@DU?$char_traits@D@std@@V?$allocator@D@2@@std@@AEBAAEBV?$allocator@D@2@XZ DD imagerel $LN4
	DD	imagerel $LN4+57
	DD	imagerel $unwind$?_Getal@?$basic_string@DU?$char_traits@D@std@@V?$allocator@D@2@@std@@AEBAAEBV?$allocator@D@2@XZ
pdata	ENDS
;	COMDAT pdata
pdata	SEGMENT
$pdata$?_Get_first@?$_Compressed_pair@V?$allocator@D@std@@V?$_String_val@U?$_Simple_types@D@std@@@2@$00@std@@QEAAAEAV?$allocator@D@2@XZ DD imagerel $LN4
	DD	imagerel $LN4+49
	DD	imagerel $unwind$?_Get_first@?$_Compressed_pair@V?$allocator@D@std@@V?$_String_val@U?$_Simple_types@D@std@@@2@$00@std@@QEAAAEAV?$allocator@D@2@XZ
pdata	ENDS
;	COMDAT pdata
pdata	SEGMENT
$pdata$?_Get_first@?$_Compressed_pair@V?$allocator@D@std@@V?$_String_val@U?$_Simple_types@D@std@@@2@$00@std@@QEBAAEBV?$allocator@D@2@XZ DD imagerel $LN4
	DD	imagerel $LN4+49
	DD	imagerel $unwind$?_Get_first@?$_Compressed_pair@V?$allocator@D@std@@V?$_String_val@U?$_Simple_types@D@std@@@2@$00@std@@QEBAAEBV?$allocator@D@2@XZ
pdata	ENDS
;	COMDAT pdata
pdata	SEGMENT
$pdata$??1?$_Compressed_pair@V?$allocator@D@std@@V?$_String_val@U?$_Simple_types@D@std@@@2@$00@std@@QEAA@XZ DD imagerel $LN4
	DD	imagerel $LN4+45
	DD	imagerel $unwind$??1?$_Compressed_pair@V?$allocator@D@std@@V?$_String_val@U?$_Simple_types@D@std@@@2@$00@std@@QEAA@XZ
pdata	ENDS
;	COMDAT pdata
pdata	SEGMENT
$pdata$??0?$allocator@_W@std@@QEAA@XZ DD imagerel $LN4
	DD	imagerel $LN4+49
	DD	imagerel $unwind$??0?$allocator@_W@std@@QEAA@XZ
pdata	ENDS
;	COMDAT pdata
pdata	SEGMENT
$pdata$?deallocate@?$allocator@_W@std@@QEAAXQEA_W_K@Z DD imagerel $LN6
	DD	imagerel $LN6+164
	DD	imagerel $unwind$?deallocate@?$allocator@_W@std@@QEAAXQEA_W_K@Z
pdata	ENDS
;	COMDAT pdata
pdata	SEGMENT
$pdata$?allocate@?$allocator@_W@std@@QEAAPEA_W_K@Z DD imagerel $LN3
	DD	imagerel $LN3+67
	DD	imagerel $unwind$?allocate@?$allocator@_W@std@@QEAAPEA_W_K@Z
pdata	ENDS
;	COMDAT pdata
pdata	SEGMENT
$pdata$?max_size@?$_Default_allocator_traits@V?$allocator@_W@std@@@std@@SA_KAEBV?$allocator@_W@2@@Z DD imagerel $LN4
	DD	imagerel $LN4+52
	DD	imagerel $unwind$?max_size@?$_Default_allocator_traits@V?$allocator@_W@std@@@std@@SA_KAEBV?$allocator@_W@2@@Z
pdata	ENDS
;	COMDAT pdata
pdata	SEGMENT
$pdata$??0?$_String_val@U?$_Simple_types@_W@std@@@std@@QEAA@XZ DD imagerel $LN4
	DD	imagerel $LN4+112
	DD	imagerel $unwind$??0?$_String_val@U?$_Simple_types@_W@std@@@std@@QEAA@XZ
pdata	ENDS
;	COMDAT pdata
pdata	SEGMENT
$pdata$?_Myptr@?$_String_val@U?$_Simple_types@_W@std@@@std@@QEAAPEA_WXZ DD imagerel $LN5
	DD	imagerel $LN5+100
	DD	imagerel $unwind$?_Myptr@?$_String_val@U?$_Simple_types@_W@std@@@std@@QEAAPEA_WXZ
pdata	ENDS
;	COMDAT pdata
pdata	SEGMENT
$pdata$?_Myptr@?$_String_val@U?$_Simple_types@_W@std@@@std@@QEBAPEB_WXZ DD imagerel $LN5
	DD	imagerel $LN5+100
	DD	imagerel $unwind$?_Myptr@?$_String_val@U?$_Simple_types@_W@std@@@std@@QEBAPEB_WXZ
pdata	ENDS
;	COMDAT pdata
pdata	SEGMENT
$pdata$?_Large_mode_engaged@?$_String_val@U?$_Simple_types@_W@std@@@std@@QEBA_NXZ DD imagerel $LN6
	DD	imagerel $LN6+85
	DD	imagerel $unwind$?_Large_mode_engaged@?$_String_val@U?$_Simple_types@_W@std@@@std@@QEBA_NXZ
pdata	ENDS
;	COMDAT pdata
pdata	SEGMENT
$pdata$?_Activate_SSO_buffer@?$_String_val@U?$_Simple_types@_W@std@@@std@@QEAAXXZ DD imagerel $LN8
	DD	imagerel $LN8+102
	DD	imagerel $unwind$?_Activate_SSO_buffer@?$_String_val@U?$_Simple_types@_W@std@@@std@@QEAAXXZ
pdata	ENDS
;	COMDAT pdata
pdata	SEGMENT
$pdata$??0_Bxty@?$_String_val@U?$_Simple_types@_W@std@@@std@@QEAA@XZ DD imagerel $LN4
	DD	imagerel $LN4+72
	DD	imagerel $unwind$??0_Bxty@?$_String_val@U?$_Simple_types@_W@std@@@std@@QEAA@XZ
pdata	ENDS
;	COMDAT pdata
pdata	SEGMENT
$pdata$??1_Bxty@?$_String_val@U?$_Simple_types@_W@std@@@std@@QEAA@XZ DD imagerel $LN4
	DD	imagerel $LN4+42
	DD	imagerel $unwind$??1_Bxty@?$_String_val@U?$_Simple_types@_W@std@@@std@@QEAA@XZ
pdata	ENDS
;	COMDAT pdata
pdata	SEGMENT
$pdata$?_Switch_to_buf@_Bxty@?$_String_val@U?$_Simple_types@_W@std@@@std@@QEAAXXZ DD imagerel $LN8
	DD	imagerel $LN8+117
	DD	imagerel $unwind$?_Switch_to_buf@_Bxty@?$_String_val@U?$_Simple_types@_W@std@@@std@@QEAAXXZ
pdata	ENDS
;	COMDAT pdata
pdata	SEGMENT
$pdata$??1?$_String_val@U?$_Simple_types@_W@std@@@std@@QEAA@XZ DD imagerel $LN4
	DD	imagerel $LN4+49
	DD	imagerel $unwind$??1?$_String_val@U?$_Simple_types@_W@std@@@std@@QEAA@XZ
pdata	ENDS
;	COMDAT pdata
pdata	SEGMENT
$pdata$??0?$basic_string@_WU?$char_traits@_W@std@@V?$allocator@_W@2@@std@@QEAA@AEBV?$allocator@_W@1@@Z DD imagerel $LN4
	DD	imagerel $LN4+108
	DD	imagerel $unwind$??0?$basic_string@_WU?$char_traits@_W@std@@V?$allocator@_W@2@@std@@QEAA@AEBV?$allocator@_W@1@@Z
pdata	ENDS
;	COMDAT pdata
pdata	SEGMENT
$pdata$??0?$basic_string@_WU?$char_traits@_W@std@@V?$allocator@_W@2@@std@@QEAA@QEB_W@Z DD imagerel $LN4
	DD	imagerel $LN4+131
	DD	imagerel $unwind$??0?$basic_string@_WU?$char_traits@_W@std@@V?$allocator@_W@2@@std@@QEAA@QEB_W@Z
pdata	ENDS
;	COMDAT pdata
pdata	SEGMENT
$pdata$?dtor$0@?0???0?$basic_string@_WU?$char_traits@_W@std@@V?$allocator@_W@2@@std@@QEAA@QEB_W@Z@4HA DD imagerel ?dtor$0@?0???0?$basic_string@_WU?$char_traits@_W@std@@V?$allocator@_W@2@@std@@QEAA@QEB_W@Z@4HA
	DD	imagerel ?dtor$0@?0???0?$basic_string@_WU?$char_traits@_W@std@@V?$allocator@_W@2@@std@@QEAA@QEB_W@Z@4HA+39
	DD	imagerel $unwind$?dtor$0@?0???0?$basic_string@_WU?$char_traits@_W@std@@V?$allocator@_W@2@@std@@QEAA@QEB_W@Z@4HA
pdata	ENDS
;	COMDAT pdata
pdata	SEGMENT
$pdata$?_Deallocate_for_capacity@?$basic_string@_WU?$char_traits@_W@std@@V?$allocator@_W@2@@std@@CAXAEAV?$allocator@_W@2@QEA_W_K@Z DD imagerel $LN4
	DD	imagerel $LN4+85
	DD	imagerel $unwind$?_Deallocate_for_capacity@?$basic_string@_WU?$char_traits@_W@std@@V?$allocator@_W@2@@std@@CAXAEAV?$allocator@_W@2@QEA_W_K@Z
pdata	ENDS
;	COMDAT pdata
pdata	SEGMENT
$pdata$?_Construct_empty@?$basic_string@_WU?$char_traits@_W@std@@V?$allocator@_W@2@@std@@AEAAXXZ DD imagerel $LN3
	DD	imagerel $LN3+170
	DD	imagerel $unwind$?_Construct_empty@?$basic_string@_WU?$char_traits@_W@std@@V?$allocator@_W@2@@std@@AEAAXXZ
pdata	ENDS
;	COMDAT pdata
pdata	SEGMENT
$pdata$??1?$basic_string@_WU?$char_traits@_W@std@@V?$allocator@_W@2@@std@@QEAA@XZ DD imagerel $LN4
	DD	imagerel $LN4+211
	DD	imagerel $unwind$??1?$basic_string@_WU?$char_traits@_W@std@@V?$allocator@_W@2@@std@@QEAA@XZ
pdata	ENDS
;	COMDAT pdata
pdata	SEGMENT
$pdata$?assign@?$basic_string@_WU?$char_traits@_W@std@@V?$allocator@_W@2@@std@@QEAAAEAV12@QEB_W_K@Z DD imagerel $LN3
	DD	imagerel $LN3+78
	DD	imagerel $unwind$?assign@?$basic_string@_WU?$char_traits@_W@std@@V?$allocator@_W@2@@std@@QEAAAEAV12@QEB_W_K@Z
pdata	ENDS
;	COMDAT pdata
pdata	SEGMENT
$pdata$?c_str@?$basic_string@_WU?$char_traits@_W@std@@V?$allocator@_W@2@@std@@QEBAPEB_WXZ DD imagerel $LN4
	DD	imagerel $LN4+57
	DD	imagerel $unwind$?c_str@?$basic_string@_WU?$char_traits@_W@std@@V?$allocator@_W@2@@std@@QEBAPEB_WXZ
pdata	ENDS
;	COMDAT pdata
pdata	SEGMENT
$pdata$?max_size@?$basic_string@_WU?$char_traits@_W@std@@V?$allocator@_W@2@@std@@QEBA_KXZ DD imagerel $LN4
	DD	imagerel $LN4+230
	DD	imagerel $unwind$?max_size@?$basic_string@_WU?$char_traits@_W@std@@V?$allocator@_W@2@@std@@QEBA_KXZ
pdata	ENDS
;	COMDAT pdata
pdata	SEGMENT
$pdata$?_Calculate_growth@?$basic_string@_WU?$char_traits@_W@std@@V?$allocator@_W@2@@std@@CA_K_K00@Z DD imagerel $LN6
	DD	imagerel $LN6+272
	DD	imagerel $unwind$?_Calculate_growth@?$basic_string@_WU?$char_traits@_W@std@@V?$allocator@_W@2@@std@@CA_K_K00@Z
pdata	ENDS
;	COMDAT pdata
pdata	SEGMENT
$pdata$?_Calculate_growth@?$basic_string@_WU?$char_traits@_W@std@@V?$allocator@_W@2@@std@@AEBA_K_K@Z DD imagerel $LN4
	DD	imagerel $LN4+110
	DD	imagerel $unwind$?_Calculate_growth@?$basic_string@_WU?$char_traits@_W@std@@V?$allocator@_W@2@@std@@AEBA_K_K@Z
pdata	ENDS
;	COMDAT pdata
pdata	SEGMENT
$pdata$?_Tidy_deallocate@?$basic_string@_WU?$char_traits@_W@std@@V?$allocator@_W@2@@std@@AEAAXXZ DD imagerel $LN5
	DD	imagerel $LN5+205
	DD	imagerel $unwind$?_Tidy_deallocate@?$basic_string@_WU?$char_traits@_W@std@@V?$allocator@_W@2@@std@@AEAAXXZ
pdata	ENDS
;	COMDAT pdata
pdata	SEGMENT
$pdata$?_Getal@?$basic_string@_WU?$char_traits@_W@std@@V?$allocator@_W@2@@std@@AEAAAEAV?$allocator@_W@2@XZ DD imagerel $LN4
	DD	imagerel $LN4+57
	DD	imagerel $unwind$?_Getal@?$basic_string@_WU?$char_traits@_W@std@@V?$allocator@_W@2@@std@@AEAAAEAV?$allocator@_W@2@XZ
pdata	ENDS
;	COMDAT pdata
pdata	SEGMENT
$pdata$?_Getal@?$basic_string@_WU?$char_traits@_W@std@@V?$allocator@_W@2@@std@@AEBAAEBV?$allocator@_W@2@XZ DD imagerel $LN4
	DD	imagerel $LN4+57
	DD	imagerel $unwind$?_Getal@?$basic_string@_WU?$char_traits@_W@std@@V?$allocator@_W@2@@std@@AEBAAEBV?$allocator@_W@2@XZ
pdata	ENDS
;	COMDAT pdata
pdata	SEGMENT
$pdata$?_Get_first@?$_Compressed_pair@V?$allocator@_W@std@@V?$_String_val@U?$_Simple_types@_W@std@@@2@$00@std@@QEAAAEAV?$allocator@_W@2@XZ DD imagerel $LN4
	DD	imagerel $LN4+49
	DD	imagerel $unwind$?_Get_first@?$_Compressed_pair@V?$allocator@_W@std@@V?$_String_val@U?$_Simple_types@_W@std@@@2@$00@std@@QEAAAEAV?$allocator@_W@2@XZ
pdata	ENDS
;	COMDAT pdata
pdata	SEGMENT
$pdata$?_Get_first@?$_Compressed_pair@V?$allocator@_W@std@@V?$_String_val@U?$_Simple_types@_W@std@@@2@$00@std@@QEBAAEBV?$allocator@_W@2@XZ DD imagerel $LN4
	DD	imagerel $LN4+49
	DD	imagerel $unwind$?_Get_first@?$_Compressed_pair@V?$allocator@_W@std@@V?$_String_val@U?$_Simple_types@_W@std@@@2@$00@std@@QEBAAEBV?$allocator@_W@2@XZ
pdata	ENDS
;	COMDAT pdata
pdata	SEGMENT
$pdata$??1?$_Compressed_pair@V?$allocator@_W@std@@V?$_String_val@U?$_Simple_types@_W@std@@@2@$00@std@@QEAA@XZ DD imagerel $LN4
	DD	imagerel $LN4+45
	DD	imagerel $unwind$??1?$_Compressed_pair@V?$allocator@_W@std@@V?$_String_val@U?$_Simple_types@_W@std@@@2@$00@std@@QEAA@XZ
pdata	ENDS
;	COMDAT pdata
pdata	SEGMENT
$pdata$??0bad_cast@std@@QEAA@XZ DD imagerel $LN4
	DD	imagerel $LN4+92
	DD	imagerel $unwind$??0bad_cast@std@@QEAA@XZ
pdata	ENDS
;	COMDAT pdata
pdata	SEGMENT
$pdata$??1bad_cast@std@@UEAA@XZ DD imagerel $LN4
	DD	imagerel $LN4+42
	DD	imagerel $unwind$??1bad_cast@std@@UEAA@XZ
pdata	ENDS
;	COMDAT pdata
pdata	SEGMENT
$pdata$??0bad_cast@std@@QEAA@AEBV01@@Z DD imagerel $LN4
	DD	imagerel $LN4+78
	DD	imagerel $unwind$??0bad_cast@std@@QEAA@AEBV01@@Z
pdata	ENDS
;	COMDAT pdata
pdata	SEGMENT
$pdata$??_Gbad_cast@std@@UEAAPEAXI@Z DD imagerel $LN5
	DD	imagerel $LN5+84
	DD	imagerel $unwind$??_Gbad_cast@std@@UEAAPEAXI@Z
pdata	ENDS
;	COMDAT pdata
pdata	SEGMENT
$pdata$?_Throw_bad_cast@std@@YAXXZ DD imagerel $LN3
	DD	imagerel $LN3+70
	DD	imagerel $unwind$?_Throw_bad_cast@std@@YAXXZ
pdata	ENDS
;	COMDAT pdata
pdata	SEGMENT
$pdata$??1locale@std@@QEAA@XZ DD imagerel $LN7
	DD	imagerel $LN7+159
	DD	imagerel $unwind$??1locale@std@@QEAA@XZ
pdata	ENDS
;	COMDAT pdata
pdata	SEGMENT
$pdata$?_Getfacet@locale@std@@QEBAPEBVfacet@12@_K@Z DD imagerel $LN8
	DD	imagerel $LN8+209
	DD	imagerel $unwind$?_Getfacet@locale@std@@QEBAPEBVfacet@12@_K@Z
pdata	ENDS
;	COMDAT pdata
pdata	SEGMENT
$pdata$?_Maklocwcs@std@@YAPEA_WPEB_W@Z DD imagerel $LN4
	DD	imagerel $LN4+145
	DD	imagerel $unwind$?_Maklocwcs@std@@YAPEA_WPEB_W@Z
pdata	ENDS
;	COMDAT pdata
pdata	SEGMENT
$pdata$??$_Max_limit@_J@std@@YA_JXZ DD imagerel $LN4
	DD	imagerel $LN4+56
	DD	imagerel $unwind$??$_Max_limit@_J@std@@YA_JXZ
pdata	ENDS
;	COMDAT pdata
pdata	SEGMENT
$pdata$??0?$basic_stringstream@_WU?$char_traits@_W@std@@V?$allocator@_W@2@@std@@QEAA@XZ DD imagerel $LN8
	DD	imagerel $LN8+297
	DD	imagerel $unwind$??0?$basic_stringstream@_WU?$char_traits@_W@std@@V?$allocator@_W@2@@std@@QEAA@XZ
pdata	ENDS
;	COMDAT pdata
pdata	SEGMENT
$pdata$?dtor$0@?0???0?$basic_stringstream@_WU?$char_traits@_W@std@@V?$allocator@_W@2@@std@@QEAA@XZ@4HA DD imagerel ?dtor$0@?0???0?$basic_stringstream@_WU?$char_traits@_W@std@@V?$allocator@_W@2@@std@@QEAA@XZ@4HA
	DD	imagerel ?dtor$0@?0???0?$basic_stringstream@_WU?$char_traits@_W@std@@V?$allocator@_W@2@@std@@QEAA@XZ@4HA+67
	DD	imagerel $unwind$?dtor$0@?0???0?$basic_stringstream@_WU?$char_traits@_W@std@@V?$allocator@_W@2@@std@@QEAA@XZ@4HA
pdata	ENDS
;	COMDAT pdata
pdata	SEGMENT
$pdata$?dtor$1@?0???0?$basic_stringstream@_WU?$char_traits@_W@std@@V?$allocator@_W@2@@std@@QEAA@XZ@4HA DD imagerel ?dtor$1@?0???0?$basic_stringstream@_WU?$char_traits@_W@std@@V?$allocator@_W@2@@std@@QEAA@XZ@4HA
	DD	imagerel ?dtor$1@?0???0?$basic_stringstream@_WU?$char_traits@_W@std@@V?$allocator@_W@2@@std@@QEAA@XZ@4HA+44
	DD	imagerel $unwind$?dtor$1@?0???0?$basic_stringstream@_WU?$char_traits@_W@std@@V?$allocator@_W@2@@std@@QEAA@XZ@4HA
pdata	ENDS
;	COMDAT pdata
pdata	SEGMENT
$pdata$??1?$basic_stringstream@_WU?$char_traits@_W@std@@V?$allocator@_W@2@@std@@UEAA@XZ DD imagerel $LN4
	DD	imagerel $LN4+180
	DD	imagerel $unwind$??1?$basic_stringstream@_WU?$char_traits@_W@std@@V?$allocator@_W@2@@std@@UEAA@XZ
pdata	ENDS
;	COMDAT pdata
pdata	SEGMENT
$pdata$?str@?$basic_stringstream@_WU?$char_traits@_W@std@@V?$allocator@_W@2@@std@@QEGBA?AV?$basic_string@_WU?$char_traits@_W@std@@V?$allocator@_W@2@@2@XZ DD imagerel $LN5
	DD	imagerel $LN5+116
	DD	imagerel $unwind$?str@?$basic_stringstream@_WU?$char_traits@_W@std@@V?$allocator@_W@2@@std@@QEGBA?AV?$basic_string@_WU?$char_traits@_W@std@@V?$allocator@_W@2@@2@XZ
pdata	ENDS
;	COMDAT pdata
pdata	SEGMENT
$pdata$??0?$basic_stringbuf@_WU?$char_traits@_W@std@@V?$allocator@_W@2@@std@@QEAA@H@Z DD imagerel $LN4
	DD	imagerel $LN4+140
	DD	imagerel $unwind$??0?$basic_stringbuf@_WU?$char_traits@_W@std@@V?$allocator@_W@2@@std@@QEAA@H@Z
pdata	ENDS
;	COMDAT pdata
pdata	SEGMENT
$pdata$??1?$basic_stringbuf@_WU?$char_traits@_W@std@@V?$allocator@_W@2@@std@@UEAA@XZ DD imagerel $LN4
	DD	imagerel $LN4+86
	DD	imagerel $unwind$??1?$basic_stringbuf@_WU?$char_traits@_W@std@@V?$allocator@_W@2@@std@@UEAA@XZ
pdata	ENDS
;	COMDAT pdata
pdata	SEGMENT
$pdata$?_Get_buffer_view@?$basic_stringbuf@_WU?$char_traits@_W@std@@V?$allocator@_W@2@@std@@QEBA?AU_Buffer_view@12@XZ DD imagerel $LN8
	DD	imagerel $LN8+430
	DD	imagerel $unwind$?_Get_buffer_view@?$basic_stringbuf@_WU?$char_traits@_W@std@@V?$allocator@_W@2@@std@@QEBA?AU_Buffer_view@12@XZ
pdata	ENDS
;	COMDAT pdata
pdata	SEGMENT
$pdata$?str@?$basic_stringbuf@_WU?$char_traits@_W@std@@V?$allocator@_W@2@@std@@QEGBA?AV?$basic_string@_WU?$char_traits@_W@std@@V?$allocator@_W@2@@2@XZ DD imagerel $LN6
	DD	imagerel $LN6+237
	DD	imagerel $unwind$?str@?$basic_stringbuf@_WU?$char_traits@_W@std@@V?$allocator@_W@2@@std@@QEGBA?AV?$basic_string@_WU?$char_traits@_W@std@@V?$allocator@_W@2@@2@XZ
pdata	ENDS
;	COMDAT pdata
pdata	SEGMENT
$pdata$?dtor$0@?0??str@?$basic_stringbuf@_WU?$char_traits@_W@std@@V?$allocator@_W@2@@std@@QEGBA?AV?$basic_string@_WU?$char_traits@_W@std@@V?$allocator@_W@2@@2@XZ@4HA DD imagerel ?dtor$0@?0??str@?$basic_stringbuf@_WU?$char_traits@_W@std@@V?$allocator@_W@2@@std@@QEGBA?AV?$basic_string@_WU?$char_traits@_W@std@@V?$allocator@_W@2@@2@XZ@4HA
	DD	imagerel ?dtor$0@?0??str@?$basic_stringbuf@_WU?$char_traits@_W@std@@V?$allocator@_W@2@@std@@QEGBA?AV?$basic_string@_WU?$char_traits@_W@std@@V?$allocator@_W@2@@2@XZ@4HA+59
	DD	imagerel $unwind$?dtor$0@?0??str@?$basic_stringbuf@_WU?$char_traits@_W@std@@V?$allocator@_W@2@@std@@QEGBA?AV?$basic_string@_WU?$char_traits@_W@std@@V?$allocator@_W@2@@2@XZ@4HA
pdata	ENDS
;	COMDAT pdata
pdata	SEGMENT
$pdata$?overflow@?$basic_stringbuf@_WU?$char_traits@_W@std@@V?$allocator@_W@2@@std@@MEAAGG@Z DD imagerel $LN16
	DD	imagerel $LN16+889
	DD	imagerel $unwind$?overflow@?$basic_stringbuf@_WU?$char_traits@_W@std@@V?$allocator@_W@2@@std@@MEAAGG@Z
pdata	ENDS
;	COMDAT pdata
pdata	SEGMENT
$pdata$?pbackfail@?$basic_stringbuf@_WU?$char_traits@_W@std@@V?$allocator@_W@2@@std@@MEAAGG@Z DD imagerel $LN6
	DD	imagerel $LN6+314
	DD	imagerel $unwind$?pbackfail@?$basic_stringbuf@_WU?$char_traits@_W@std@@V?$allocator@_W@2@@std@@MEAAGG@Z
pdata	ENDS
;	COMDAT pdata
pdata	SEGMENT
$pdata$?underflow@?$basic_stringbuf@_WU?$char_traits@_W@std@@V?$allocator@_W@2@@std@@MEAAGXZ DD imagerel $LN8
	DD	imagerel $LN8+397
	DD	imagerel $unwind$?underflow@?$basic_stringbuf@_WU?$char_traits@_W@std@@V?$allocator@_W@2@@std@@MEAAGXZ
pdata	ENDS
;	COMDAT pdata
pdata	SEGMENT
$pdata$?seekoff@?$basic_stringbuf@_WU?$char_traits@_W@std@@V?$allocator@_W@2@@std@@MEAA?AV?$fpos@U_Mbstatet@@@2@_JHH@Z DD imagerel $LN31
	DD	imagerel $LN31+985
	DD	imagerel $unwind$?seekoff@?$basic_stringbuf@_WU?$char_traits@_W@std@@V?$allocator@_W@2@@std@@MEAA?AV?$fpos@U_Mbstatet@@@2@_JHH@Z
pdata	ENDS
;	COMDAT pdata
pdata	SEGMENT
$pdata$?seekpos@?$basic_stringbuf@_WU?$char_traits@_W@std@@V?$allocator@_W@2@@std@@MEAA?AV?$fpos@U_Mbstatet@@@2@V32@H@Z DD imagerel $LN18
	DD	imagerel $LN18+712
	DD	imagerel $unwind$?seekpos@?$basic_stringbuf@_WU?$char_traits@_W@std@@V?$allocator@_W@2@@std@@MEAA?AV?$fpos@U_Mbstatet@@@2@V32@H@Z
pdata	ENDS
;	COMDAT pdata
pdata	SEGMENT
$pdata$?_Tidy@?$basic_stringbuf@_WU?$char_traits@_W@std@@V?$allocator@_W@2@@std@@IEAAXXZ DD imagerel $LN7
	DD	imagerel $LN7+311
	DD	imagerel $unwind$?_Tidy@?$basic_stringbuf@_WU?$char_traits@_W@std@@V?$allocator@_W@2@@std@@IEAAXXZ
pdata	ENDS
;	COMDAT pdata
pdata	SEGMENT
$pdata$?_Getstate@?$basic_stringbuf@_WU?$char_traits@_W@std@@V?$allocator@_W@2@@std@@CAHH@Z DD imagerel $LN8
	DD	imagerel $LN8+139
	DD	imagerel $unwind$?_Getstate@?$basic_stringbuf@_WU?$char_traits@_W@std@@V?$allocator@_W@2@@std@@CAHH@Z
pdata	ENDS
;	COMDAT pdata
pdata	SEGMENT
$pdata$??_G?$basic_stringbuf@_WU?$char_traits@_W@std@@V?$allocator@_W@2@@std@@UEAAPEAXI@Z DD imagerel $LN5
	DD	imagerel $LN5+84
	DD	imagerel $unwind$??_G?$basic_stringbuf@_WU?$char_traits@_W@std@@V?$allocator@_W@2@@std@@UEAAPEAXI@Z
pdata	ENDS
;	COMDAT pdata
pdata	SEGMENT
$pdata$?__autoclassinit2@?$basic_stringstream@_WU?$char_traits@_W@std@@V?$allocator@_W@2@@std@@QEAAX_K@Z DD imagerel $LN4
	DD	imagerel $LN4+50
	DD	imagerel $unwind$?__autoclassinit2@?$basic_stringstream@_WU?$char_traits@_W@std@@V?$allocator@_W@2@@std@@QEAAX_K@Z
pdata	ENDS
;	COMDAT pdata
pdata	SEGMENT
$pdata$??_G?$basic_stringstream@_WU?$char_traits@_W@std@@V?$allocator@_W@2@@std@@UEAAPEAXI@Z DD imagerel $LN5
	DD	imagerel $LN5+108
	DD	imagerel $unwind$??_G?$basic_stringstream@_WU?$char_traits@_W@std@@V?$allocator@_W@2@@std@@UEAAPEAXI@Z
pdata	ENDS
;	COMDAT pdata
pdata	SEGMENT
$pdata$??_D?$basic_stringstream@_WU?$char_traits@_W@std@@V?$allocator@_W@2@@std@@QEAAXXZ DD imagerel $LN4
	DD	imagerel $LN4+74
	DD	imagerel $unwind$??_D?$basic_stringstream@_WU?$char_traits@_W@std@@V?$allocator@_W@2@@std@@QEAAXXZ
pdata	ENDS
;	COMDAT pdata
pdata	SEGMENT
$pdata$??$ToString@F@CppUnitTestFramework@VisualStudio@Microsoft@@YA?AV?$basic_string@_WU?$char_traits@_W@std@@V?$allocator@_W@2@@std@@AEBF@Z DD imagerel ??$ToString@F@CppUnitTestFramework@VisualStudio@Microsoft@@YA?AV?$basic_string@_WU?$char_traits@_W@std@@V?$allocator@_W@2@@std@@AEBF@Z
	DD	imagerel ??$ToString@F@CppUnitTestFramework@VisualStudio@Microsoft@@YA?AV?$basic_string@_WU?$char_traits@_W@std@@V?$allocator@_W@2@@std@@AEBF@Z+248
	DD	imagerel $unwind$??$ToString@F@CppUnitTestFramework@VisualStudio@Microsoft@@YA?AV?$basic_string@_WU?$char_traits@_W@std@@V?$allocator@_W@2@@std@@AEBF@Z
pdata	ENDS
;	COMDAT pdata
pdata	SEGMENT
$pdata$?dtor$0@?0???$ToString@F@CppUnitTestFramework@VisualStudio@Microsoft@@YA?AV?$basic_string@_WU?$char_traits@_W@std@@V?$allocator@_W@2@@std@@AEBF@Z@4HA DD imagerel ?dtor$0@?0???$ToString@F@CppUnitTestFramework@VisualStudio@Microsoft@@YA?AV?$basic_string@_WU?$char_traits@_W@std@@V?$allocator@_W@2@@std@@AEBF@Z@4HA
	DD	imagerel ?dtor$0@?0???$ToString@F@CppUnitTestFramework@VisualStudio@Microsoft@@YA?AV?$basic_string@_WU?$char_traits@_W@std@@V?$allocator@_W@2@@std@@AEBF@Z@4HA+36
	DD	imagerel $unwind$?dtor$0@?0???$ToString@F@CppUnitTestFramework@VisualStudio@Microsoft@@YA?AV?$basic_string@_WU?$char_traits@_W@std@@V?$allocator@_W@2@@std@@AEBF@Z@4HA
pdata	ENDS
;	COMDAT pdata
pdata	SEGMENT
$pdata$??$ToString@_K@CppUnitTestFramework@VisualStudio@Microsoft@@YA?AV?$basic_string@_WU?$char_traits@_W@std@@V?$allocator@_W@2@@std@@AEB_K@Z DD imagerel ??$ToString@_K@CppUnitTestFramework@VisualStudio@Microsoft@@YA?AV?$basic_string@_WU?$char_traits@_W@std@@V?$allocator@_W@2@@std@@AEB_K@Z
	DD	imagerel ??$ToString@_K@CppUnitTestFramework@VisualStudio@Microsoft@@YA?AV?$basic_string@_WU?$char_traits@_W@std@@V?$allocator@_W@2@@std@@AEB_K@Z+248
	DD	imagerel $unwind$??$ToString@_K@CppUnitTestFramework@VisualStudio@Microsoft@@YA?AV?$basic_string@_WU?$char_traits@_W@std@@V?$allocator@_W@2@@std@@AEB_K@Z
pdata	ENDS
;	COMDAT pdata
pdata	SEGMENT
$pdata$?dtor$0@?0???$ToString@_K@CppUnitTestFramework@VisualStudio@Microsoft@@YA?AV?$basic_string@_WU?$char_traits@_W@std@@V?$allocator@_W@2@@std@@AEB_K@Z@4HA DD imagerel ?dtor$0@?0???$ToString@_K@CppUnitTestFramework@VisualStudio@Microsoft@@YA?AV?$basic_string@_WU?$char_traits@_W@std@@V?$allocator@_W@2@@std@@AEB_K@Z@4HA
	DD	imagerel ?dtor$0@?0???$ToString@_K@CppUnitTestFramework@VisualStudio@Microsoft@@YA?AV?$basic_string@_WU?$char_traits@_W@std@@V?$allocator@_W@2@@std@@AEB_K@Z@4HA+36
	DD	imagerel $unwind$?dtor$0@?0???$ToString@_K@CppUnitTestFramework@VisualStudio@Microsoft@@YA?AV?$basic_string@_WU?$char_traits@_W@std@@V?$allocator@_W@2@@std@@AEB_K@Z@4HA
pdata	ENDS
;	COMDAT pdata
pdata	SEGMENT
$pdata$??$ToString@V?$basic_string@DU?$char_traits@D@std@@V?$allocator@D@2@@std@@@CppUnitTestFramework@VisualStudio@Microsoft@@YA?AV?$basic_string@_WU?$char_traits@_W@std@@V?$allocator@_W@2@@std@@AEBV?$basic_string@DU?$char_traits@D@std@@V?$allocator@D@2@@4@@Z DD imagerel ??$ToString@V?$basic_string@DU?$char_traits@D@std@@V?$allocator@D@2@@std@@@CppUnitTestFramework@VisualStudio@Microsoft@@YA?AV?$basic_string@_WU?$char_traits@_W@std@@V?$allocator@_W@2@@std@@AEBV?$basic_string@DU?$char_traits@D@std@@V?$allocator@D@2@@4@@Z
	DD	imagerel ??$ToString@V?$basic_string@DU?$char_traits@D@std@@V?$allocator@D@2@@std@@@CppUnitTestFramework@VisualStudio@Microsoft@@YA?AV?$basic_string@_WU?$char_traits@_W@std@@V?$allocator@_W@2@@std@@AEBV?$basic_string@DU?$char_traits@D@std@@V?$allocator@D@2@@4@@Z+255
	DD	imagerel $unwind$??$ToString@V?$basic_string@DU?$char_traits@D@std@@V?$allocator@D@2@@std@@@CppUnitTestFramework@VisualStudio@Microsoft@@YA?AV?$basic_string@_WU?$char_traits@_W@std@@V?$allocator@_W@2@@std@@AEBV?$basic_string@DU?$char_traits@D@std@@V?$allocator@D@2@@4@@Z
pdata	ENDS
;	COMDAT pdata
pdata	SEGMENT
$pdata$?dtor$0@?0???$ToString@V?$basic_string@DU?$char_traits@D@std@@V?$allocator@D@2@@std@@@CppUnitTestFramework@VisualStudio@Microsoft@@YA?AV?$basic_string@_WU?$char_traits@_W@std@@V?$allocator@_W@2@@std@@AEBV?$basic_string@DU?$char_traits@D@std@@V?$allocator@D@2@@4@@Z@4HA DD imagerel ?dtor$0@?0???$ToString@V?$basic_string@DU?$char_traits@D@std@@V?$allocator@D@2@@std@@@CppUnitTestFramework@VisualStudio@Microsoft@@YA?AV?$basic_string@_WU?$char_traits@_W@std@@V?$allocator@_W@2@@std@@AEBV?$basic_string@DU?$char_traits@D@std@@V?$allocator@D@2@@4@@Z@4HA
	DD	imagerel ?dtor$0@?0???$ToString@V?$basic_string@DU?$char_traits@D@std@@V?$allocator@D@2@@std@@@CppUnitTestFramework@VisualStudio@Microsoft@@YA?AV?$basic_string@_WU?$char_traits@_W@std@@V?$allocator@_W@2@@std@@AEBV?$basic_string@DU?$char_traits@D@std@@V?$allocator@D@2@@4@@Z@4HA+36
	DD	imagerel $unwind$?dtor$0@?0???$ToString@V?$basic_string@DU?$char_traits@D@std@@V?$allocator@D@2@@std@@@CppUnitTestFramework@VisualStudio@Microsoft@@YA?AV?$basic_string@_WU?$char_traits@_W@std@@V?$allocator@_W@2@@std@@AEBV?$basic_string@DU?$char_traits@D@std@@V?$allocator@D@2@@4@@Z@4HA
pdata	ENDS
;	COMDAT pdata
pdata	SEGMENT
$pdata$??$?6_WU?$char_traits@_W@std@@@std@@YAAEAV?$basic_ostream@_WU?$char_traits@_W@std@@@0@AEAV10@PEBD@Z DD imagerel $LN29
	DD	imagerel $LN29+1308
	DD	imagerel $unwind$??$?6_WU?$char_traits@_W@std@@@std@@YAAEAV?$basic_ostream@_WU?$char_traits@_W@std@@@0@AEAV10@PEBD@Z
pdata	ENDS
;	COMDAT pdata
pdata	SEGMENT
$pdata$?dtor$0@?0???$?6_WU?$char_traits@_W@std@@@std@@YAAEAV?$basic_ostream@_WU?$char_traits@_W@std@@@0@AEAV10@PEBD@Z@4HA DD imagerel ?dtor$0@?0???$?6_WU?$char_traits@_W@std@@@std@@YAAEAV?$basic_ostream@_WU?$char_traits@_W@std@@@0@AEAV10@PEBD@Z@4HA
	DD	imagerel ?dtor$0@?0???$?6_WU?$char_traits@_W@std@@@std@@YAAEAV?$basic_ostream@_WU?$char_traits@_W@std@@@0@AEAV10@PEBD@Z@4HA+36
	DD	imagerel $unwind$?dtor$0@?0???$?6_WU?$char_traits@_W@std@@@std@@YAAEAV?$basic_ostream@_WU?$char_traits@_W@std@@@0@AEAV10@PEBD@Z@4HA
pdata	ENDS
;	COMDAT pdata
pdata	SEGMENT
$pdata$?dtor$1@?0???$?6_WU?$char_traits@_W@std@@@std@@YAAEAV?$basic_ostream@_WU?$char_traits@_W@std@@@0@AEAV10@PEBD@Z@4HA DD imagerel ?dtor$1@?0???$?6_WU?$char_traits@_W@std@@@std@@YAAEAV?$basic_ostream@_WU?$char_traits@_W@std@@@0@AEAV10@PEBD@Z@4HA
	DD	imagerel ?dtor$1@?0???$?6_WU?$char_traits@_W@std@@@std@@YAAEAV?$basic_ostream@_WU?$char_traits@_W@std@@@0@AEAV10@PEBD@Z@4HA+39
	DD	imagerel $unwind$?dtor$1@?0???$?6_WU?$char_traits@_W@std@@@std@@YAAEAV?$basic_ostream@_WU?$char_traits@_W@std@@@0@AEAV10@PEBD@Z@4HA
pdata	ENDS
;	COMDAT pdata
pdata	SEGMENT
$pdata$?catch$2@?0???$?6_WU?$char_traits@_W@std@@@std@@YAAEAV?$basic_ostream@_WU?$char_traits@_W@std@@@0@AEAV10@PEBD@Z@4HA DD imagerel ?catch$2@?0???$?6_WU?$char_traits@_W@std@@@std@@YAAEAV?$basic_ostream@_WU?$char_traits@_W@std@@@0@AEAV10@PEBD@Z@4HA
	DD	imagerel ?catch$2@?0???$?6_WU?$char_traits@_W@std@@@std@@YAAEAV?$basic_ostream@_WU?$char_traits@_W@std@@@0@AEAV10@PEBD@Z@4HA+91
	DD	imagerel $unwind$?catch$2@?0???$?6_WU?$char_traits@_W@std@@@std@@YAAEAV?$basic_ostream@_WU?$char_traits@_W@std@@@0@AEAV10@PEBD@Z@4HA
pdata	ENDS
;	COMDAT pdata
pdata	SEGMENT
$pdata$??$?6_WU?$char_traits@_W@std@@@std@@YAAEAV?$basic_ostream@_WU?$char_traits@_W@std@@@0@AEAV10@PEB_W@Z DD imagerel $LN25
	DD	imagerel $LN25+1058
	DD	imagerel $unwind$??$?6_WU?$char_traits@_W@std@@@std@@YAAEAV?$basic_ostream@_WU?$char_traits@_W@std@@@0@AEAV10@PEB_W@Z
pdata	ENDS
;	COMDAT pdata
pdata	SEGMENT
$pdata$?dtor$0@?0???$?6_WU?$char_traits@_W@std@@@std@@YAAEAV?$basic_ostream@_WU?$char_traits@_W@std@@@0@AEAV10@PEB_W@Z@4HA DD imagerel ?dtor$0@?0???$?6_WU?$char_traits@_W@std@@@std@@YAAEAV?$basic_ostream@_WU?$char_traits@_W@std@@@0@AEAV10@PEB_W@Z@4HA
	DD	imagerel ?dtor$0@?0???$?6_WU?$char_traits@_W@std@@@std@@YAAEAV?$basic_ostream@_WU?$char_traits@_W@std@@@0@AEAV10@PEB_W@Z@4HA+36
	DD	imagerel $unwind$?dtor$0@?0???$?6_WU?$char_traits@_W@std@@@std@@YAAEAV?$basic_ostream@_WU?$char_traits@_W@std@@@0@AEAV10@PEB_W@Z@4HA
pdata	ENDS
;	COMDAT pdata
pdata	SEGMENT
$pdata$?catch$1@?0???$?6_WU?$char_traits@_W@std@@@std@@YAAEAV?$basic_ostream@_WU?$char_traits@_W@std@@@0@AEAV10@PEB_W@Z@4HA DD imagerel ?catch$1@?0???$?6_WU?$char_traits@_W@std@@@std@@YAAEAV?$basic_ostream@_WU?$char_traits@_W@std@@@0@AEAV10@PEB_W@Z@4HA
	DD	imagerel ?catch$1@?0???$?6_WU?$char_traits@_W@std@@@std@@YAAEAV?$basic_ostream@_WU?$char_traits@_W@std@@@0@AEAV10@PEB_W@Z@4HA+91
	DD	imagerel $unwind$?catch$1@?0???$?6_WU?$char_traits@_W@std@@@std@@YAAEAV?$basic_ostream@_WU?$char_traits@_W@std@@@0@AEAV10@PEB_W@Z@4HA
pdata	ENDS
;	COMDAT pdata
pdata	SEGMENT
$pdata$?IsTrue@Assert@CppUnitTestFramework@VisualStudio@Microsoft@@SAX_NPEB_WPEBU__LineInfo@234@@Z DD imagerel $LN3
	DD	imagerel $LN3+78
	DD	imagerel $unwind$?IsTrue@Assert@CppUnitTestFramework@VisualStudio@Microsoft@@SAX_NPEB_WPEBU__LineInfo@234@@Z
pdata	ENDS
;	COMDAT pdata
pdata	SEGMENT
$pdata$?GetAssertMessage@Assert@CppUnitTestFramework@VisualStudio@Microsoft@@CA?AV?$basic_string@_WU?$char_traits@_W@std@@V?$allocator@_W@2@@std@@_NAEBV56@1PEB_W@Z DD imagerel $LN5
	DD	imagerel $LN5+325
	DD	imagerel $unwind$?GetAssertMessage@Assert@CppUnitTestFramework@VisualStudio@Microsoft@@CA?AV?$basic_string@_WU?$char_traits@_W@std@@V?$allocator@_W@2@@std@@_NAEBV56@1PEB_W@Z
pdata	ENDS
;	COMDAT pdata
pdata	SEGMENT
$pdata$?WriteMessage@Logger@CppUnitTestFramework@VisualStudio@Microsoft@@SAXPEB_W@Z DD imagerel $LN3
	DD	imagerel $LN3+55
	DD	imagerel $unwind$?WriteMessage@Logger@CppUnitTestFramework@VisualStudio@Microsoft@@SAXPEB_W@Z
pdata	ENDS
;	COMDAT pdata
pdata	SEGMENT
$pdata$?WriteMessage@Logger@CppUnitTestFramework@VisualStudio@Microsoft@@SAXPEBD@Z DD imagerel $LN3
	DD	imagerel $LN3+55
	DD	imagerel $unwind$?WriteMessage@Logger@CppUnitTestFramework@VisualStudio@Microsoft@@SAXPEBD@Z
pdata	ENDS
;	COMDAT pdata
pdata	SEGMENT
$pdata$??0TestClassImpl@CppUnitTestFramework@VisualStudio@Microsoft@@QEAA@XZ DD imagerel $LN3
	DD	imagerel $LN3+66
	DD	imagerel $unwind$??0TestClassImpl@CppUnitTestFramework@VisualStudio@Microsoft@@QEAA@XZ
pdata	ENDS
;	COMDAT pdata
pdata	SEGMENT
$pdata$??1TestClassImpl@CppUnitTestFramework@VisualStudio@Microsoft@@UEAA@XZ DD imagerel $LN3
	DD	imagerel $LN3+59
	DD	imagerel $unwind$??1TestClassImpl@CppUnitTestFramework@VisualStudio@Microsoft@@UEAA@XZ
pdata	ENDS
;	COMDAT pdata
pdata	SEGMENT
$pdata$??0CrtHandlersSetter@TestClassImpl@CppUnitTestFramework@VisualStudio@Microsoft@@QEAA@XZ DD imagerel $LN4
	DD	imagerel $LN4+163
	DD	imagerel $unwind$??0CrtHandlersSetter@TestClassImpl@CppUnitTestFramework@VisualStudio@Microsoft@@QEAA@XZ
pdata	ENDS
;	COMDAT pdata
pdata	SEGMENT
$pdata$??1CrtHandlersSetter@TestClassImpl@CppUnitTestFramework@VisualStudio@Microsoft@@QEAA@XZ DD imagerel $LN5
	DD	imagerel $LN5+121
	DD	imagerel $unwind$??1CrtHandlersSetter@TestClassImpl@CppUnitTestFramework@VisualStudio@Microsoft@@QEAA@XZ
pdata	ENDS
;	COMDAT pdata
pdata	SEGMENT
$pdata$??_GTestClassImpl@CppUnitTestFramework@VisualStudio@Microsoft@@UEAAPEAXI@Z DD imagerel $LN4
	DD	imagerel $LN4+84
	DD	imagerel $unwind$??_GTestClassImpl@CppUnitTestFramework@VisualStudio@Microsoft@@UEAAPEAXI@Z
pdata	ENDS
;	COMDAT pdata
pdata	SEGMENT
$pdata$??$_Getvals@_W@?$time_get@DV?$istreambuf_iterator@DU?$char_traits@D@std@@@std@@@std@@IEAAX_WAEBV_Locinfo@1@@Z DD imagerel $LN3
	DD	imagerel $LN3+182
	DD	imagerel $unwind$??$_Getvals@_W@?$time_get@DV?$istreambuf_iterator@DU?$char_traits@D@std@@@std@@@std@@IEAAX_WAEBV_Locinfo@1@@Z
pdata	ENDS
;	COMDAT pdata
pdata	SEGMENT
$pdata$??$_Getvals@_W@?$time_get@_WV?$istreambuf_iterator@_WU?$char_traits@_W@std@@@std@@@std@@IEAAX_WAEBV_Locinfo@1@@Z DD imagerel $LN3
	DD	imagerel $LN3+182
	DD	imagerel $unwind$??$_Getvals@_W@?$time_get@_WV?$istreambuf_iterator@_WU?$char_traits@_W@std@@@std@@@std@@IEAAX_WAEBV_Locinfo@1@@Z
pdata	ENDS
;	COMDAT pdata
pdata	SEGMENT
$pdata$??$max@_K@std@@YAAEB_KAEB_K0@Z DD imagerel $LN6
	DD	imagerel $LN6+120
	DD	imagerel $unwind$??$max@_K@std@@YAAEB_KAEB_K0@Z
pdata	ENDS
;	COMDAT pdata
pdata	SEGMENT
$pdata$??0?$basic_stringbuf@DU?$char_traits@D@std@@V?$allocator@D@2@@std@@QEAA@H@Z DD imagerel $LN4
	DD	imagerel $LN4+140
	DD	imagerel $unwind$??0?$basic_stringbuf@DU?$char_traits@D@std@@V?$allocator@D@2@@std@@QEAA@H@Z
pdata	ENDS
;	COMDAT pdata
pdata	SEGMENT
$pdata$??1?$basic_stringbuf@DU?$char_traits@D@std@@V?$allocator@D@2@@std@@UEAA@XZ DD imagerel $LN4
	DD	imagerel $LN4+86
	DD	imagerel $unwind$??1?$basic_stringbuf@DU?$char_traits@D@std@@V?$allocator@D@2@@std@@UEAA@XZ
pdata	ENDS
;	COMDAT pdata
pdata	SEGMENT
$pdata$?_Get_buffer_view@?$basic_stringbuf@DU?$char_traits@D@std@@V?$allocator@D@2@@std@@QEBA?AU_Buffer_view@12@XZ DD imagerel $LN8
	DD	imagerel $LN8+421
	DD	imagerel $unwind$?_Get_buffer_view@?$basic_stringbuf@DU?$char_traits@D@std@@V?$allocator@D@2@@std@@QEBA?AU_Buffer_view@12@XZ
pdata	ENDS
;	COMDAT pdata
pdata	SEGMENT
$pdata$?str@?$basic_stringbuf@DU?$char_traits@D@std@@V?$allocator@D@2@@std@@QEGBA?AV?$basic_string@DU?$char_traits@D@std@@V?$allocator@D@2@@2@XZ DD imagerel $LN6
	DD	imagerel $LN6+237
	DD	imagerel $unwind$?str@?$basic_stringbuf@DU?$char_traits@D@std@@V?$allocator@D@2@@std@@QEGBA?AV?$basic_string@DU?$char_traits@D@std@@V?$allocator@D@2@@2@XZ
pdata	ENDS
;	COMDAT pdata
pdata	SEGMENT
$pdata$?dtor$0@?0??str@?$basic_stringbuf@DU?$char_traits@D@std@@V?$allocator@D@2@@std@@QEGBA?AV?$basic_string@DU?$char_traits@D@std@@V?$allocator@D@2@@2@XZ@4HA DD imagerel ?dtor$0@?0??str@?$basic_stringbuf@DU?$char_traits@D@std@@V?$allocator@D@2@@std@@QEGBA?AV?$basic_string@DU?$char_traits@D@std@@V?$allocator@D@2@@2@XZ@4HA
	DD	imagerel ?dtor$0@?0??str@?$basic_stringbuf@DU?$char_traits@D@std@@V?$allocator@D@2@@std@@QEGBA?AV?$basic_string@DU?$char_traits@D@std@@V?$allocator@D@2@@2@XZ@4HA+59
	DD	imagerel $unwind$?dtor$0@?0??str@?$basic_stringbuf@DU?$char_traits@D@std@@V?$allocator@D@2@@std@@QEGBA?AV?$basic_string@DU?$char_traits@D@std@@V?$allocator@D@2@@2@XZ@4HA
pdata	ENDS
;	COMDAT pdata
pdata	SEGMENT
$pdata$?overflow@?$basic_stringbuf@DU?$char_traits@D@std@@V?$allocator@D@2@@std@@MEAAHH@Z DD imagerel $LN16
	DD	imagerel $LN16+875
	DD	imagerel $unwind$?overflow@?$basic_stringbuf@DU?$char_traits@D@std@@V?$allocator@D@2@@std@@MEAAHH@Z
pdata	ENDS
;	COMDAT pdata
pdata	SEGMENT
$pdata$?pbackfail@?$basic_stringbuf@DU?$char_traits@D@std@@V?$allocator@D@2@@std@@MEAAHH@Z DD imagerel $LN6
	DD	imagerel $LN6+298
	DD	imagerel $unwind$?pbackfail@?$basic_stringbuf@DU?$char_traits@D@std@@V?$allocator@D@2@@std@@MEAAHH@Z
pdata	ENDS
;	COMDAT pdata
pdata	SEGMENT
$pdata$?underflow@?$basic_stringbuf@DU?$char_traits@D@std@@V?$allocator@D@2@@std@@MEAAHXZ DD imagerel $LN8
	DD	imagerel $LN8+397
	DD	imagerel $unwind$?underflow@?$basic_stringbuf@DU?$char_traits@D@std@@V?$allocator@D@2@@std@@MEAAHXZ
pdata	ENDS
;	COMDAT pdata
pdata	SEGMENT
$pdata$?seekoff@?$basic_stringbuf@DU?$char_traits@D@std@@V?$allocator@D@2@@std@@MEAA?AV?$fpos@U_Mbstatet@@@2@_JHH@Z DD imagerel $LN31
	DD	imagerel $LN31+978
	DD	imagerel $unwind$?seekoff@?$basic_stringbuf@DU?$char_traits@D@std@@V?$allocator@D@2@@std@@MEAA?AV?$fpos@U_Mbstatet@@@2@_JHH@Z
pdata	ENDS
;	COMDAT pdata
pdata	SEGMENT
$pdata$?seekpos@?$basic_stringbuf@DU?$char_traits@D@std@@V?$allocator@D@2@@std@@MEAA?AV?$fpos@U_Mbstatet@@@2@V32@H@Z DD imagerel $LN18
	DD	imagerel $LN18+711
	DD	imagerel $unwind$?seekpos@?$basic_stringbuf@DU?$char_traits@D@std@@V?$allocator@D@2@@std@@MEAA?AV?$fpos@U_Mbstatet@@@2@V32@H@Z
pdata	ENDS
;	COMDAT pdata
pdata	SEGMENT
$pdata$?_Tidy@?$basic_stringbuf@DU?$char_traits@D@std@@V?$allocator@D@2@@std@@IEAAXXZ DD imagerel $LN7
	DD	imagerel $LN7+308
	DD	imagerel $unwind$?_Tidy@?$basic_stringbuf@DU?$char_traits@D@std@@V?$allocator@D@2@@std@@IEAAXXZ
pdata	ENDS
;	COMDAT pdata
pdata	SEGMENT
$pdata$?_Getstate@?$basic_stringbuf@DU?$char_traits@D@std@@V?$allocator@D@2@@std@@CAHH@Z DD imagerel $LN8
	DD	imagerel $LN8+139
	DD	imagerel $unwind$?_Getstate@?$basic_stringbuf@DU?$char_traits@D@std@@V?$allocator@D@2@@std@@CAHH@Z
pdata	ENDS
;	COMDAT pdata
pdata	SEGMENT
$pdata$??_G?$basic_stringbuf@DU?$char_traits@D@std@@V?$allocator@D@2@@std@@UEAAPEAXI@Z DD imagerel $LN5
	DD	imagerel $LN5+84
	DD	imagerel $unwind$??_G?$basic_stringbuf@DU?$char_traits@D@std@@V?$allocator@D@2@@std@@UEAAPEAXI@Z
pdata	ENDS
;	COMDAT pdata
pdata	SEGMENT
$pdata$?__New@?$TestClass@Vui512_unit_tests_division@ui512_Unit_Tests@@@CppUnitTestFramework@VisualStudio@Microsoft@@SAPEAVTestClassImpl@234@XZ DD imagerel $LN7
	DD	imagerel $LN7+238
	DD	imagerel $unwind$?__New@?$TestClass@Vui512_unit_tests_division@ui512_Unit_Tests@@@CppUnitTestFramework@VisualStudio@Microsoft@@SAPEAVTestClassImpl@234@XZ
pdata	ENDS
;	COMDAT pdata
pdata	SEGMENT
$pdata$?dtor$0@?0??__New@?$TestClass@Vui512_unit_tests_division@ui512_Unit_Tests@@@CppUnitTestFramework@VisualStudio@Microsoft@@SAPEAVTestClassImpl@234@XZ@4HA DD imagerel ?dtor$0@?0??__New@?$TestClass@Vui512_unit_tests_division@ui512_Unit_Tests@@@CppUnitTestFramework@VisualStudio@Microsoft@@SAPEAVTestClassImpl@234@XZ@4HA
	DD	imagerel ?dtor$0@?0??__New@?$TestClass@Vui512_unit_tests_division@ui512_Unit_Tests@@@CppUnitTestFramework@VisualStudio@Microsoft@@SAPEAVTestClassImpl@234@XZ@4HA+36
	DD	imagerel $unwind$?dtor$0@?0??__New@?$TestClass@Vui512_unit_tests_division@ui512_Unit_Tests@@@CppUnitTestFramework@VisualStudio@Microsoft@@SAPEAVTestClassImpl@234@XZ@4HA
pdata	ENDS
;	COMDAT pdata
pdata	SEGMENT
$pdata$?dtor$1@?0??__New@?$TestClass@Vui512_unit_tests_division@ui512_Unit_Tests@@@CppUnitTestFramework@VisualStudio@Microsoft@@SAPEAVTestClassImpl@234@XZ@4HA DD imagerel ?dtor$1@?0??__New@?$TestClass@Vui512_unit_tests_division@ui512_Unit_Tests@@@CppUnitTestFramework@VisualStudio@Microsoft@@SAPEAVTestClassImpl@234@XZ@4HA
	DD	imagerel ?dtor$1@?0??__New@?$TestClass@Vui512_unit_tests_division@ui512_Unit_Tests@@@CppUnitTestFramework@VisualStudio@Microsoft@@SAPEAVTestClassImpl@234@XZ@4HA+44
	DD	imagerel $unwind$?dtor$1@?0??__New@?$TestClass@Vui512_unit_tests_division@ui512_Unit_Tests@@@CppUnitTestFramework@VisualStudio@Microsoft@@SAPEAVTestClassImpl@234@XZ@4HA
pdata	ENDS
;	COMDAT pdata
pdata	SEGMENT
$pdata$?__Delete@?$TestClass@Vui512_unit_tests_division@ui512_Unit_Tests@@@CppUnitTestFramework@VisualStudio@Microsoft@@SAXPEAVTestClassImpl@234@@Z DD imagerel $LN6
	DD	imagerel $LN6+217
	DD	imagerel $unwind$?__Delete@?$TestClass@Vui512_unit_tests_division@ui512_Unit_Tests@@@CppUnitTestFramework@VisualStudio@Microsoft@@SAXPEAVTestClassImpl@234@@Z
pdata	ENDS
;	COMDAT pdata
pdata	SEGMENT
$pdata$?dtor$0@?0??__Delete@?$TestClass@Vui512_unit_tests_division@ui512_Unit_Tests@@@CppUnitTestFramework@VisualStudio@Microsoft@@SAXPEAVTestClassImpl@234@@Z@4HA DD imagerel ?dtor$0@?0??__Delete@?$TestClass@Vui512_unit_tests_division@ui512_Unit_Tests@@@CppUnitTestFramework@VisualStudio@Microsoft@@SAXPEAVTestClassImpl@234@@Z@4HA
	DD	imagerel ?dtor$0@?0??__Delete@?$TestClass@Vui512_unit_tests_division@ui512_Unit_Tests@@@CppUnitTestFramework@VisualStudio@Microsoft@@SAXPEAVTestClassImpl@234@@Z@4HA+36
	DD	imagerel $unwind$?dtor$0@?0??__Delete@?$TestClass@Vui512_unit_tests_division@ui512_Unit_Tests@@@CppUnitTestFramework@VisualStudio@Microsoft@@SAXPEAVTestClassImpl@234@@Z@4HA
pdata	ENDS
;	COMDAT pdata
pdata	SEGMENT
$pdata$??1?$TestClass@Vui512_unit_tests_division@ui512_Unit_Tests@@@CppUnitTestFramework@VisualStudio@Microsoft@@UEAA@XZ DD imagerel $LN4
	DD	imagerel $LN4+72
	DD	imagerel $unwind$??1?$TestClass@Vui512_unit_tests_division@ui512_Unit_Tests@@@CppUnitTestFramework@VisualStudio@Microsoft@@UEAA@XZ
pdata	ENDS
;	COMDAT pdata
pdata	SEGMENT
$pdata$?__Invoke@?$TestClass@Vui512_unit_tests_division@ui512_Unit_Tests@@@CppUnitTestFramework@VisualStudio@Microsoft@@UEAAXP8TestClassImpl@234@EAAXXZ@Z DD imagerel $LN4
	DD	imagerel $LN4+162
	DD	imagerel $unwind$?__Invoke@?$TestClass@Vui512_unit_tests_division@ui512_Unit_Tests@@@CppUnitTestFramework@VisualStudio@Microsoft@@UEAAXP8TestClassImpl@234@EAAXXZ@Z
pdata	ENDS
;	COMDAT pdata
pdata	SEGMENT
$pdata$?dtor$0@?0??__Invoke@?$TestClass@Vui512_unit_tests_division@ui512_Unit_Tests@@@CppUnitTestFramework@VisualStudio@Microsoft@@UEAAXP8TestClassImpl@234@EAAXXZ@Z@4HA DD imagerel ?dtor$0@?0??__Invoke@?$TestClass@Vui512_unit_tests_division@ui512_Unit_Tests@@@CppUnitTestFramework@VisualStudio@Microsoft@@UEAAXP8TestClassImpl@234@EAAXXZ@Z@4HA
	DD	imagerel ?dtor$0@?0??__Invoke@?$TestClass@Vui512_unit_tests_division@ui512_Unit_Tests@@@CppUnitTestFramework@VisualStudio@Microsoft@@UEAAXP8TestClassImpl@234@EAAXXZ@Z@4HA+36
	DD	imagerel $unwind$?dtor$0@?0??__Invoke@?$TestClass@Vui512_unit_tests_division@ui512_Unit_Tests@@@CppUnitTestFramework@VisualStudio@Microsoft@@UEAAXP8TestClassImpl@234@EAAXXZ@Z@4HA
pdata	ENDS
;	COMDAT pdata
pdata	SEGMENT
$pdata$?__GetTestClassInfo@?$TestClass@Vui512_unit_tests_division@ui512_Unit_Tests@@@CppUnitTestFramework@VisualStudio@Microsoft@@SAPEBUTestClassInfo@234@XZ DD imagerel $LN3
	DD	imagerel $LN3+45
	DD	imagerel $unwind$?__GetTestClassInfo@?$TestClass@Vui512_unit_tests_division@ui512_Unit_Tests@@@CppUnitTestFramework@VisualStudio@Microsoft@@SAPEBUTestClassInfo@234@XZ
pdata	ENDS
;	COMDAT pdata
pdata	SEGMENT
$pdata$?__GetTestVersion@?$TestClass@Vui512_unit_tests_division@ui512_Unit_Tests@@@CppUnitTestFramework@VisualStudio@Microsoft@@SAPEBUTestDataVersion@234@XZ DD imagerel $LN3
	DD	imagerel $LN3+45
	DD	imagerel $unwind$?__GetTestVersion@?$TestClass@Vui512_unit_tests_division@ui512_Unit_Tests@@@CppUnitTestFramework@VisualStudio@Microsoft@@SAPEBUTestDataVersion@234@XZ
pdata	ENDS
;	COMDAT pdata
pdata	SEGMENT
$pdata$??0?$TestClass@Vui512_unit_tests_division@ui512_Unit_Tests@@@CppUnitTestFramework@VisualStudio@Microsoft@@QEAA@XZ DD imagerel $LN4
	DD	imagerel $LN4+66
	DD	imagerel $unwind$??0?$TestClass@Vui512_unit_tests_division@ui512_Unit_Tests@@@CppUnitTestFramework@VisualStudio@Microsoft@@QEAA@XZ
pdata	ENDS
;	COMDAT pdata
pdata	SEGMENT
$pdata$??_G?$TestClass@Vui512_unit_tests_division@ui512_Unit_Tests@@@CppUnitTestFramework@VisualStudio@Microsoft@@UEAAPEAXI@Z DD imagerel $LN4
	DD	imagerel $LN4+84
	DD	imagerel $unwind$??_G?$TestClass@Vui512_unit_tests_division@ui512_Unit_Tests@@@CppUnitTestFramework@VisualStudio@Microsoft@@UEAAPEAXI@Z
pdata	ENDS
;	COMDAT pdata
pdata	SEGMENT
$pdata$?__GetTestMethodInfo_ui512_01_div_pt1@ui512_unit_tests_division@ui512_Unit_Tests@@CAPEBUMemberMethodInfo@CppUnitTestFramework@VisualStudio@Microsoft@@XZ DD imagerel $LN3
	DD	imagerel $LN3+71
	DD	imagerel $unwind$?__GetTestMethodInfo_ui512_01_div_pt1@ui512_unit_tests_division@ui512_Unit_Tests@@CAPEBUMemberMethodInfo@CppUnitTestFramework@VisualStudio@Microsoft@@XZ
pdata	ENDS
;	COMDAT pdata
pdata	SEGMENT
$pdata$?ui512_01_div_pt1@ui512_unit_tests_division@ui512_Unit_Tests@@AEAAXXZ DD imagerel $LN45
	DD	imagerel $LN45+3919
	DD	imagerel $unwind$?ui512_01_div_pt1@ui512_unit_tests_division@ui512_Unit_Tests@@AEAAXXZ
pdata	ENDS
;	COMDAT pdata
pdata	SEGMENT
$pdata$?dtor$0@?0??ui512_01_div_pt1@ui512_unit_tests_division@ui512_Unit_Tests@@AEAAXXZ@4HA DD imagerel ?dtor$0@?0??ui512_01_div_pt1@ui512_unit_tests_division@ui512_Unit_Tests@@AEAAXXZ@4HA
	DD	imagerel ?dtor$0@?0??ui512_01_div_pt1@ui512_unit_tests_division@ui512_Unit_Tests@@AEAAXXZ@4HA+51
	DD	imagerel $unwind$?dtor$0@?0??ui512_01_div_pt1@ui512_unit_tests_division@ui512_Unit_Tests@@AEAAXXZ@4HA
pdata	ENDS
;	COMDAT pdata
pdata	SEGMENT
$pdata$?dtor$1@?0??ui512_01_div_pt1@ui512_unit_tests_division@ui512_Unit_Tests@@AEAAXXZ@4HA DD imagerel ?dtor$1@?0??ui512_01_div_pt1@ui512_unit_tests_division@ui512_Unit_Tests@@AEAAXXZ@4HA
	DD	imagerel ?dtor$1@?0??ui512_01_div_pt1@ui512_unit_tests_division@ui512_Unit_Tests@@AEAAXXZ@4HA+51
	DD	imagerel $unwind$?dtor$1@?0??ui512_01_div_pt1@ui512_unit_tests_division@ui512_Unit_Tests@@AEAAXXZ@4HA
pdata	ENDS
;	COMDAT pdata
pdata	SEGMENT
$pdata$?dtor$2@?0??ui512_01_div_pt1@ui512_unit_tests_division@ui512_Unit_Tests@@AEAAXXZ@4HA DD imagerel ?dtor$2@?0??ui512_01_div_pt1@ui512_unit_tests_division@ui512_Unit_Tests@@AEAAXXZ@4HA
	DD	imagerel ?dtor$2@?0??ui512_01_div_pt1@ui512_unit_tests_division@ui512_Unit_Tests@@AEAAXXZ@4HA+51
	DD	imagerel $unwind$?dtor$2@?0??ui512_01_div_pt1@ui512_unit_tests_division@ui512_Unit_Tests@@AEAAXXZ@4HA
pdata	ENDS
;	COMDAT pdata
pdata	SEGMENT
$pdata$?dtor$3@?0??ui512_01_div_pt1@ui512_unit_tests_division@ui512_Unit_Tests@@AEAAXXZ@4HA DD imagerel ?dtor$3@?0??ui512_01_div_pt1@ui512_unit_tests_division@ui512_Unit_Tests@@AEAAXXZ@4HA
	DD	imagerel ?dtor$3@?0??ui512_01_div_pt1@ui512_unit_tests_division@ui512_Unit_Tests@@AEAAXXZ@4HA+51
	DD	imagerel $unwind$?dtor$3@?0??ui512_01_div_pt1@ui512_unit_tests_division@ui512_Unit_Tests@@AEAAXXZ@4HA
pdata	ENDS
;	COMDAT pdata
pdata	SEGMENT
$pdata$?dtor$4@?0??ui512_01_div_pt1@ui512_unit_tests_division@ui512_Unit_Tests@@AEAAXXZ@4HA DD imagerel ?dtor$4@?0??ui512_01_div_pt1@ui512_unit_tests_division@ui512_Unit_Tests@@AEAAXXZ@4HA
	DD	imagerel ?dtor$4@?0??ui512_01_div_pt1@ui512_unit_tests_division@ui512_Unit_Tests@@AEAAXXZ@4HA+51
	DD	imagerel $unwind$?dtor$4@?0??ui512_01_div_pt1@ui512_unit_tests_division@ui512_Unit_Tests@@AEAAXXZ@4HA
pdata	ENDS
;	COMDAT pdata
pdata	SEGMENT
$pdata$?dtor$5@?0??ui512_01_div_pt1@ui512_unit_tests_division@ui512_Unit_Tests@@AEAAXXZ@4HA DD imagerel ?dtor$5@?0??ui512_01_div_pt1@ui512_unit_tests_division@ui512_Unit_Tests@@AEAAXXZ@4HA
	DD	imagerel ?dtor$5@?0??ui512_01_div_pt1@ui512_unit_tests_division@ui512_Unit_Tests@@AEAAXXZ@4HA+51
	DD	imagerel $unwind$?dtor$5@?0??ui512_01_div_pt1@ui512_unit_tests_division@ui512_Unit_Tests@@AEAAXXZ@4HA
pdata	ENDS
;	COMDAT pdata
pdata	SEGMENT
$pdata$?dtor$6@?0??ui512_01_div_pt1@ui512_unit_tests_division@ui512_Unit_Tests@@AEAAXXZ@4HA DD imagerel ?dtor$6@?0??ui512_01_div_pt1@ui512_unit_tests_division@ui512_Unit_Tests@@AEAAXXZ@4HA
	DD	imagerel ?dtor$6@?0??ui512_01_div_pt1@ui512_unit_tests_division@ui512_Unit_Tests@@AEAAXXZ@4HA+51
	DD	imagerel $unwind$?dtor$6@?0??ui512_01_div_pt1@ui512_unit_tests_division@ui512_Unit_Tests@@AEAAXXZ@4HA
pdata	ENDS
;	COMDAT pdata
pdata	SEGMENT
$pdata$?dtor$7@?0??ui512_01_div_pt1@ui512_unit_tests_division@ui512_Unit_Tests@@AEAAXXZ@4HA DD imagerel ?dtor$7@?0??ui512_01_div_pt1@ui512_unit_tests_division@ui512_Unit_Tests@@AEAAXXZ@4HA
	DD	imagerel ?dtor$7@?0??ui512_01_div_pt1@ui512_unit_tests_division@ui512_Unit_Tests@@AEAAXXZ@4HA+51
	DD	imagerel $unwind$?dtor$7@?0??ui512_01_div_pt1@ui512_unit_tests_division@ui512_Unit_Tests@@AEAAXXZ@4HA
pdata	ENDS
;	COMDAT pdata
pdata	SEGMENT
$pdata$?dtor$8@?0??ui512_01_div_pt1@ui512_unit_tests_division@ui512_Unit_Tests@@AEAAXXZ@4HA DD imagerel ?dtor$8@?0??ui512_01_div_pt1@ui512_unit_tests_division@ui512_Unit_Tests@@AEAAXXZ@4HA
	DD	imagerel ?dtor$8@?0??ui512_01_div_pt1@ui512_unit_tests_division@ui512_Unit_Tests@@AEAAXXZ@4HA+51
	DD	imagerel $unwind$?dtor$8@?0??ui512_01_div_pt1@ui512_unit_tests_division@ui512_Unit_Tests@@AEAAXXZ@4HA
pdata	ENDS
;	COMDAT pdata
pdata	SEGMENT
$pdata$?dtor$9@?0??ui512_01_div_pt1@ui512_unit_tests_division@ui512_Unit_Tests@@AEAAXXZ@4HA DD imagerel ?dtor$9@?0??ui512_01_div_pt1@ui512_unit_tests_division@ui512_Unit_Tests@@AEAAXXZ@4HA
	DD	imagerel ?dtor$9@?0??ui512_01_div_pt1@ui512_unit_tests_division@ui512_Unit_Tests@@AEAAXXZ@4HA+51
	DD	imagerel $unwind$?dtor$9@?0??ui512_01_div_pt1@ui512_unit_tests_division@ui512_Unit_Tests@@AEAAXXZ@4HA
pdata	ENDS
;	COMDAT pdata
pdata	SEGMENT
$pdata$?dtor$10@?0??ui512_01_div_pt1@ui512_unit_tests_division@ui512_Unit_Tests@@AEAAXXZ@4HA DD imagerel ?dtor$10@?0??ui512_01_div_pt1@ui512_unit_tests_division@ui512_Unit_Tests@@AEAAXXZ@4HA
	DD	imagerel ?dtor$10@?0??ui512_01_div_pt1@ui512_unit_tests_division@ui512_Unit_Tests@@AEAAXXZ@4HA+51
	DD	imagerel $unwind$?dtor$10@?0??ui512_01_div_pt1@ui512_unit_tests_division@ui512_Unit_Tests@@AEAAXXZ@4HA
pdata	ENDS
;	COMDAT pdata
pdata	SEGMENT
$pdata$?dtor$11@?0??ui512_01_div_pt1@ui512_unit_tests_division@ui512_Unit_Tests@@AEAAXXZ@4HA DD imagerel ?dtor$11@?0??ui512_01_div_pt1@ui512_unit_tests_division@ui512_Unit_Tests@@AEAAXXZ@4HA
	DD	imagerel ?dtor$11@?0??ui512_01_div_pt1@ui512_unit_tests_division@ui512_Unit_Tests@@AEAAXXZ@4HA+51
	DD	imagerel $unwind$?dtor$11@?0??ui512_01_div_pt1@ui512_unit_tests_division@ui512_Unit_Tests@@AEAAXXZ@4HA
pdata	ENDS
;	COMDAT pdata
pdata	SEGMENT
$pdata$?__GetTestMethodInfo_ui512_01_div_pt2@ui512_unit_tests_division@ui512_Unit_Tests@@CAPEBUMemberMethodInfo@CppUnitTestFramework@VisualStudio@Microsoft@@XZ DD imagerel $LN3
	DD	imagerel $LN3+71
	DD	imagerel $unwind$?__GetTestMethodInfo_ui512_01_div_pt2@ui512_unit_tests_division@ui512_Unit_Tests@@CAPEBUMemberMethodInfo@CppUnitTestFramework@VisualStudio@Microsoft@@XZ
pdata	ENDS
;	COMDAT pdata
pdata	SEGMENT
$pdata$?ui512_01_div_pt2@ui512_unit_tests_division@ui512_Unit_Tests@@AEAAXXZ DD imagerel $LN9
	DD	imagerel $LN9+1328
	DD	imagerel $unwind$?ui512_01_div_pt2@ui512_unit_tests_division@ui512_Unit_Tests@@AEAAXXZ
pdata	ENDS
;	COMDAT pdata
pdata	SEGMENT
$pdata$?dtor$0@?0??ui512_01_div_pt2@ui512_unit_tests_division@ui512_Unit_Tests@@AEAAXXZ@4HA DD imagerel ?dtor$0@?0??ui512_01_div_pt2@ui512_unit_tests_division@ui512_Unit_Tests@@AEAAXXZ@4HA
	DD	imagerel ?dtor$0@?0??ui512_01_div_pt2@ui512_unit_tests_division@ui512_Unit_Tests@@AEAAXXZ@4HA+51
	DD	imagerel $unwind$?dtor$0@?0??ui512_01_div_pt2@ui512_unit_tests_division@ui512_Unit_Tests@@AEAAXXZ@4HA
pdata	ENDS
;	COMDAT pdata
pdata	SEGMENT
$pdata$?dtor$1@?0??ui512_01_div_pt2@ui512_unit_tests_division@ui512_Unit_Tests@@AEAAXXZ@4HA DD imagerel ?dtor$1@?0??ui512_01_div_pt2@ui512_unit_tests_division@ui512_Unit_Tests@@AEAAXXZ@4HA
	DD	imagerel ?dtor$1@?0??ui512_01_div_pt2@ui512_unit_tests_division@ui512_Unit_Tests@@AEAAXXZ@4HA+51
	DD	imagerel $unwind$?dtor$1@?0??ui512_01_div_pt2@ui512_unit_tests_division@ui512_Unit_Tests@@AEAAXXZ@4HA
pdata	ENDS
;	COMDAT pdata
pdata	SEGMENT
$pdata$?dtor$2@?0??ui512_01_div_pt2@ui512_unit_tests_division@ui512_Unit_Tests@@AEAAXXZ@4HA DD imagerel ?dtor$2@?0??ui512_01_div_pt2@ui512_unit_tests_division@ui512_Unit_Tests@@AEAAXXZ@4HA
	DD	imagerel ?dtor$2@?0??ui512_01_div_pt2@ui512_unit_tests_division@ui512_Unit_Tests@@AEAAXXZ@4HA+51
	DD	imagerel $unwind$?dtor$2@?0??ui512_01_div_pt2@ui512_unit_tests_division@ui512_Unit_Tests@@AEAAXXZ@4HA
pdata	ENDS
;	COMDAT pdata
pdata	SEGMENT
$pdata$?__GetTestMethodInfo_ui512_01_div_pt3@ui512_unit_tests_division@ui512_Unit_Tests@@CAPEBUMemberMethodInfo@CppUnitTestFramework@VisualStudio@Microsoft@@XZ DD imagerel $LN3
	DD	imagerel $LN3+71
	DD	imagerel $unwind$?__GetTestMethodInfo_ui512_01_div_pt3@ui512_unit_tests_division@ui512_Unit_Tests@@CAPEBUMemberMethodInfo@CppUnitTestFramework@VisualStudio@Microsoft@@XZ
pdata	ENDS
;	COMDAT pdata
pdata	SEGMENT
$pdata$?ui512_01_div_pt3@ui512_unit_tests_division@ui512_Unit_Tests@@AEAAXXZ DD imagerel $LN22
	DD	imagerel $LN22+1384
	DD	imagerel $unwind$?ui512_01_div_pt3@ui512_unit_tests_division@ui512_Unit_Tests@@AEAAXXZ
pdata	ENDS
;	COMDAT pdata
pdata	SEGMENT
$pdata$?dtor$0@?0??ui512_01_div_pt3@ui512_unit_tests_division@ui512_Unit_Tests@@AEAAXXZ@4HA DD imagerel ?dtor$0@?0??ui512_01_div_pt3@ui512_unit_tests_division@ui512_Unit_Tests@@AEAAXXZ@4HA
	DD	imagerel ?dtor$0@?0??ui512_01_div_pt3@ui512_unit_tests_division@ui512_Unit_Tests@@AEAAXXZ@4HA+51
	DD	imagerel $unwind$?dtor$0@?0??ui512_01_div_pt3@ui512_unit_tests_division@ui512_Unit_Tests@@AEAAXXZ@4HA
pdata	ENDS
;	COMDAT pdata
pdata	SEGMENT
$pdata$?dtor$1@?0??ui512_01_div_pt3@ui512_unit_tests_division@ui512_Unit_Tests@@AEAAXXZ@4HA DD imagerel ?dtor$1@?0??ui512_01_div_pt3@ui512_unit_tests_division@ui512_Unit_Tests@@AEAAXXZ@4HA
	DD	imagerel ?dtor$1@?0??ui512_01_div_pt3@ui512_unit_tests_division@ui512_Unit_Tests@@AEAAXXZ@4HA+51
	DD	imagerel $unwind$?dtor$1@?0??ui512_01_div_pt3@ui512_unit_tests_division@ui512_Unit_Tests@@AEAAXXZ@4HA
pdata	ENDS
;	COMDAT pdata
pdata	SEGMENT
$pdata$?dtor$2@?0??ui512_01_div_pt3@ui512_unit_tests_division@ui512_Unit_Tests@@AEAAXXZ@4HA DD imagerel ?dtor$2@?0??ui512_01_div_pt3@ui512_unit_tests_division@ui512_Unit_Tests@@AEAAXXZ@4HA
	DD	imagerel ?dtor$2@?0??ui512_01_div_pt3@ui512_unit_tests_division@ui512_Unit_Tests@@AEAAXXZ@4HA+51
	DD	imagerel $unwind$?dtor$2@?0??ui512_01_div_pt3@ui512_unit_tests_division@ui512_Unit_Tests@@AEAAXXZ@4HA
pdata	ENDS
;	COMDAT pdata
pdata	SEGMENT
$pdata$?dtor$3@?0??ui512_01_div_pt3@ui512_unit_tests_division@ui512_Unit_Tests@@AEAAXXZ@4HA DD imagerel ?dtor$3@?0??ui512_01_div_pt3@ui512_unit_tests_division@ui512_Unit_Tests@@AEAAXXZ@4HA
	DD	imagerel ?dtor$3@?0??ui512_01_div_pt3@ui512_unit_tests_division@ui512_Unit_Tests@@AEAAXXZ@4HA+51
	DD	imagerel $unwind$?dtor$3@?0??ui512_01_div_pt3@ui512_unit_tests_division@ui512_Unit_Tests@@AEAAXXZ@4HA
pdata	ENDS
;	COMDAT pdata
pdata	SEGMENT
$pdata$?__GetTestMethodInfo_ui512_01_div_pt4@ui512_unit_tests_division@ui512_Unit_Tests@@CAPEBUMemberMethodInfo@CppUnitTestFramework@VisualStudio@Microsoft@@XZ DD imagerel $LN3
	DD	imagerel $LN3+71
	DD	imagerel $unwind$?__GetTestMethodInfo_ui512_01_div_pt4@ui512_unit_tests_division@ui512_Unit_Tests@@CAPEBUMemberMethodInfo@CppUnitTestFramework@VisualStudio@Microsoft@@XZ
pdata	ENDS
;	COMDAT pdata
pdata	SEGMENT
$pdata$?ui512_01_div_pt4@ui512_unit_tests_division@ui512_Unit_Tests@@AEAAXXZ DD imagerel $LN41
	DD	imagerel $LN41+2080
	DD	imagerel $unwind$?ui512_01_div_pt4@ui512_unit_tests_division@ui512_Unit_Tests@@AEAAXXZ
pdata	ENDS
;	COMDAT pdata
pdata	SEGMENT
$pdata$?dtor$0@?0??ui512_01_div_pt4@ui512_unit_tests_division@ui512_Unit_Tests@@AEAAXXZ@4HA DD imagerel ?dtor$0@?0??ui512_01_div_pt4@ui512_unit_tests_division@ui512_Unit_Tests@@AEAAXXZ@4HA
	DD	imagerel ?dtor$0@?0??ui512_01_div_pt4@ui512_unit_tests_division@ui512_Unit_Tests@@AEAAXXZ@4HA+51
	DD	imagerel $unwind$?dtor$0@?0??ui512_01_div_pt4@ui512_unit_tests_division@ui512_Unit_Tests@@AEAAXXZ@4HA
pdata	ENDS
;	COMDAT pdata
pdata	SEGMENT
$pdata$?dtor$1@?0??ui512_01_div_pt4@ui512_unit_tests_division@ui512_Unit_Tests@@AEAAXXZ@4HA DD imagerel ?dtor$1@?0??ui512_01_div_pt4@ui512_unit_tests_division@ui512_Unit_Tests@@AEAAXXZ@4HA
	DD	imagerel ?dtor$1@?0??ui512_01_div_pt4@ui512_unit_tests_division@ui512_Unit_Tests@@AEAAXXZ@4HA+51
	DD	imagerel $unwind$?dtor$1@?0??ui512_01_div_pt4@ui512_unit_tests_division@ui512_Unit_Tests@@AEAAXXZ@4HA
pdata	ENDS
;	COMDAT pdata
pdata	SEGMENT
$pdata$?dtor$2@?0??ui512_01_div_pt4@ui512_unit_tests_division@ui512_Unit_Tests@@AEAAXXZ@4HA DD imagerel ?dtor$2@?0??ui512_01_div_pt4@ui512_unit_tests_division@ui512_Unit_Tests@@AEAAXXZ@4HA
	DD	imagerel ?dtor$2@?0??ui512_01_div_pt4@ui512_unit_tests_division@ui512_Unit_Tests@@AEAAXXZ@4HA+51
	DD	imagerel $unwind$?dtor$2@?0??ui512_01_div_pt4@ui512_unit_tests_division@ui512_Unit_Tests@@AEAAXXZ@4HA
pdata	ENDS
;	COMDAT pdata
pdata	SEGMENT
$pdata$?dtor$3@?0??ui512_01_div_pt4@ui512_unit_tests_division@ui512_Unit_Tests@@AEAAXXZ@4HA DD imagerel ?dtor$3@?0??ui512_01_div_pt4@ui512_unit_tests_division@ui512_Unit_Tests@@AEAAXXZ@4HA
	DD	imagerel ?dtor$3@?0??ui512_01_div_pt4@ui512_unit_tests_division@ui512_Unit_Tests@@AEAAXXZ@4HA+51
	DD	imagerel $unwind$?dtor$3@?0??ui512_01_div_pt4@ui512_unit_tests_division@ui512_Unit_Tests@@AEAAXXZ@4HA
pdata	ENDS
;	COMDAT pdata
pdata	SEGMENT
$pdata$?dtor$4@?0??ui512_01_div_pt4@ui512_unit_tests_division@ui512_Unit_Tests@@AEAAXXZ@4HA DD imagerel ?dtor$4@?0??ui512_01_div_pt4@ui512_unit_tests_division@ui512_Unit_Tests@@AEAAXXZ@4HA
	DD	imagerel ?dtor$4@?0??ui512_01_div_pt4@ui512_unit_tests_division@ui512_Unit_Tests@@AEAAXXZ@4HA+51
	DD	imagerel $unwind$?dtor$4@?0??ui512_01_div_pt4@ui512_unit_tests_division@ui512_Unit_Tests@@AEAAXXZ@4HA
pdata	ENDS
;	COMDAT pdata
pdata	SEGMENT
$pdata$?dtor$5@?0??ui512_01_div_pt4@ui512_unit_tests_division@ui512_Unit_Tests@@AEAAXXZ@4HA DD imagerel ?dtor$5@?0??ui512_01_div_pt4@ui512_unit_tests_division@ui512_Unit_Tests@@AEAAXXZ@4HA
	DD	imagerel ?dtor$5@?0??ui512_01_div_pt4@ui512_unit_tests_division@ui512_Unit_Tests@@AEAAXXZ@4HA+51
	DD	imagerel $unwind$?dtor$5@?0??ui512_01_div_pt4@ui512_unit_tests_division@ui512_Unit_Tests@@AEAAXXZ@4HA
pdata	ENDS
;	COMDAT pdata
pdata	SEGMENT
$pdata$?__GetTestMethodInfo_ui512_02_div64@ui512_unit_tests_division@ui512_Unit_Tests@@CAPEBUMemberMethodInfo@CppUnitTestFramework@VisualStudio@Microsoft@@XZ DD imagerel $LN3
	DD	imagerel $LN3+71
	DD	imagerel $unwind$?__GetTestMethodInfo_ui512_02_div64@ui512_unit_tests_division@ui512_Unit_Tests@@CAPEBUMemberMethodInfo@CppUnitTestFramework@VisualStudio@Microsoft@@XZ
pdata	ENDS
;	COMDAT pdata
pdata	SEGMENT
$pdata$?ui512_02_div64@ui512_unit_tests_division@ui512_Unit_Tests@@AEAAXXZ DD imagerel $LN82
	DD	imagerel $LN82+5442
	DD	imagerel $unwind$?ui512_02_div64@ui512_unit_tests_division@ui512_Unit_Tests@@AEAAXXZ
pdata	ENDS
;	COMDAT pdata
pdata	SEGMENT
$pdata$?dtor$0@?0??ui512_02_div64@ui512_unit_tests_division@ui512_Unit_Tests@@AEAAXXZ@4HA DD imagerel ?dtor$0@?0??ui512_02_div64@ui512_unit_tests_division@ui512_Unit_Tests@@AEAAXXZ@4HA
	DD	imagerel ?dtor$0@?0??ui512_02_div64@ui512_unit_tests_division@ui512_Unit_Tests@@AEAAXXZ@4HA+51
	DD	imagerel $unwind$?dtor$0@?0??ui512_02_div64@ui512_unit_tests_division@ui512_Unit_Tests@@AEAAXXZ@4HA
pdata	ENDS
;	COMDAT pdata
pdata	SEGMENT
$pdata$?dtor$1@?0??ui512_02_div64@ui512_unit_tests_division@ui512_Unit_Tests@@AEAAXXZ@4HA DD imagerel ?dtor$1@?0??ui512_02_div64@ui512_unit_tests_division@ui512_Unit_Tests@@AEAAXXZ@4HA
	DD	imagerel ?dtor$1@?0??ui512_02_div64@ui512_unit_tests_division@ui512_Unit_Tests@@AEAAXXZ@4HA+51
	DD	imagerel $unwind$?dtor$1@?0??ui512_02_div64@ui512_unit_tests_division@ui512_Unit_Tests@@AEAAXXZ@4HA
pdata	ENDS
;	COMDAT pdata
pdata	SEGMENT
$pdata$?dtor$2@?0??ui512_02_div64@ui512_unit_tests_division@ui512_Unit_Tests@@AEAAXXZ@4HA DD imagerel ?dtor$2@?0??ui512_02_div64@ui512_unit_tests_division@ui512_Unit_Tests@@AEAAXXZ@4HA
	DD	imagerel ?dtor$2@?0??ui512_02_div64@ui512_unit_tests_division@ui512_Unit_Tests@@AEAAXXZ@4HA+51
	DD	imagerel $unwind$?dtor$2@?0??ui512_02_div64@ui512_unit_tests_division@ui512_Unit_Tests@@AEAAXXZ@4HA
pdata	ENDS
;	COMDAT pdata
pdata	SEGMENT
$pdata$?dtor$3@?0??ui512_02_div64@ui512_unit_tests_division@ui512_Unit_Tests@@AEAAXXZ@4HA DD imagerel ?dtor$3@?0??ui512_02_div64@ui512_unit_tests_division@ui512_Unit_Tests@@AEAAXXZ@4HA
	DD	imagerel ?dtor$3@?0??ui512_02_div64@ui512_unit_tests_division@ui512_Unit_Tests@@AEAAXXZ@4HA+51
	DD	imagerel $unwind$?dtor$3@?0??ui512_02_div64@ui512_unit_tests_division@ui512_Unit_Tests@@AEAAXXZ@4HA
pdata	ENDS
;	COMDAT pdata
pdata	SEGMENT
$pdata$?dtor$4@?0??ui512_02_div64@ui512_unit_tests_division@ui512_Unit_Tests@@AEAAXXZ@4HA DD imagerel ?dtor$4@?0??ui512_02_div64@ui512_unit_tests_division@ui512_Unit_Tests@@AEAAXXZ@4HA
	DD	imagerel ?dtor$4@?0??ui512_02_div64@ui512_unit_tests_division@ui512_Unit_Tests@@AEAAXXZ@4HA+51
	DD	imagerel $unwind$?dtor$4@?0??ui512_02_div64@ui512_unit_tests_division@ui512_Unit_Tests@@AEAAXXZ@4HA
pdata	ENDS
;	COMDAT pdata
pdata	SEGMENT
$pdata$?dtor$5@?0??ui512_02_div64@ui512_unit_tests_division@ui512_Unit_Tests@@AEAAXXZ@4HA DD imagerel ?dtor$5@?0??ui512_02_div64@ui512_unit_tests_division@ui512_Unit_Tests@@AEAAXXZ@4HA
	DD	imagerel ?dtor$5@?0??ui512_02_div64@ui512_unit_tests_division@ui512_Unit_Tests@@AEAAXXZ@4HA+51
	DD	imagerel $unwind$?dtor$5@?0??ui512_02_div64@ui512_unit_tests_division@ui512_Unit_Tests@@AEAAXXZ@4HA
pdata	ENDS
;	COMDAT pdata
pdata	SEGMENT
$pdata$?dtor$6@?0??ui512_02_div64@ui512_unit_tests_division@ui512_Unit_Tests@@AEAAXXZ@4HA DD imagerel ?dtor$6@?0??ui512_02_div64@ui512_unit_tests_division@ui512_Unit_Tests@@AEAAXXZ@4HA
	DD	imagerel ?dtor$6@?0??ui512_02_div64@ui512_unit_tests_division@ui512_Unit_Tests@@AEAAXXZ@4HA+51
	DD	imagerel $unwind$?dtor$6@?0??ui512_02_div64@ui512_unit_tests_division@ui512_Unit_Tests@@AEAAXXZ@4HA
pdata	ENDS
;	COMDAT pdata
pdata	SEGMENT
$pdata$?dtor$7@?0??ui512_02_div64@ui512_unit_tests_division@ui512_Unit_Tests@@AEAAXXZ@4HA DD imagerel ?dtor$7@?0??ui512_02_div64@ui512_unit_tests_division@ui512_Unit_Tests@@AEAAXXZ@4HA
	DD	imagerel ?dtor$7@?0??ui512_02_div64@ui512_unit_tests_division@ui512_Unit_Tests@@AEAAXXZ@4HA+51
	DD	imagerel $unwind$?dtor$7@?0??ui512_02_div64@ui512_unit_tests_division@ui512_Unit_Tests@@AEAAXXZ@4HA
pdata	ENDS
;	COMDAT pdata
pdata	SEGMENT
$pdata$?dtor$8@?0??ui512_02_div64@ui512_unit_tests_division@ui512_Unit_Tests@@AEAAXXZ@4HA DD imagerel ?dtor$8@?0??ui512_02_div64@ui512_unit_tests_division@ui512_Unit_Tests@@AEAAXXZ@4HA
	DD	imagerel ?dtor$8@?0??ui512_02_div64@ui512_unit_tests_division@ui512_Unit_Tests@@AEAAXXZ@4HA+51
	DD	imagerel $unwind$?dtor$8@?0??ui512_02_div64@ui512_unit_tests_division@ui512_Unit_Tests@@AEAAXXZ@4HA
pdata	ENDS
;	COMDAT pdata
pdata	SEGMENT
$pdata$?dtor$9@?0??ui512_02_div64@ui512_unit_tests_division@ui512_Unit_Tests@@AEAAXXZ@4HA DD imagerel ?dtor$9@?0??ui512_02_div64@ui512_unit_tests_division@ui512_Unit_Tests@@AEAAXXZ@4HA
	DD	imagerel ?dtor$9@?0??ui512_02_div64@ui512_unit_tests_division@ui512_Unit_Tests@@AEAAXXZ@4HA+51
	DD	imagerel $unwind$?dtor$9@?0??ui512_02_div64@ui512_unit_tests_division@ui512_Unit_Tests@@AEAAXXZ@4HA
pdata	ENDS
;	COMDAT pdata
pdata	SEGMENT
$pdata$?dtor$10@?0??ui512_02_div64@ui512_unit_tests_division@ui512_Unit_Tests@@AEAAXXZ@4HA DD imagerel ?dtor$10@?0??ui512_02_div64@ui512_unit_tests_division@ui512_Unit_Tests@@AEAAXXZ@4HA
	DD	imagerel ?dtor$10@?0??ui512_02_div64@ui512_unit_tests_division@ui512_Unit_Tests@@AEAAXXZ@4HA+51
	DD	imagerel $unwind$?dtor$10@?0??ui512_02_div64@ui512_unit_tests_division@ui512_Unit_Tests@@AEAAXXZ@4HA
pdata	ENDS
;	COMDAT pdata
pdata	SEGMENT
$pdata$?dtor$11@?0??ui512_02_div64@ui512_unit_tests_division@ui512_Unit_Tests@@AEAAXXZ@4HA DD imagerel ?dtor$11@?0??ui512_02_div64@ui512_unit_tests_division@ui512_Unit_Tests@@AEAAXXZ@4HA
	DD	imagerel ?dtor$11@?0??ui512_02_div64@ui512_unit_tests_division@ui512_Unit_Tests@@AEAAXXZ@4HA+51
	DD	imagerel $unwind$?dtor$11@?0??ui512_02_div64@ui512_unit_tests_division@ui512_Unit_Tests@@AEAAXXZ@4HA
pdata	ENDS
;	COMDAT pdata
pdata	SEGMENT
$pdata$?dtor$12@?0??ui512_02_div64@ui512_unit_tests_division@ui512_Unit_Tests@@AEAAXXZ@4HA DD imagerel ?dtor$12@?0??ui512_02_div64@ui512_unit_tests_division@ui512_Unit_Tests@@AEAAXXZ@4HA
	DD	imagerel ?dtor$12@?0??ui512_02_div64@ui512_unit_tests_division@ui512_Unit_Tests@@AEAAXXZ@4HA+51
	DD	imagerel $unwind$?dtor$12@?0??ui512_02_div64@ui512_unit_tests_division@ui512_Unit_Tests@@AEAAXXZ@4HA
pdata	ENDS
;	COMDAT pdata
pdata	SEGMENT
$pdata$?dtor$13@?0??ui512_02_div64@ui512_unit_tests_division@ui512_Unit_Tests@@AEAAXXZ@4HA DD imagerel ?dtor$13@?0??ui512_02_div64@ui512_unit_tests_division@ui512_Unit_Tests@@AEAAXXZ@4HA
	DD	imagerel ?dtor$13@?0??ui512_02_div64@ui512_unit_tests_division@ui512_Unit_Tests@@AEAAXXZ@4HA+51
	DD	imagerel $unwind$?dtor$13@?0??ui512_02_div64@ui512_unit_tests_division@ui512_Unit_Tests@@AEAAXXZ@4HA
pdata	ENDS
;	COMDAT pdata
pdata	SEGMENT
$pdata$?dtor$14@?0??ui512_02_div64@ui512_unit_tests_division@ui512_Unit_Tests@@AEAAXXZ@4HA DD imagerel ?dtor$14@?0??ui512_02_div64@ui512_unit_tests_division@ui512_Unit_Tests@@AEAAXXZ@4HA
	DD	imagerel ?dtor$14@?0??ui512_02_div64@ui512_unit_tests_division@ui512_Unit_Tests@@AEAAXXZ@4HA+51
	DD	imagerel $unwind$?dtor$14@?0??ui512_02_div64@ui512_unit_tests_division@ui512_Unit_Tests@@AEAAXXZ@4HA
pdata	ENDS
;	COMDAT pdata
pdata	SEGMENT
$pdata$?dtor$15@?0??ui512_02_div64@ui512_unit_tests_division@ui512_Unit_Tests@@AEAAXXZ@4HA DD imagerel ?dtor$15@?0??ui512_02_div64@ui512_unit_tests_division@ui512_Unit_Tests@@AEAAXXZ@4HA
	DD	imagerel ?dtor$15@?0??ui512_02_div64@ui512_unit_tests_division@ui512_Unit_Tests@@AEAAXXZ@4HA+51
	DD	imagerel $unwind$?dtor$15@?0??ui512_02_div64@ui512_unit_tests_division@ui512_Unit_Tests@@AEAAXXZ@4HA
pdata	ENDS
;	COMDAT pdata
pdata	SEGMENT
$pdata$?dtor$16@?0??ui512_02_div64@ui512_unit_tests_division@ui512_Unit_Tests@@AEAAXXZ@4HA DD imagerel ?dtor$16@?0??ui512_02_div64@ui512_unit_tests_division@ui512_Unit_Tests@@AEAAXXZ@4HA
	DD	imagerel ?dtor$16@?0??ui512_02_div64@ui512_unit_tests_division@ui512_Unit_Tests@@AEAAXXZ@4HA+51
	DD	imagerel $unwind$?dtor$16@?0??ui512_02_div64@ui512_unit_tests_division@ui512_Unit_Tests@@AEAAXXZ@4HA
pdata	ENDS
;	COMDAT pdata
pdata	SEGMENT
$pdata$?dtor$17@?0??ui512_02_div64@ui512_unit_tests_division@ui512_Unit_Tests@@AEAAXXZ@4HA DD imagerel ?dtor$17@?0??ui512_02_div64@ui512_unit_tests_division@ui512_Unit_Tests@@AEAAXXZ@4HA
	DD	imagerel ?dtor$17@?0??ui512_02_div64@ui512_unit_tests_division@ui512_Unit_Tests@@AEAAXXZ@4HA+51
	DD	imagerel $unwind$?dtor$17@?0??ui512_02_div64@ui512_unit_tests_division@ui512_Unit_Tests@@AEAAXXZ@4HA
pdata	ENDS
;	COMDAT pdata
pdata	SEGMENT
$pdata$?dtor$20@?0??ui512_02_div64@ui512_unit_tests_division@ui512_Unit_Tests@@AEAAXXZ@4HA DD imagerel ?dtor$20@?0??ui512_02_div64@ui512_unit_tests_division@ui512_Unit_Tests@@AEAAXXZ@4HA
	DD	imagerel ?dtor$20@?0??ui512_02_div64@ui512_unit_tests_division@ui512_Unit_Tests@@AEAAXXZ@4HA+51
	DD	imagerel $unwind$?dtor$20@?0??ui512_02_div64@ui512_unit_tests_division@ui512_Unit_Tests@@AEAAXXZ@4HA
pdata	ENDS
;	COMDAT pdata
pdata	SEGMENT
$pdata$?dtor$23@?0??ui512_02_div64@ui512_unit_tests_division@ui512_Unit_Tests@@AEAAXXZ@4HA DD imagerel ?dtor$23@?0??ui512_02_div64@ui512_unit_tests_division@ui512_Unit_Tests@@AEAAXXZ@4HA
	DD	imagerel ?dtor$23@?0??ui512_02_div64@ui512_unit_tests_division@ui512_Unit_Tests@@AEAAXXZ@4HA+51
	DD	imagerel $unwind$?dtor$23@?0??ui512_02_div64@ui512_unit_tests_division@ui512_Unit_Tests@@AEAAXXZ@4HA
pdata	ENDS
;	COMDAT pdata
pdata	SEGMENT
$pdata$?dtor$26@?0??ui512_02_div64@ui512_unit_tests_division@ui512_Unit_Tests@@AEAAXXZ@4HA DD imagerel ?dtor$26@?0??ui512_02_div64@ui512_unit_tests_division@ui512_Unit_Tests@@AEAAXXZ@4HA
	DD	imagerel ?dtor$26@?0??ui512_02_div64@ui512_unit_tests_division@ui512_Unit_Tests@@AEAAXXZ@4HA+51
	DD	imagerel $unwind$?dtor$26@?0??ui512_02_div64@ui512_unit_tests_division@ui512_Unit_Tests@@AEAAXXZ@4HA
pdata	ENDS
;	COMDAT pdata
pdata	SEGMENT
$pdata$?dtor$27@?0??ui512_02_div64@ui512_unit_tests_division@ui512_Unit_Tests@@AEAAXXZ@4HA DD imagerel ?dtor$27@?0??ui512_02_div64@ui512_unit_tests_division@ui512_Unit_Tests@@AEAAXXZ@4HA
	DD	imagerel ?dtor$27@?0??ui512_02_div64@ui512_unit_tests_division@ui512_Unit_Tests@@AEAAXXZ@4HA+51
	DD	imagerel $unwind$?dtor$27@?0??ui512_02_div64@ui512_unit_tests_division@ui512_Unit_Tests@@AEAAXXZ@4HA
pdata	ENDS
;	COMDAT pdata
pdata	SEGMENT
$pdata$?dtor$30@?0??ui512_02_div64@ui512_unit_tests_division@ui512_Unit_Tests@@AEAAXXZ@4HA DD imagerel ?dtor$30@?0??ui512_02_div64@ui512_unit_tests_division@ui512_Unit_Tests@@AEAAXXZ@4HA
	DD	imagerel ?dtor$30@?0??ui512_02_div64@ui512_unit_tests_division@ui512_Unit_Tests@@AEAAXXZ@4HA+51
	DD	imagerel $unwind$?dtor$30@?0??ui512_02_div64@ui512_unit_tests_division@ui512_Unit_Tests@@AEAAXXZ@4HA
pdata	ENDS
;	COMDAT pdata
pdata	SEGMENT
$pdata$?dtor$33@?0??ui512_02_div64@ui512_unit_tests_division@ui512_Unit_Tests@@AEAAXXZ@4HA DD imagerel ?dtor$33@?0??ui512_02_div64@ui512_unit_tests_division@ui512_Unit_Tests@@AEAAXXZ@4HA
	DD	imagerel ?dtor$33@?0??ui512_02_div64@ui512_unit_tests_division@ui512_Unit_Tests@@AEAAXXZ@4HA+51
	DD	imagerel $unwind$?dtor$33@?0??ui512_02_div64@ui512_unit_tests_division@ui512_Unit_Tests@@AEAAXXZ@4HA
pdata	ENDS
;	COMDAT pdata
pdata	SEGMENT
$pdata$?__GetTestMethodInfo_ui512_02_div64_performance@ui512_unit_tests_division@ui512_Unit_Tests@@CAPEBUMemberMethodInfo@CppUnitTestFramework@VisualStudio@Microsoft@@XZ DD imagerel $LN3
	DD	imagerel $LN3+71
	DD	imagerel $unwind$?__GetTestMethodInfo_ui512_02_div64_performance@ui512_unit_tests_division@ui512_Unit_Tests@@CAPEBUMemberMethodInfo@CppUnitTestFramework@VisualStudio@Microsoft@@XZ
pdata	ENDS
;	COMDAT pdata
pdata	SEGMENT
$pdata$?ui512_02_div64_performance@ui512_unit_tests_division@ui512_Unit_Tests@@AEAAXXZ DD imagerel $LN3
	DD	imagerel $LN3+325
	DD	imagerel $unwind$?ui512_02_div64_performance@ui512_unit_tests_division@ui512_Unit_Tests@@AEAAXXZ
pdata	ENDS
;	COMDAT pdata
pdata	SEGMENT
$pdata$??0ui512_unit_tests_division@ui512_Unit_Tests@@QEAA@XZ DD imagerel $LN4
	DD	imagerel $LN4+66
	DD	imagerel $unwind$??0ui512_unit_tests_division@ui512_Unit_Tests@@QEAA@XZ
pdata	ENDS
;	COMDAT pdata
pdata	SEGMENT
$pdata$??1ui512_unit_tests_division@ui512_Unit_Tests@@UEAA@XZ DD imagerel $LN4
	DD	imagerel $LN4+42
	DD	imagerel $unwind$??1ui512_unit_tests_division@ui512_Unit_Tests@@UEAA@XZ
pdata	ENDS
;	COMDAT pdata
pdata	SEGMENT
$pdata$??_Gui512_unit_tests_division@ui512_Unit_Tests@@UEAAPEAXI@Z DD imagerel $LN4
	DD	imagerel $LN4+84
	DD	imagerel $unwind$??_Gui512_unit_tests_division@ui512_Unit_Tests@@UEAAPEAXI@Z
pdata	ENDS
;	COMDAT pdata
pdata	SEGMENT
$pdata$??R<lambda_1>@?5??ui512_01_div_pt1@ui512_unit_tests_division@ui512_Unit_Tests@@AEAAXXZ@QEBA@XZ DD imagerel $LN6
	DD	imagerel $LN6+337
	DD	imagerel $unwind$??R<lambda_1>@?5??ui512_01_div_pt1@ui512_unit_tests_division@ui512_Unit_Tests@@AEAAXXZ@QEBA@XZ
pdata	ENDS
;	COMDAT pdata
pdata	SEGMENT
$pdata$?dtor$0@?0???R<lambda_1>@?5??ui512_01_div_pt1@ui512_unit_tests_division@ui512_Unit_Tests@@AEAAXXZ@QEBA@XZ@4HA DD imagerel ?dtor$0@?0???R<lambda_1>@?5??ui512_01_div_pt1@ui512_unit_tests_division@ui512_Unit_Tests@@AEAAXXZ@QEBA@XZ@4HA
	DD	imagerel ?dtor$0@?0???R<lambda_1>@?5??ui512_01_div_pt1@ui512_unit_tests_division@ui512_Unit_Tests@@AEAAXXZ@QEBA@XZ@4HA+36
	DD	imagerel $unwind$?dtor$0@?0???R<lambda_1>@?5??ui512_01_div_pt1@ui512_unit_tests_division@ui512_Unit_Tests@@AEAAXXZ@QEBA@XZ@4HA
pdata	ENDS
;	COMDAT pdata
pdata	SEGMENT
$pdata$??0<lambda_1>@?5??ui512_01_div_pt1@ui512_unit_tests_division@ui512_Unit_Tests@@AEAAXXZ@QEAA@AEAH0@Z DD imagerel $LN4
	DD	imagerel $LN4+94
	DD	imagerel $unwind$??0<lambda_1>@?5??ui512_01_div_pt1@ui512_unit_tests_division@ui512_Unit_Tests@@AEAAXXZ@QEAA@AEAH0@Z
pdata	ENDS
;	COMDAT pdata
pdata	SEGMENT
$pdata$??$AreEqual@_K$0A@@Assert@CppUnitTestFramework@VisualStudio@Microsoft@@SAXAEB_K0PEB_WPEBU__LineInfo@123@@Z DD imagerel $LN8
	DD	imagerel $LN8+349
	DD	imagerel $unwind$??$AreEqual@_K$0A@@Assert@CppUnitTestFramework@VisualStudio@Microsoft@@SAXAEB_K0PEB_WPEBU__LineInfo@123@@Z
pdata	ENDS
;	COMDAT pdata
pdata	SEGMENT
$pdata$?dtor$0@?0???$AreEqual@_K$0A@@Assert@CppUnitTestFramework@VisualStudio@Microsoft@@SAXAEB_K0PEB_WPEBU__LineInfo@123@@Z@4HA DD imagerel ?dtor$0@?0???$AreEqual@_K$0A@@Assert@CppUnitTestFramework@VisualStudio@Microsoft@@SAXAEB_K0PEB_WPEBU__LineInfo@123@@Z@4HA
	DD	imagerel ?dtor$0@?0???$AreEqual@_K$0A@@Assert@CppUnitTestFramework@VisualStudio@Microsoft@@SAXAEB_K0PEB_WPEBU__LineInfo@123@@Z@4HA+39
	DD	imagerel $unwind$?dtor$0@?0???$AreEqual@_K$0A@@Assert@CppUnitTestFramework@VisualStudio@Microsoft@@SAXAEB_K0PEB_WPEBU__LineInfo@123@@Z@4HA
pdata	ENDS
;	COMDAT pdata
pdata	SEGMENT
$pdata$?dtor$1@?0???$AreEqual@_K$0A@@Assert@CppUnitTestFramework@VisualStudio@Microsoft@@SAXAEB_K0PEB_WPEBU__LineInfo@123@@Z@4HA DD imagerel ?dtor$1@?0???$AreEqual@_K$0A@@Assert@CppUnitTestFramework@VisualStudio@Microsoft@@SAXAEB_K0PEB_WPEBU__LineInfo@123@@Z@4HA
	DD	imagerel ?dtor$1@?0???$AreEqual@_K$0A@@Assert@CppUnitTestFramework@VisualStudio@Microsoft@@SAXAEB_K0PEB_WPEBU__LineInfo@123@@Z@4HA+39
	DD	imagerel $unwind$?dtor$1@?0???$AreEqual@_K$0A@@Assert@CppUnitTestFramework@VisualStudio@Microsoft@@SAXAEB_K0PEB_WPEBU__LineInfo@123@@Z@4HA
pdata	ENDS
;	COMDAT pdata
pdata	SEGMENT
$pdata$?dtor$2@?0???$AreEqual@_K$0A@@Assert@CppUnitTestFramework@VisualStudio@Microsoft@@SAXAEB_K0PEB_WPEBU__LineInfo@123@@Z@4HA DD imagerel ?dtor$2@?0???$AreEqual@_K$0A@@Assert@CppUnitTestFramework@VisualStudio@Microsoft@@SAXAEB_K0PEB_WPEBU__LineInfo@123@@Z@4HA
	DD	imagerel ?dtor$2@?0???$AreEqual@_K$0A@@Assert@CppUnitTestFramework@VisualStudio@Microsoft@@SAXAEB_K0PEB_WPEBU__LineInfo@123@@Z@4HA+39
	DD	imagerel $unwind$?dtor$2@?0???$AreEqual@_K$0A@@Assert@CppUnitTestFramework@VisualStudio@Microsoft@@SAXAEB_K0PEB_WPEBU__LineInfo@123@@Z@4HA
pdata	ENDS
;	COMDAT pdata
pdata	SEGMENT
$pdata$??R<lambda_2>@?5??ui512_01_div_pt1@ui512_unit_tests_division@ui512_Unit_Tests@@AEAAXXZ@QEBA@XZ DD imagerel $LN6
	DD	imagerel $LN6+337
	DD	imagerel $unwind$??R<lambda_2>@?5??ui512_01_div_pt1@ui512_unit_tests_division@ui512_Unit_Tests@@AEAAXXZ@QEBA@XZ
pdata	ENDS
;	COMDAT pdata
pdata	SEGMENT
$pdata$?dtor$0@?0???R<lambda_2>@?5??ui512_01_div_pt1@ui512_unit_tests_division@ui512_Unit_Tests@@AEAAXXZ@QEBA@XZ@4HA DD imagerel ?dtor$0@?0???R<lambda_2>@?5??ui512_01_div_pt1@ui512_unit_tests_division@ui512_Unit_Tests@@AEAAXXZ@QEBA@XZ@4HA
	DD	imagerel ?dtor$0@?0???R<lambda_2>@?5??ui512_01_div_pt1@ui512_unit_tests_division@ui512_Unit_Tests@@AEAAXXZ@QEBA@XZ@4HA+36
	DD	imagerel $unwind$?dtor$0@?0???R<lambda_2>@?5??ui512_01_div_pt1@ui512_unit_tests_division@ui512_Unit_Tests@@AEAAXXZ@QEBA@XZ@4HA
pdata	ENDS
;	COMDAT pdata
pdata	SEGMENT
$pdata$??0<lambda_2>@?5??ui512_01_div_pt1@ui512_unit_tests_division@ui512_Unit_Tests@@AEAAXXZ@QEAA@AEAH0@Z DD imagerel $LN4
	DD	imagerel $LN4+94
	DD	imagerel $unwind$??0<lambda_2>@?5??ui512_01_div_pt1@ui512_unit_tests_division@ui512_Unit_Tests@@AEAAXXZ@QEAA@AEAH0@Z
pdata	ENDS
;	COMDAT pdata
pdata	SEGMENT
$pdata$??$AreEqual@F$0A@@Assert@CppUnitTestFramework@VisualStudio@Microsoft@@SAXAEBF0PEB_WPEBU__LineInfo@123@@Z DD imagerel $LN8
	DD	imagerel $LN8+351
	DD	imagerel $unwind$??$AreEqual@F$0A@@Assert@CppUnitTestFramework@VisualStudio@Microsoft@@SAXAEBF0PEB_WPEBU__LineInfo@123@@Z
pdata	ENDS
;	COMDAT pdata
pdata	SEGMENT
$pdata$?dtor$0@?0???$AreEqual@F$0A@@Assert@CppUnitTestFramework@VisualStudio@Microsoft@@SAXAEBF0PEB_WPEBU__LineInfo@123@@Z@4HA DD imagerel ?dtor$0@?0???$AreEqual@F$0A@@Assert@CppUnitTestFramework@VisualStudio@Microsoft@@SAXAEBF0PEB_WPEBU__LineInfo@123@@Z@4HA
	DD	imagerel ?dtor$0@?0???$AreEqual@F$0A@@Assert@CppUnitTestFramework@VisualStudio@Microsoft@@SAXAEBF0PEB_WPEBU__LineInfo@123@@Z@4HA+39
	DD	imagerel $unwind$?dtor$0@?0???$AreEqual@F$0A@@Assert@CppUnitTestFramework@VisualStudio@Microsoft@@SAXAEBF0PEB_WPEBU__LineInfo@123@@Z@4HA
pdata	ENDS
;	COMDAT pdata
pdata	SEGMENT
$pdata$?dtor$1@?0???$AreEqual@F$0A@@Assert@CppUnitTestFramework@VisualStudio@Microsoft@@SAXAEBF0PEB_WPEBU__LineInfo@123@@Z@4HA DD imagerel ?dtor$1@?0???$AreEqual@F$0A@@Assert@CppUnitTestFramework@VisualStudio@Microsoft@@SAXAEBF0PEB_WPEBU__LineInfo@123@@Z@4HA
	DD	imagerel ?dtor$1@?0???$AreEqual@F$0A@@Assert@CppUnitTestFramework@VisualStudio@Microsoft@@SAXAEBF0PEB_WPEBU__LineInfo@123@@Z@4HA+39
	DD	imagerel $unwind$?dtor$1@?0???$AreEqual@F$0A@@Assert@CppUnitTestFramework@VisualStudio@Microsoft@@SAXAEBF0PEB_WPEBU__LineInfo@123@@Z@4HA
pdata	ENDS
;	COMDAT pdata
pdata	SEGMENT
$pdata$?dtor$2@?0???$AreEqual@F$0A@@Assert@CppUnitTestFramework@VisualStudio@Microsoft@@SAXAEBF0PEB_WPEBU__LineInfo@123@@Z@4HA DD imagerel ?dtor$2@?0???$AreEqual@F$0A@@Assert@CppUnitTestFramework@VisualStudio@Microsoft@@SAXAEBF0PEB_WPEBU__LineInfo@123@@Z@4HA
	DD	imagerel ?dtor$2@?0???$AreEqual@F$0A@@Assert@CppUnitTestFramework@VisualStudio@Microsoft@@SAXAEBF0PEB_WPEBU__LineInfo@123@@Z@4HA+39
	DD	imagerel $unwind$?dtor$2@?0???$AreEqual@F$0A@@Assert@CppUnitTestFramework@VisualStudio@Microsoft@@SAXAEBF0PEB_WPEBU__LineInfo@123@@Z@4HA
pdata	ENDS
;	COMDAT pdata
pdata	SEGMENT
$pdata$??R<lambda_3>@?9??ui512_01_div_pt1@ui512_unit_tests_division@ui512_Unit_Tests@@AEAAXXZ@QEBA@XZ DD imagerel $LN6
	DD	imagerel $LN6+337
	DD	imagerel $unwind$??R<lambda_3>@?9??ui512_01_div_pt1@ui512_unit_tests_division@ui512_Unit_Tests@@AEAAXXZ@QEBA@XZ
pdata	ENDS
;	COMDAT pdata
pdata	SEGMENT
$pdata$?dtor$0@?0???R<lambda_3>@?9??ui512_01_div_pt1@ui512_unit_tests_division@ui512_Unit_Tests@@AEAAXXZ@QEBA@XZ@4HA DD imagerel ?dtor$0@?0???R<lambda_3>@?9??ui512_01_div_pt1@ui512_unit_tests_division@ui512_Unit_Tests@@AEAAXXZ@QEBA@XZ@4HA
	DD	imagerel ?dtor$0@?0???R<lambda_3>@?9??ui512_01_div_pt1@ui512_unit_tests_division@ui512_Unit_Tests@@AEAAXXZ@QEBA@XZ@4HA+36
	DD	imagerel $unwind$?dtor$0@?0???R<lambda_3>@?9??ui512_01_div_pt1@ui512_unit_tests_division@ui512_Unit_Tests@@AEAAXXZ@QEBA@XZ@4HA
pdata	ENDS
;	COMDAT pdata
pdata	SEGMENT
$pdata$??0<lambda_3>@?9??ui512_01_div_pt1@ui512_unit_tests_division@ui512_Unit_Tests@@AEAAXXZ@QEAA@AEAH0@Z DD imagerel $LN4
	DD	imagerel $LN4+94
	DD	imagerel $unwind$??0<lambda_3>@?9??ui512_01_div_pt1@ui512_unit_tests_division@ui512_Unit_Tests@@AEAAXXZ@QEAA@AEAH0@Z
pdata	ENDS
;	COMDAT pdata
pdata	SEGMENT
$pdata$??R<lambda_4>@?9??ui512_01_div_pt1@ui512_unit_tests_division@ui512_Unit_Tests@@AEAAXXZ@QEBA@XZ DD imagerel $LN6
	DD	imagerel $LN6+337
	DD	imagerel $unwind$??R<lambda_4>@?9??ui512_01_div_pt1@ui512_unit_tests_division@ui512_Unit_Tests@@AEAAXXZ@QEBA@XZ
pdata	ENDS
;	COMDAT pdata
pdata	SEGMENT
$pdata$?dtor$0@?0???R<lambda_4>@?9??ui512_01_div_pt1@ui512_unit_tests_division@ui512_Unit_Tests@@AEAAXXZ@QEBA@XZ@4HA DD imagerel ?dtor$0@?0???R<lambda_4>@?9??ui512_01_div_pt1@ui512_unit_tests_division@ui512_Unit_Tests@@AEAAXXZ@QEBA@XZ@4HA
	DD	imagerel ?dtor$0@?0???R<lambda_4>@?9??ui512_01_div_pt1@ui512_unit_tests_division@ui512_Unit_Tests@@AEAAXXZ@QEBA@XZ@4HA+36
	DD	imagerel $unwind$?dtor$0@?0???R<lambda_4>@?9??ui512_01_div_pt1@ui512_unit_tests_division@ui512_Unit_Tests@@AEAAXXZ@QEBA@XZ@4HA
pdata	ENDS
;	COMDAT pdata
pdata	SEGMENT
$pdata$??0<lambda_4>@?9??ui512_01_div_pt1@ui512_unit_tests_division@ui512_Unit_Tests@@AEAAXXZ@QEAA@AEAH0@Z DD imagerel $LN4
	DD	imagerel $LN4+94
	DD	imagerel $unwind$??0<lambda_4>@?9??ui512_01_div_pt1@ui512_unit_tests_division@ui512_Unit_Tests@@AEAAXXZ@QEAA@AEAH0@Z
pdata	ENDS
;	COMDAT pdata
pdata	SEGMENT
$pdata$??R<lambda_5>@?O@??ui512_01_div_pt1@ui512_unit_tests_division@ui512_Unit_Tests@@AEAAXXZ@QEBA@XZ DD imagerel $LN6
	DD	imagerel $LN6+337
	DD	imagerel $unwind$??R<lambda_5>@?O@??ui512_01_div_pt1@ui512_unit_tests_division@ui512_Unit_Tests@@AEAAXXZ@QEBA@XZ
pdata	ENDS
;	COMDAT pdata
pdata	SEGMENT
$pdata$?dtor$0@?0???R<lambda_5>@?O@??ui512_01_div_pt1@ui512_unit_tests_division@ui512_Unit_Tests@@AEAAXXZ@QEBA@XZ@4HA DD imagerel ?dtor$0@?0???R<lambda_5>@?O@??ui512_01_div_pt1@ui512_unit_tests_division@ui512_Unit_Tests@@AEAAXXZ@QEBA@XZ@4HA
	DD	imagerel ?dtor$0@?0???R<lambda_5>@?O@??ui512_01_div_pt1@ui512_unit_tests_division@ui512_Unit_Tests@@AEAAXXZ@QEBA@XZ@4HA+36
	DD	imagerel $unwind$?dtor$0@?0???R<lambda_5>@?O@??ui512_01_div_pt1@ui512_unit_tests_division@ui512_Unit_Tests@@AEAAXXZ@QEBA@XZ@4HA
pdata	ENDS
;	COMDAT pdata
pdata	SEGMENT
$pdata$??0<lambda_5>@?O@??ui512_01_div_pt1@ui512_unit_tests_division@ui512_Unit_Tests@@AEAAXXZ@QEAA@AEAH0@Z DD imagerel $LN4
	DD	imagerel $LN4+94
	DD	imagerel $unwind$??0<lambda_5>@?O@??ui512_01_div_pt1@ui512_unit_tests_division@ui512_Unit_Tests@@AEAAXXZ@QEAA@AEAH0@Z
pdata	ENDS
;	COMDAT pdata
pdata	SEGMENT
$pdata$??R<lambda_6>@?O@??ui512_01_div_pt1@ui512_unit_tests_division@ui512_Unit_Tests@@AEAAXXZ@QEBA@XZ DD imagerel $LN6
	DD	imagerel $LN6+337
	DD	imagerel $unwind$??R<lambda_6>@?O@??ui512_01_div_pt1@ui512_unit_tests_division@ui512_Unit_Tests@@AEAAXXZ@QEBA@XZ
pdata	ENDS
;	COMDAT pdata
pdata	SEGMENT
$pdata$?dtor$0@?0???R<lambda_6>@?O@??ui512_01_div_pt1@ui512_unit_tests_division@ui512_Unit_Tests@@AEAAXXZ@QEBA@XZ@4HA DD imagerel ?dtor$0@?0???R<lambda_6>@?O@??ui512_01_div_pt1@ui512_unit_tests_division@ui512_Unit_Tests@@AEAAXXZ@QEBA@XZ@4HA
	DD	imagerel ?dtor$0@?0???R<lambda_6>@?O@??ui512_01_div_pt1@ui512_unit_tests_division@ui512_Unit_Tests@@AEAAXXZ@QEBA@XZ@4HA+36
	DD	imagerel $unwind$?dtor$0@?0???R<lambda_6>@?O@??ui512_01_div_pt1@ui512_unit_tests_division@ui512_Unit_Tests@@AEAAXXZ@QEBA@XZ@4HA
pdata	ENDS
;	COMDAT pdata
pdata	SEGMENT
$pdata$??0<lambda_6>@?O@??ui512_01_div_pt1@ui512_unit_tests_division@ui512_Unit_Tests@@AEAAXXZ@QEAA@AEAH0@Z DD imagerel $LN4
	DD	imagerel $LN4+94
	DD	imagerel $unwind$??0<lambda_6>@?O@??ui512_01_div_pt1@ui512_unit_tests_division@ui512_Unit_Tests@@AEAAXXZ@QEAA@AEAH0@Z
pdata	ENDS
;	COMDAT pdata
pdata	SEGMENT
$pdata$??R<lambda_7>@?BC@??ui512_01_div_pt1@ui512_unit_tests_division@ui512_Unit_Tests@@AEAAXXZ@QEBA@XZ DD imagerel $LN6
	DD	imagerel $LN6+337
	DD	imagerel $unwind$??R<lambda_7>@?BC@??ui512_01_div_pt1@ui512_unit_tests_division@ui512_Unit_Tests@@AEAAXXZ@QEBA@XZ
pdata	ENDS
;	COMDAT pdata
pdata	SEGMENT
$pdata$?dtor$0@?0???R<lambda_7>@?BC@??ui512_01_div_pt1@ui512_unit_tests_division@ui512_Unit_Tests@@AEAAXXZ@QEBA@XZ@4HA DD imagerel ?dtor$0@?0???R<lambda_7>@?BC@??ui512_01_div_pt1@ui512_unit_tests_division@ui512_Unit_Tests@@AEAAXXZ@QEBA@XZ@4HA
	DD	imagerel ?dtor$0@?0???R<lambda_7>@?BC@??ui512_01_div_pt1@ui512_unit_tests_division@ui512_Unit_Tests@@AEAAXXZ@QEBA@XZ@4HA+36
	DD	imagerel $unwind$?dtor$0@?0???R<lambda_7>@?BC@??ui512_01_div_pt1@ui512_unit_tests_division@ui512_Unit_Tests@@AEAAXXZ@QEBA@XZ@4HA
pdata	ENDS
;	COMDAT pdata
pdata	SEGMENT
$pdata$??0<lambda_7>@?BC@??ui512_01_div_pt1@ui512_unit_tests_division@ui512_Unit_Tests@@AEAAXXZ@QEAA@AEAH0@Z DD imagerel $LN4
	DD	imagerel $LN4+94
	DD	imagerel $unwind$??0<lambda_7>@?BC@??ui512_01_div_pt1@ui512_unit_tests_division@ui512_Unit_Tests@@AEAAXXZ@QEAA@AEAH0@Z
pdata	ENDS
;	COMDAT pdata
pdata	SEGMENT
$pdata$??R<lambda_8>@?BC@??ui512_01_div_pt1@ui512_unit_tests_division@ui512_Unit_Tests@@AEAAXXZ@QEBA@XZ DD imagerel $LN6
	DD	imagerel $LN6+337
	DD	imagerel $unwind$??R<lambda_8>@?BC@??ui512_01_div_pt1@ui512_unit_tests_division@ui512_Unit_Tests@@AEAAXXZ@QEBA@XZ
pdata	ENDS
;	COMDAT pdata
pdata	SEGMENT
$pdata$?dtor$0@?0???R<lambda_8>@?BC@??ui512_01_div_pt1@ui512_unit_tests_division@ui512_Unit_Tests@@AEAAXXZ@QEBA@XZ@4HA DD imagerel ?dtor$0@?0???R<lambda_8>@?BC@??ui512_01_div_pt1@ui512_unit_tests_division@ui512_Unit_Tests@@AEAAXXZ@QEBA@XZ@4HA
	DD	imagerel ?dtor$0@?0???R<lambda_8>@?BC@??ui512_01_div_pt1@ui512_unit_tests_division@ui512_Unit_Tests@@AEAAXXZ@QEBA@XZ@4HA+36
	DD	imagerel $unwind$?dtor$0@?0???R<lambda_8>@?BC@??ui512_01_div_pt1@ui512_unit_tests_division@ui512_Unit_Tests@@AEAAXXZ@QEBA@XZ@4HA
pdata	ENDS
;	COMDAT pdata
pdata	SEGMENT
$pdata$??0<lambda_8>@?BC@??ui512_01_div_pt1@ui512_unit_tests_division@ui512_Unit_Tests@@AEAAXXZ@QEAA@AEAH0@Z DD imagerel $LN4
	DD	imagerel $LN4+94
	DD	imagerel $unwind$??0<lambda_8>@?BC@??ui512_01_div_pt1@ui512_unit_tests_division@ui512_Unit_Tests@@AEAAXXZ@QEAA@AEAH0@Z
pdata	ENDS
;	COMDAT pdata
pdata	SEGMENT
$pdata$??R<lambda_9>@?BG@??ui512_01_div_pt1@ui512_unit_tests_division@ui512_Unit_Tests@@AEAAXXZ@QEBA@XZ DD imagerel $LN6
	DD	imagerel $LN6+337
	DD	imagerel $unwind$??R<lambda_9>@?BG@??ui512_01_div_pt1@ui512_unit_tests_division@ui512_Unit_Tests@@AEAAXXZ@QEBA@XZ
pdata	ENDS
;	COMDAT pdata
pdata	SEGMENT
$pdata$?dtor$0@?0???R<lambda_9>@?BG@??ui512_01_div_pt1@ui512_unit_tests_division@ui512_Unit_Tests@@AEAAXXZ@QEBA@XZ@4HA DD imagerel ?dtor$0@?0???R<lambda_9>@?BG@??ui512_01_div_pt1@ui512_unit_tests_division@ui512_Unit_Tests@@AEAAXXZ@QEBA@XZ@4HA
	DD	imagerel ?dtor$0@?0???R<lambda_9>@?BG@??ui512_01_div_pt1@ui512_unit_tests_division@ui512_Unit_Tests@@AEAAXXZ@QEBA@XZ@4HA+36
	DD	imagerel $unwind$?dtor$0@?0???R<lambda_9>@?BG@??ui512_01_div_pt1@ui512_unit_tests_division@ui512_Unit_Tests@@AEAAXXZ@QEBA@XZ@4HA
pdata	ENDS
;	COMDAT pdata
pdata	SEGMENT
$pdata$??0<lambda_9>@?BG@??ui512_01_div_pt1@ui512_unit_tests_division@ui512_Unit_Tests@@AEAAXXZ@QEAA@AEAH0@Z DD imagerel $LN4
	DD	imagerel $LN4+94
	DD	imagerel $unwind$??0<lambda_9>@?BG@??ui512_01_div_pt1@ui512_unit_tests_division@ui512_Unit_Tests@@AEAAXXZ@QEAA@AEAH0@Z
pdata	ENDS
;	COMDAT pdata
pdata	SEGMENT
$pdata$??R<lambda_10>@?BG@??ui512_01_div_pt1@ui512_unit_tests_division@ui512_Unit_Tests@@AEAAXXZ@QEBA@XZ DD imagerel $LN6
	DD	imagerel $LN6+337
	DD	imagerel $unwind$??R<lambda_10>@?BG@??ui512_01_div_pt1@ui512_unit_tests_division@ui512_Unit_Tests@@AEAAXXZ@QEBA@XZ
pdata	ENDS
;	COMDAT pdata
pdata	SEGMENT
$pdata$?dtor$0@?0???R<lambda_10>@?BG@??ui512_01_div_pt1@ui512_unit_tests_division@ui512_Unit_Tests@@AEAAXXZ@QEBA@XZ@4HA DD imagerel ?dtor$0@?0???R<lambda_10>@?BG@??ui512_01_div_pt1@ui512_unit_tests_division@ui512_Unit_Tests@@AEAAXXZ@QEBA@XZ@4HA
	DD	imagerel ?dtor$0@?0???R<lambda_10>@?BG@??ui512_01_div_pt1@ui512_unit_tests_division@ui512_Unit_Tests@@AEAAXXZ@QEBA@XZ@4HA+36
	DD	imagerel $unwind$?dtor$0@?0???R<lambda_10>@?BG@??ui512_01_div_pt1@ui512_unit_tests_division@ui512_Unit_Tests@@AEAAXXZ@QEBA@XZ@4HA
pdata	ENDS
;	COMDAT pdata
pdata	SEGMENT
$pdata$??0<lambda_10>@?BG@??ui512_01_div_pt1@ui512_unit_tests_division@ui512_Unit_Tests@@AEAAXXZ@QEAA@AEAH0@Z DD imagerel $LN4
	DD	imagerel $LN4+94
	DD	imagerel $unwind$??0<lambda_10>@?BG@??ui512_01_div_pt1@ui512_unit_tests_division@ui512_Unit_Tests@@AEAAXXZ@QEAA@AEAH0@Z
pdata	ENDS
;	COMDAT pdata
pdata	SEGMENT
$pdata$??0?$basic_stringstream@DU?$char_traits@D@std@@V?$allocator@D@2@@std@@QEAA@XZ DD imagerel $LN8
	DD	imagerel $LN8+297
	DD	imagerel $unwind$??0?$basic_stringstream@DU?$char_traits@D@std@@V?$allocator@D@2@@std@@QEAA@XZ
pdata	ENDS
;	COMDAT pdata
pdata	SEGMENT
$pdata$?dtor$0@?0???0?$basic_stringstream@DU?$char_traits@D@std@@V?$allocator@D@2@@std@@QEAA@XZ@4HA DD imagerel ?dtor$0@?0???0?$basic_stringstream@DU?$char_traits@D@std@@V?$allocator@D@2@@std@@QEAA@XZ@4HA
	DD	imagerel ?dtor$0@?0???0?$basic_stringstream@DU?$char_traits@D@std@@V?$allocator@D@2@@std@@QEAA@XZ@4HA+67
	DD	imagerel $unwind$?dtor$0@?0???0?$basic_stringstream@DU?$char_traits@D@std@@V?$allocator@D@2@@std@@QEAA@XZ@4HA
pdata	ENDS
;	COMDAT pdata
pdata	SEGMENT
$pdata$?dtor$1@?0???0?$basic_stringstream@DU?$char_traits@D@std@@V?$allocator@D@2@@std@@QEAA@XZ@4HA DD imagerel ?dtor$1@?0???0?$basic_stringstream@DU?$char_traits@D@std@@V?$allocator@D@2@@std@@QEAA@XZ@4HA
	DD	imagerel ?dtor$1@?0???0?$basic_stringstream@DU?$char_traits@D@std@@V?$allocator@D@2@@std@@QEAA@XZ@4HA+44
	DD	imagerel $unwind$?dtor$1@?0???0?$basic_stringstream@DU?$char_traits@D@std@@V?$allocator@D@2@@std@@QEAA@XZ@4HA
pdata	ENDS
;	COMDAT pdata
pdata	SEGMENT
$pdata$??1?$basic_stringstream@DU?$char_traits@D@std@@V?$allocator@D@2@@std@@UEAA@XZ DD imagerel $LN4
	DD	imagerel $LN4+180
	DD	imagerel $unwind$??1?$basic_stringstream@DU?$char_traits@D@std@@V?$allocator@D@2@@std@@UEAA@XZ
pdata	ENDS
;	COMDAT pdata
pdata	SEGMENT
$pdata$?str@?$basic_stringstream@DU?$char_traits@D@std@@V?$allocator@D@2@@std@@QEGBA?AV?$basic_string@DU?$char_traits@D@std@@V?$allocator@D@2@@2@XZ DD imagerel $LN5
	DD	imagerel $LN5+116
	DD	imagerel $unwind$?str@?$basic_stringstream@DU?$char_traits@D@std@@V?$allocator@D@2@@std@@QEGBA?AV?$basic_string@DU?$char_traits@D@std@@V?$allocator@D@2@@2@XZ
pdata	ENDS
;	COMDAT pdata
pdata	SEGMENT
$pdata$?__autoclassinit2@?$basic_stringstream@DU?$char_traits@D@std@@V?$allocator@D@2@@std@@QEAAX_K@Z DD imagerel $LN4
	DD	imagerel $LN4+50
	DD	imagerel $unwind$?__autoclassinit2@?$basic_stringstream@DU?$char_traits@D@std@@V?$allocator@D@2@@std@@QEAAX_K@Z
pdata	ENDS
;	COMDAT pdata
pdata	SEGMENT
$pdata$??_G?$basic_stringstream@DU?$char_traits@D@std@@V?$allocator@D@2@@std@@UEAAPEAXI@Z DD imagerel $LN5
	DD	imagerel $LN5+108
	DD	imagerel $unwind$??_G?$basic_stringstream@DU?$char_traits@D@std@@V?$allocator@D@2@@std@@UEAAPEAXI@Z
pdata	ENDS
;	COMDAT pdata
pdata	SEGMENT
$pdata$??_D?$basic_stringstream@DU?$char_traits@D@std@@V?$allocator@D@2@@std@@QEAAXXZ DD imagerel $LN4
	DD	imagerel $LN4+74
	DD	imagerel $unwind$??_D?$basic_stringstream@DU?$char_traits@D@std@@V?$allocator@D@2@@std@@QEAAXXZ
pdata	ENDS
;	COMDAT pdata
pdata	SEGMENT
$pdata$??R<lambda_11>@?BH@??ui512_01_div_pt1@ui512_unit_tests_division@ui512_Unit_Tests@@AEAAXXZ@QEBA@XZ DD imagerel $LN6
	DD	imagerel $LN6+286
	DD	imagerel $unwind$??R<lambda_11>@?BH@??ui512_01_div_pt1@ui512_unit_tests_division@ui512_Unit_Tests@@AEAAXXZ@QEBA@XZ
pdata	ENDS
;	COMDAT pdata
pdata	SEGMENT
$pdata$?dtor$0@?0???R<lambda_11>@?BH@??ui512_01_div_pt1@ui512_unit_tests_division@ui512_Unit_Tests@@AEAAXXZ@QEBA@XZ@4HA DD imagerel ?dtor$0@?0???R<lambda_11>@?BH@??ui512_01_div_pt1@ui512_unit_tests_division@ui512_Unit_Tests@@AEAAXXZ@QEBA@XZ@4HA
	DD	imagerel ?dtor$0@?0???R<lambda_11>@?BH@??ui512_01_div_pt1@ui512_unit_tests_division@ui512_Unit_Tests@@AEAAXXZ@QEBA@XZ@4HA+36
	DD	imagerel $unwind$?dtor$0@?0???R<lambda_11>@?BH@??ui512_01_div_pt1@ui512_unit_tests_division@ui512_Unit_Tests@@AEAAXXZ@QEBA@XZ@4HA
pdata	ENDS
;	COMDAT pdata
pdata	SEGMENT
$pdata$??$?6U?$char_traits@D@std@@@std@@YAAEAV?$basic_ostream@DU?$char_traits@D@std@@@0@AEAV10@PEBD@Z DD imagerel $LN25
	DD	imagerel $LN25+1044
	DD	imagerel $unwind$??$?6U?$char_traits@D@std@@@std@@YAAEAV?$basic_ostream@DU?$char_traits@D@std@@@0@AEAV10@PEBD@Z
pdata	ENDS
;	COMDAT pdata
pdata	SEGMENT
$pdata$?dtor$0@?0???$?6U?$char_traits@D@std@@@std@@YAAEAV?$basic_ostream@DU?$char_traits@D@std@@@0@AEAV10@PEBD@Z@4HA DD imagerel ?dtor$0@?0???$?6U?$char_traits@D@std@@@std@@YAAEAV?$basic_ostream@DU?$char_traits@D@std@@@0@AEAV10@PEBD@Z@4HA
	DD	imagerel ?dtor$0@?0???$?6U?$char_traits@D@std@@@std@@YAAEAV?$basic_ostream@DU?$char_traits@D@std@@@0@AEAV10@PEBD@Z@4HA+36
	DD	imagerel $unwind$?dtor$0@?0???$?6U?$char_traits@D@std@@@std@@YAAEAV?$basic_ostream@DU?$char_traits@D@std@@@0@AEAV10@PEBD@Z@4HA
pdata	ENDS
;	COMDAT pdata
pdata	SEGMENT
$pdata$?catch$1@?0???$?6U?$char_traits@D@std@@@std@@YAAEAV?$basic_ostream@DU?$char_traits@D@std@@@0@AEAV10@PEBD@Z@4HA DD imagerel ?catch$1@?0???$?6U?$char_traits@D@std@@@std@@YAAEAV?$basic_ostream@DU?$char_traits@D@std@@@0@AEAV10@PEBD@Z@4HA
	DD	imagerel ?catch$1@?0???$?6U?$char_traits@D@std@@@std@@YAAEAV?$basic_ostream@DU?$char_traits@D@std@@@0@AEAV10@PEBD@Z@4HA+91
	DD	imagerel $unwind$?catch$1@?0???$?6U?$char_traits@D@std@@@std@@YAAEAV?$basic_ostream@DU?$char_traits@D@std@@@0@AEAV10@PEBD@Z@4HA
pdata	ENDS
;	COMDAT pdata
pdata	SEGMENT
$pdata$??R<lambda_1>@?3??ui512_01_div_pt2@ui512_unit_tests_division@ui512_Unit_Tests@@AEAAXXZ@QEBA@XZ DD imagerel $LN6
	DD	imagerel $LN6+277
	DD	imagerel $unwind$??R<lambda_1>@?3??ui512_01_div_pt2@ui512_unit_tests_division@ui512_Unit_Tests@@AEAAXXZ@QEBA@XZ
pdata	ENDS
;	COMDAT pdata
pdata	SEGMENT
$pdata$?dtor$0@?0???R<lambda_1>@?3??ui512_01_div_pt2@ui512_unit_tests_division@ui512_Unit_Tests@@AEAAXXZ@QEBA@XZ@4HA DD imagerel ?dtor$0@?0???R<lambda_1>@?3??ui512_01_div_pt2@ui512_unit_tests_division@ui512_Unit_Tests@@AEAAXXZ@QEBA@XZ@4HA
	DD	imagerel ?dtor$0@?0???R<lambda_1>@?3??ui512_01_div_pt2@ui512_unit_tests_division@ui512_Unit_Tests@@AEAAXXZ@QEBA@XZ@4HA+36
	DD	imagerel $unwind$?dtor$0@?0???R<lambda_1>@?3??ui512_01_div_pt2@ui512_unit_tests_division@ui512_Unit_Tests@@AEAAXXZ@QEBA@XZ@4HA
pdata	ENDS
;	COMDAT pdata
pdata	SEGMENT
$pdata$??0<lambda_1>@?3??ui512_01_div_pt2@ui512_unit_tests_division@ui512_Unit_Tests@@AEAAXXZ@QEAA@AEAH@Z DD imagerel $LN4
	DD	imagerel $LN4+71
	DD	imagerel $unwind$??0<lambda_1>@?3??ui512_01_div_pt2@ui512_unit_tests_division@ui512_Unit_Tests@@AEAAXXZ@QEAA@AEAH@Z
pdata	ENDS
;	COMDAT pdata
pdata	SEGMENT
$pdata$??R<lambda_2>@?4??ui512_01_div_pt2@ui512_unit_tests_division@ui512_Unit_Tests@@AEAAXXZ@QEBA@XZ DD imagerel $LN6
	DD	imagerel $LN6+233
	DD	imagerel $unwind$??R<lambda_2>@?4??ui512_01_div_pt2@ui512_unit_tests_division@ui512_Unit_Tests@@AEAAXXZ@QEBA@XZ
pdata	ENDS
;	COMDAT pdata
pdata	SEGMENT
$pdata$?dtor$0@?0???R<lambda_2>@?4??ui512_01_div_pt2@ui512_unit_tests_division@ui512_Unit_Tests@@AEAAXXZ@QEBA@XZ@4HA DD imagerel ?dtor$0@?0???R<lambda_2>@?4??ui512_01_div_pt2@ui512_unit_tests_division@ui512_Unit_Tests@@AEAAXXZ@QEBA@XZ@4HA
	DD	imagerel ?dtor$0@?0???R<lambda_2>@?4??ui512_01_div_pt2@ui512_unit_tests_division@ui512_Unit_Tests@@AEAAXXZ@QEBA@XZ@4HA+36
	DD	imagerel $unwind$?dtor$0@?0???R<lambda_2>@?4??ui512_01_div_pt2@ui512_unit_tests_division@ui512_Unit_Tests@@AEAAXXZ@QEBA@XZ@4HA
pdata	ENDS
;	COMDAT pdata
pdata	SEGMENT
$pdata$??R<lambda_1>@?N@??ui512_01_div_pt3@ui512_unit_tests_division@ui512_Unit_Tests@@AEAAXXZ@QEBA@XZ DD imagerel $LN6
	DD	imagerel $LN6+337
	DD	imagerel $unwind$??R<lambda_1>@?N@??ui512_01_div_pt3@ui512_unit_tests_division@ui512_Unit_Tests@@AEAAXXZ@QEBA@XZ
pdata	ENDS
;	COMDAT pdata
pdata	SEGMENT
$pdata$?dtor$0@?0???R<lambda_1>@?N@??ui512_01_div_pt3@ui512_unit_tests_division@ui512_Unit_Tests@@AEAAXXZ@QEBA@XZ@4HA DD imagerel ?dtor$0@?0???R<lambda_1>@?N@??ui512_01_div_pt3@ui512_unit_tests_division@ui512_Unit_Tests@@AEAAXXZ@QEBA@XZ@4HA
	DD	imagerel ?dtor$0@?0???R<lambda_1>@?N@??ui512_01_div_pt3@ui512_unit_tests_division@ui512_Unit_Tests@@AEAAXXZ@QEBA@XZ@4HA+36
	DD	imagerel $unwind$?dtor$0@?0???R<lambda_1>@?N@??ui512_01_div_pt3@ui512_unit_tests_division@ui512_Unit_Tests@@AEAAXXZ@QEBA@XZ@4HA
pdata	ENDS
;	COMDAT pdata
pdata	SEGMENT
$pdata$??0<lambda_1>@?N@??ui512_01_div_pt3@ui512_unit_tests_division@ui512_Unit_Tests@@AEAAXXZ@QEAA@AEAH0@Z DD imagerel $LN4
	DD	imagerel $LN4+94
	DD	imagerel $unwind$??0<lambda_1>@?N@??ui512_01_div_pt3@ui512_unit_tests_division@ui512_Unit_Tests@@AEAAXXZ@QEAA@AEAH0@Z
pdata	ENDS
;	COMDAT pdata
pdata	SEGMENT
$pdata$??R<lambda_2>@?N@??ui512_01_div_pt3@ui512_unit_tests_division@ui512_Unit_Tests@@AEAAXXZ@QEBA@XZ DD imagerel $LN6
	DD	imagerel $LN6+277
	DD	imagerel $unwind$??R<lambda_2>@?N@??ui512_01_div_pt3@ui512_unit_tests_division@ui512_Unit_Tests@@AEAAXXZ@QEBA@XZ
pdata	ENDS
;	COMDAT pdata
pdata	SEGMENT
$pdata$?dtor$0@?0???R<lambda_2>@?N@??ui512_01_div_pt3@ui512_unit_tests_division@ui512_Unit_Tests@@AEAAXXZ@QEBA@XZ@4HA DD imagerel ?dtor$0@?0???R<lambda_2>@?N@??ui512_01_div_pt3@ui512_unit_tests_division@ui512_Unit_Tests@@AEAAXXZ@QEBA@XZ@4HA
	DD	imagerel ?dtor$0@?0???R<lambda_2>@?N@??ui512_01_div_pt3@ui512_unit_tests_division@ui512_Unit_Tests@@AEAAXXZ@QEBA@XZ@4HA+36
	DD	imagerel $unwind$?dtor$0@?0???R<lambda_2>@?N@??ui512_01_div_pt3@ui512_unit_tests_division@ui512_Unit_Tests@@AEAAXXZ@QEBA@XZ@4HA
pdata	ENDS
;	COMDAT pdata
pdata	SEGMENT
$pdata$??0<lambda_2>@?N@??ui512_01_div_pt3@ui512_unit_tests_division@ui512_Unit_Tests@@AEAAXXZ@QEAA@AEAH@Z DD imagerel $LN4
	DD	imagerel $LN4+71
	DD	imagerel $unwind$??0<lambda_2>@?N@??ui512_01_div_pt3@ui512_unit_tests_division@ui512_Unit_Tests@@AEAAXXZ@QEAA@AEAH@Z
pdata	ENDS
;	COMDAT pdata
pdata	SEGMENT
$pdata$??R<lambda_3>@?O@??ui512_01_div_pt3@ui512_unit_tests_division@ui512_Unit_Tests@@AEAAXXZ@QEBA@XZ DD imagerel $LN6
	DD	imagerel $LN6+286
	DD	imagerel $unwind$??R<lambda_3>@?O@??ui512_01_div_pt3@ui512_unit_tests_division@ui512_Unit_Tests@@AEAAXXZ@QEBA@XZ
pdata	ENDS
;	COMDAT pdata
pdata	SEGMENT
$pdata$?dtor$0@?0???R<lambda_3>@?O@??ui512_01_div_pt3@ui512_unit_tests_division@ui512_Unit_Tests@@AEAAXXZ@QEBA@XZ@4HA DD imagerel ?dtor$0@?0???R<lambda_3>@?O@??ui512_01_div_pt3@ui512_unit_tests_division@ui512_Unit_Tests@@AEAAXXZ@QEBA@XZ@4HA
	DD	imagerel ?dtor$0@?0???R<lambda_3>@?O@??ui512_01_div_pt3@ui512_unit_tests_division@ui512_Unit_Tests@@AEAAXXZ@QEBA@XZ@4HA+36
	DD	imagerel $unwind$?dtor$0@?0???R<lambda_3>@?O@??ui512_01_div_pt3@ui512_unit_tests_division@ui512_Unit_Tests@@AEAAXXZ@QEBA@XZ@4HA
pdata	ENDS
;	COMDAT pdata
pdata	SEGMENT
$pdata$??R<lambda_1>@?N@??ui512_01_div_pt4@ui512_unit_tests_division@ui512_Unit_Tests@@AEAAXXZ@QEBA@XZ DD imagerel $LN6
	DD	imagerel $LN6+400
	DD	imagerel $unwind$??R<lambda_1>@?N@??ui512_01_div_pt4@ui512_unit_tests_division@ui512_Unit_Tests@@AEAAXXZ@QEBA@XZ
pdata	ENDS
;	COMDAT pdata
pdata	SEGMENT
$pdata$?dtor$0@?0???R<lambda_1>@?N@??ui512_01_div_pt4@ui512_unit_tests_division@ui512_Unit_Tests@@AEAAXXZ@QEBA@XZ@4HA DD imagerel ?dtor$0@?0???R<lambda_1>@?N@??ui512_01_div_pt4@ui512_unit_tests_division@ui512_Unit_Tests@@AEAAXXZ@QEBA@XZ@4HA
	DD	imagerel ?dtor$0@?0???R<lambda_1>@?N@??ui512_01_div_pt4@ui512_unit_tests_division@ui512_Unit_Tests@@AEAAXXZ@QEBA@XZ@4HA+36
	DD	imagerel $unwind$?dtor$0@?0???R<lambda_1>@?N@??ui512_01_div_pt4@ui512_unit_tests_division@ui512_Unit_Tests@@AEAAXXZ@QEBA@XZ@4HA
pdata	ENDS
;	COMDAT pdata
pdata	SEGMENT
$pdata$??0<lambda_1>@?N@??ui512_01_div_pt4@ui512_unit_tests_division@ui512_Unit_Tests@@AEAAXXZ@QEAA@AEAHAEAG0@Z DD imagerel $LN4
	DD	imagerel $LN4+117
	DD	imagerel $unwind$??0<lambda_1>@?N@??ui512_01_div_pt4@ui512_unit_tests_division@ui512_Unit_Tests@@AEAAXXZ@QEAA@AEAHAEAG0@Z
pdata	ENDS
;	COMDAT pdata
pdata	SEGMENT
$pdata$??R<lambda_2>@?N@??ui512_01_div_pt4@ui512_unit_tests_division@ui512_Unit_Tests@@AEAAXXZ@QEBA@XZ DD imagerel $LN6
	DD	imagerel $LN6+400
	DD	imagerel $unwind$??R<lambda_2>@?N@??ui512_01_div_pt4@ui512_unit_tests_division@ui512_Unit_Tests@@AEAAXXZ@QEBA@XZ
pdata	ENDS
;	COMDAT pdata
pdata	SEGMENT
$pdata$?dtor$0@?0???R<lambda_2>@?N@??ui512_01_div_pt4@ui512_unit_tests_division@ui512_Unit_Tests@@AEAAXXZ@QEBA@XZ@4HA DD imagerel ?dtor$0@?0???R<lambda_2>@?N@??ui512_01_div_pt4@ui512_unit_tests_division@ui512_Unit_Tests@@AEAAXXZ@QEBA@XZ@4HA
	DD	imagerel ?dtor$0@?0???R<lambda_2>@?N@??ui512_01_div_pt4@ui512_unit_tests_division@ui512_Unit_Tests@@AEAAXXZ@QEBA@XZ@4HA+36
	DD	imagerel $unwind$?dtor$0@?0???R<lambda_2>@?N@??ui512_01_div_pt4@ui512_unit_tests_division@ui512_Unit_Tests@@AEAAXXZ@QEBA@XZ@4HA
pdata	ENDS
;	COMDAT pdata
pdata	SEGMENT
$pdata$??0<lambda_2>@?N@??ui512_01_div_pt4@ui512_unit_tests_division@ui512_Unit_Tests@@AEAAXXZ@QEAA@AEAHAEAG0@Z DD imagerel $LN4
	DD	imagerel $LN4+117
	DD	imagerel $unwind$??0<lambda_2>@?N@??ui512_01_div_pt4@ui512_unit_tests_division@ui512_Unit_Tests@@AEAAXXZ@QEAA@AEAHAEAG0@Z
pdata	ENDS
;	COMDAT pdata
pdata	SEGMENT
$pdata$??R<lambda_3>@?O@??ui512_01_div_pt4@ui512_unit_tests_division@ui512_Unit_Tests@@AEAAXXZ@QEBA@XZ DD imagerel $LN6
	DD	imagerel $LN6+286
	DD	imagerel $unwind$??R<lambda_3>@?O@??ui512_01_div_pt4@ui512_unit_tests_division@ui512_Unit_Tests@@AEAAXXZ@QEBA@XZ
pdata	ENDS
;	COMDAT pdata
pdata	SEGMENT
$pdata$?dtor$0@?0???R<lambda_3>@?O@??ui512_01_div_pt4@ui512_unit_tests_division@ui512_Unit_Tests@@AEAAXXZ@QEBA@XZ@4HA DD imagerel ?dtor$0@?0???R<lambda_3>@?O@??ui512_01_div_pt4@ui512_unit_tests_division@ui512_Unit_Tests@@AEAAXXZ@QEBA@XZ@4HA
	DD	imagerel ?dtor$0@?0???R<lambda_3>@?O@??ui512_01_div_pt4@ui512_unit_tests_division@ui512_Unit_Tests@@AEAAXXZ@QEBA@XZ@4HA+36
	DD	imagerel $unwind$?dtor$0@?0???R<lambda_3>@?O@??ui512_01_div_pt4@ui512_unit_tests_division@ui512_Unit_Tests@@AEAAXXZ@QEBA@XZ@4HA
pdata	ENDS
;	COMDAT pdata
pdata	SEGMENT
$pdata$??R<lambda_4>@?BJ@??ui512_01_div_pt4@ui512_unit_tests_division@ui512_Unit_Tests@@AEAAXXZ@QEBA@XZ DD imagerel $LN6
	DD	imagerel $LN6+286
	DD	imagerel $unwind$??R<lambda_4>@?BJ@??ui512_01_div_pt4@ui512_unit_tests_division@ui512_Unit_Tests@@AEAAXXZ@QEBA@XZ
pdata	ENDS
;	COMDAT pdata
pdata	SEGMENT
$pdata$?dtor$0@?0???R<lambda_4>@?BJ@??ui512_01_div_pt4@ui512_unit_tests_division@ui512_Unit_Tests@@AEAAXXZ@QEBA@XZ@4HA DD imagerel ?dtor$0@?0???R<lambda_4>@?BJ@??ui512_01_div_pt4@ui512_unit_tests_division@ui512_Unit_Tests@@AEAAXXZ@QEBA@XZ@4HA
	DD	imagerel ?dtor$0@?0???R<lambda_4>@?BJ@??ui512_01_div_pt4@ui512_unit_tests_division@ui512_Unit_Tests@@AEAAXXZ@QEBA@XZ@4HA+36
	DD	imagerel $unwind$?dtor$0@?0???R<lambda_4>@?BJ@??ui512_01_div_pt4@ui512_unit_tests_division@ui512_Unit_Tests@@AEAAXXZ@QEBA@XZ@4HA
pdata	ENDS
;	COMDAT pdata
pdata	SEGMENT
$pdata$??R<lambda_1>@?5??ui512_02_div64@ui512_unit_tests_division@ui512_Unit_Tests@@AEAAXXZ@QEBA@XZ DD imagerel $LN6
	DD	imagerel $LN6+337
	DD	imagerel $unwind$??R<lambda_1>@?5??ui512_02_div64@ui512_unit_tests_division@ui512_Unit_Tests@@AEAAXXZ@QEBA@XZ
pdata	ENDS
;	COMDAT pdata
pdata	SEGMENT
$pdata$?dtor$0@?0???R<lambda_1>@?5??ui512_02_div64@ui512_unit_tests_division@ui512_Unit_Tests@@AEAAXXZ@QEBA@XZ@4HA DD imagerel ?dtor$0@?0???R<lambda_1>@?5??ui512_02_div64@ui512_unit_tests_division@ui512_Unit_Tests@@AEAAXXZ@QEBA@XZ@4HA
	DD	imagerel ?dtor$0@?0???R<lambda_1>@?5??ui512_02_div64@ui512_unit_tests_division@ui512_Unit_Tests@@AEAAXXZ@QEBA@XZ@4HA+36
	DD	imagerel $unwind$?dtor$0@?0???R<lambda_1>@?5??ui512_02_div64@ui512_unit_tests_division@ui512_Unit_Tests@@AEAAXXZ@QEBA@XZ@4HA
pdata	ENDS
;	COMDAT pdata
pdata	SEGMENT
$pdata$??0<lambda_1>@?5??ui512_02_div64@ui512_unit_tests_division@ui512_Unit_Tests@@AEAAXXZ@QEAA@AEAH0@Z DD imagerel $LN4
	DD	imagerel $LN4+94
	DD	imagerel $unwind$??0<lambda_1>@?5??ui512_02_div64@ui512_unit_tests_division@ui512_Unit_Tests@@AEAAXXZ@QEAA@AEAH0@Z
pdata	ENDS
;	COMDAT pdata
pdata	SEGMENT
$pdata$??R<lambda_2>@?3??ui512_02_div64@ui512_unit_tests_division@ui512_Unit_Tests@@AEAAXXZ@QEBA@XZ DD imagerel $LN6
	DD	imagerel $LN6+277
	DD	imagerel $unwind$??R<lambda_2>@?3??ui512_02_div64@ui512_unit_tests_division@ui512_Unit_Tests@@AEAAXXZ@QEBA@XZ
pdata	ENDS
;	COMDAT pdata
pdata	SEGMENT
$pdata$?dtor$0@?0???R<lambda_2>@?3??ui512_02_div64@ui512_unit_tests_division@ui512_Unit_Tests@@AEAAXXZ@QEBA@XZ@4HA DD imagerel ?dtor$0@?0???R<lambda_2>@?3??ui512_02_div64@ui512_unit_tests_division@ui512_Unit_Tests@@AEAAXXZ@QEBA@XZ@4HA
	DD	imagerel ?dtor$0@?0???R<lambda_2>@?3??ui512_02_div64@ui512_unit_tests_division@ui512_Unit_Tests@@AEAAXXZ@QEBA@XZ@4HA+36
	DD	imagerel $unwind$?dtor$0@?0???R<lambda_2>@?3??ui512_02_div64@ui512_unit_tests_division@ui512_Unit_Tests@@AEAAXXZ@QEBA@XZ@4HA
pdata	ENDS
;	COMDAT pdata
pdata	SEGMENT
$pdata$??0<lambda_2>@?3??ui512_02_div64@ui512_unit_tests_division@ui512_Unit_Tests@@AEAAXXZ@QEAA@AEAH@Z DD imagerel $LN4
	DD	imagerel $LN4+71
	DD	imagerel $unwind$??0<lambda_2>@?3??ui512_02_div64@ui512_unit_tests_division@ui512_Unit_Tests@@AEAAXXZ@QEAA@AEAH@Z
pdata	ENDS
;	COMDAT pdata
pdata	SEGMENT
$pdata$??R<lambda_3>@?9??ui512_02_div64@ui512_unit_tests_division@ui512_Unit_Tests@@AEAAXXZ@QEBA@XZ DD imagerel $LN6
	DD	imagerel $LN6+337
	DD	imagerel $unwind$??R<lambda_3>@?9??ui512_02_div64@ui512_unit_tests_division@ui512_Unit_Tests@@AEAAXXZ@QEBA@XZ
pdata	ENDS
;	COMDAT pdata
pdata	SEGMENT
$pdata$?dtor$0@?0???R<lambda_3>@?9??ui512_02_div64@ui512_unit_tests_division@ui512_Unit_Tests@@AEAAXXZ@QEBA@XZ@4HA DD imagerel ?dtor$0@?0???R<lambda_3>@?9??ui512_02_div64@ui512_unit_tests_division@ui512_Unit_Tests@@AEAAXXZ@QEBA@XZ@4HA
	DD	imagerel ?dtor$0@?0???R<lambda_3>@?9??ui512_02_div64@ui512_unit_tests_division@ui512_Unit_Tests@@AEAAXXZ@QEBA@XZ@4HA+36
	DD	imagerel $unwind$?dtor$0@?0???R<lambda_3>@?9??ui512_02_div64@ui512_unit_tests_division@ui512_Unit_Tests@@AEAAXXZ@QEBA@XZ@4HA
pdata	ENDS
;	COMDAT pdata
pdata	SEGMENT
$pdata$??0<lambda_3>@?9??ui512_02_div64@ui512_unit_tests_division@ui512_Unit_Tests@@AEAAXXZ@QEAA@AEAH0@Z DD imagerel $LN4
	DD	imagerel $LN4+94
	DD	imagerel $unwind$??0<lambda_3>@?9??ui512_02_div64@ui512_unit_tests_division@ui512_Unit_Tests@@AEAAXXZ@QEAA@AEAH0@Z
pdata	ENDS
;	COMDAT pdata
pdata	SEGMENT
$pdata$??R<lambda_4>@?7??ui512_02_div64@ui512_unit_tests_division@ui512_Unit_Tests@@AEAAXXZ@QEBA@XZ DD imagerel $LN6
	DD	imagerel $LN6+277
	DD	imagerel $unwind$??R<lambda_4>@?7??ui512_02_div64@ui512_unit_tests_division@ui512_Unit_Tests@@AEAAXXZ@QEBA@XZ
pdata	ENDS
;	COMDAT pdata
pdata	SEGMENT
$pdata$?dtor$0@?0???R<lambda_4>@?7??ui512_02_div64@ui512_unit_tests_division@ui512_Unit_Tests@@AEAAXXZ@QEBA@XZ@4HA DD imagerel ?dtor$0@?0???R<lambda_4>@?7??ui512_02_div64@ui512_unit_tests_division@ui512_Unit_Tests@@AEAAXXZ@QEBA@XZ@4HA
	DD	imagerel ?dtor$0@?0???R<lambda_4>@?7??ui512_02_div64@ui512_unit_tests_division@ui512_Unit_Tests@@AEAAXXZ@QEBA@XZ@4HA+36
	DD	imagerel $unwind$?dtor$0@?0???R<lambda_4>@?7??ui512_02_div64@ui512_unit_tests_division@ui512_Unit_Tests@@AEAAXXZ@QEBA@XZ@4HA
pdata	ENDS
;	COMDAT pdata
pdata	SEGMENT
$pdata$??0<lambda_4>@?7??ui512_02_div64@ui512_unit_tests_division@ui512_Unit_Tests@@AEAAXXZ@QEAA@AEAH@Z DD imagerel $LN4
	DD	imagerel $LN4+71
	DD	imagerel $unwind$??0<lambda_4>@?7??ui512_02_div64@ui512_unit_tests_division@ui512_Unit_Tests@@AEAAXXZ@QEAA@AEAH@Z
pdata	ENDS
;	COMDAT pdata
pdata	SEGMENT
$pdata$??R<lambda_5>@?O@??ui512_02_div64@ui512_unit_tests_division@ui512_Unit_Tests@@AEAAXXZ@QEBA@XZ DD imagerel $LN6
	DD	imagerel $LN6+337
	DD	imagerel $unwind$??R<lambda_5>@?O@??ui512_02_div64@ui512_unit_tests_division@ui512_Unit_Tests@@AEAAXXZ@QEBA@XZ
pdata	ENDS
;	COMDAT pdata
pdata	SEGMENT
$pdata$?dtor$0@?0???R<lambda_5>@?O@??ui512_02_div64@ui512_unit_tests_division@ui512_Unit_Tests@@AEAAXXZ@QEBA@XZ@4HA DD imagerel ?dtor$0@?0???R<lambda_5>@?O@??ui512_02_div64@ui512_unit_tests_division@ui512_Unit_Tests@@AEAAXXZ@QEBA@XZ@4HA
	DD	imagerel ?dtor$0@?0???R<lambda_5>@?O@??ui512_02_div64@ui512_unit_tests_division@ui512_Unit_Tests@@AEAAXXZ@QEBA@XZ@4HA+36
	DD	imagerel $unwind$?dtor$0@?0???R<lambda_5>@?O@??ui512_02_div64@ui512_unit_tests_division@ui512_Unit_Tests@@AEAAXXZ@QEBA@XZ@4HA
pdata	ENDS
;	COMDAT pdata
pdata	SEGMENT
$pdata$??0<lambda_5>@?O@??ui512_02_div64@ui512_unit_tests_division@ui512_Unit_Tests@@AEAAXXZ@QEAA@AEAH0@Z DD imagerel $LN4
	DD	imagerel $LN4+94
	DD	imagerel $unwind$??0<lambda_5>@?O@??ui512_02_div64@ui512_unit_tests_division@ui512_Unit_Tests@@AEAAXXZ@QEAA@AEAH0@Z
pdata	ENDS
;	COMDAT pdata
pdata	SEGMENT
$pdata$??R<lambda_6>@?M@??ui512_02_div64@ui512_unit_tests_division@ui512_Unit_Tests@@AEAAXXZ@QEBA@XZ DD imagerel $LN6
	DD	imagerel $LN6+277
	DD	imagerel $unwind$??R<lambda_6>@?M@??ui512_02_div64@ui512_unit_tests_division@ui512_Unit_Tests@@AEAAXXZ@QEBA@XZ
pdata	ENDS
;	COMDAT pdata
pdata	SEGMENT
$pdata$?dtor$0@?0???R<lambda_6>@?M@??ui512_02_div64@ui512_unit_tests_division@ui512_Unit_Tests@@AEAAXXZ@QEBA@XZ@4HA DD imagerel ?dtor$0@?0???R<lambda_6>@?M@??ui512_02_div64@ui512_unit_tests_division@ui512_Unit_Tests@@AEAAXXZ@QEBA@XZ@4HA
	DD	imagerel ?dtor$0@?0???R<lambda_6>@?M@??ui512_02_div64@ui512_unit_tests_division@ui512_Unit_Tests@@AEAAXXZ@QEBA@XZ@4HA+36
	DD	imagerel $unwind$?dtor$0@?0???R<lambda_6>@?M@??ui512_02_div64@ui512_unit_tests_division@ui512_Unit_Tests@@AEAAXXZ@QEBA@XZ@4HA
pdata	ENDS
;	COMDAT pdata
pdata	SEGMENT
$pdata$??0<lambda_6>@?M@??ui512_02_div64@ui512_unit_tests_division@ui512_Unit_Tests@@AEAAXXZ@QEAA@AEAH@Z DD imagerel $LN4
	DD	imagerel $LN4+71
	DD	imagerel $unwind$??0<lambda_6>@?M@??ui512_02_div64@ui512_unit_tests_division@ui512_Unit_Tests@@AEAAXXZ@QEAA@AEAH@Z
pdata	ENDS
;	COMDAT pdata
pdata	SEGMENT
$pdata$??R<lambda_7>@?P@??ui512_02_div64@ui512_unit_tests_division@ui512_Unit_Tests@@AEAAXXZ@QEBA@XZ DD imagerel $LN6
	DD	imagerel $LN6+286
	DD	imagerel $unwind$??R<lambda_7>@?P@??ui512_02_div64@ui512_unit_tests_division@ui512_Unit_Tests@@AEAAXXZ@QEBA@XZ
pdata	ENDS
;	COMDAT pdata
pdata	SEGMENT
$pdata$?dtor$0@?0???R<lambda_7>@?P@??ui512_02_div64@ui512_unit_tests_division@ui512_Unit_Tests@@AEAAXXZ@QEBA@XZ@4HA DD imagerel ?dtor$0@?0???R<lambda_7>@?P@??ui512_02_div64@ui512_unit_tests_division@ui512_Unit_Tests@@AEAAXXZ@QEBA@XZ@4HA
	DD	imagerel ?dtor$0@?0???R<lambda_7>@?P@??ui512_02_div64@ui512_unit_tests_division@ui512_Unit_Tests@@AEAAXXZ@QEBA@XZ@4HA+36
	DD	imagerel $unwind$?dtor$0@?0???R<lambda_7>@?P@??ui512_02_div64@ui512_unit_tests_division@ui512_Unit_Tests@@AEAAXXZ@QEBA@XZ@4HA
pdata	ENDS
;	COMDAT pdata
pdata	SEGMENT
$pdata$??R<lambda_8>@?BD@??ui512_02_div64@ui512_unit_tests_division@ui512_Unit_Tests@@AEAAXXZ@QEBA@XZ DD imagerel $LN6
	DD	imagerel $LN6+337
	DD	imagerel $unwind$??R<lambda_8>@?BD@??ui512_02_div64@ui512_unit_tests_division@ui512_Unit_Tests@@AEAAXXZ@QEBA@XZ
pdata	ENDS
;	COMDAT pdata
pdata	SEGMENT
$pdata$?dtor$0@?0???R<lambda_8>@?BD@??ui512_02_div64@ui512_unit_tests_division@ui512_Unit_Tests@@AEAAXXZ@QEBA@XZ@4HA DD imagerel ?dtor$0@?0???R<lambda_8>@?BD@??ui512_02_div64@ui512_unit_tests_division@ui512_Unit_Tests@@AEAAXXZ@QEBA@XZ@4HA
	DD	imagerel ?dtor$0@?0???R<lambda_8>@?BD@??ui512_02_div64@ui512_unit_tests_division@ui512_Unit_Tests@@AEAAXXZ@QEBA@XZ@4HA+36
	DD	imagerel $unwind$?dtor$0@?0???R<lambda_8>@?BD@??ui512_02_div64@ui512_unit_tests_division@ui512_Unit_Tests@@AEAAXXZ@QEBA@XZ@4HA
pdata	ENDS
;	COMDAT pdata
pdata	SEGMENT
$pdata$??0<lambda_8>@?BD@??ui512_02_div64@ui512_unit_tests_division@ui512_Unit_Tests@@AEAAXXZ@QEAA@AEAH0@Z DD imagerel $LN4
	DD	imagerel $LN4+94
	DD	imagerel $unwind$??0<lambda_8>@?BD@??ui512_02_div64@ui512_unit_tests_division@ui512_Unit_Tests@@AEAAXXZ@QEAA@AEAH0@Z
pdata	ENDS
;	COMDAT pdata
pdata	SEGMENT
$pdata$??R<lambda_9>@?BB@??ui512_02_div64@ui512_unit_tests_division@ui512_Unit_Tests@@AEAAXXZ@QEBA@XZ DD imagerel $LN6
	DD	imagerel $LN6+277
	DD	imagerel $unwind$??R<lambda_9>@?BB@??ui512_02_div64@ui512_unit_tests_division@ui512_Unit_Tests@@AEAAXXZ@QEBA@XZ
pdata	ENDS
;	COMDAT pdata
pdata	SEGMENT
$pdata$?dtor$0@?0???R<lambda_9>@?BB@??ui512_02_div64@ui512_unit_tests_division@ui512_Unit_Tests@@AEAAXXZ@QEBA@XZ@4HA DD imagerel ?dtor$0@?0???R<lambda_9>@?BB@??ui512_02_div64@ui512_unit_tests_division@ui512_Unit_Tests@@AEAAXXZ@QEBA@XZ@4HA
	DD	imagerel ?dtor$0@?0???R<lambda_9>@?BB@??ui512_02_div64@ui512_unit_tests_division@ui512_Unit_Tests@@AEAAXXZ@QEBA@XZ@4HA+36
	DD	imagerel $unwind$?dtor$0@?0???R<lambda_9>@?BB@??ui512_02_div64@ui512_unit_tests_division@ui512_Unit_Tests@@AEAAXXZ@QEBA@XZ@4HA
pdata	ENDS
;	COMDAT pdata
pdata	SEGMENT
$pdata$??0<lambda_9>@?BB@??ui512_02_div64@ui512_unit_tests_division@ui512_Unit_Tests@@AEAAXXZ@QEAA@AEAH@Z DD imagerel $LN4
	DD	imagerel $LN4+71
	DD	imagerel $unwind$??0<lambda_9>@?BB@??ui512_02_div64@ui512_unit_tests_division@ui512_Unit_Tests@@AEAAXXZ@QEAA@AEAH@Z
pdata	ENDS
;	COMDAT pdata
pdata	SEGMENT
$pdata$??R<lambda_10>@?BE@??ui512_02_div64@ui512_unit_tests_division@ui512_Unit_Tests@@AEAAXXZ@QEBA@XZ DD imagerel $LN6
	DD	imagerel $LN6+286
	DD	imagerel $unwind$??R<lambda_10>@?BE@??ui512_02_div64@ui512_unit_tests_division@ui512_Unit_Tests@@AEAAXXZ@QEBA@XZ
pdata	ENDS
;	COMDAT pdata
pdata	SEGMENT
$pdata$?dtor$0@?0???R<lambda_10>@?BE@??ui512_02_div64@ui512_unit_tests_division@ui512_Unit_Tests@@AEAAXXZ@QEBA@XZ@4HA DD imagerel ?dtor$0@?0???R<lambda_10>@?BE@??ui512_02_div64@ui512_unit_tests_division@ui512_Unit_Tests@@AEAAXXZ@QEBA@XZ@4HA
	DD	imagerel ?dtor$0@?0???R<lambda_10>@?BE@??ui512_02_div64@ui512_unit_tests_division@ui512_Unit_Tests@@AEAAXXZ@QEBA@XZ@4HA+36
	DD	imagerel $unwind$?dtor$0@?0???R<lambda_10>@?BE@??ui512_02_div64@ui512_unit_tests_division@ui512_Unit_Tests@@AEAAXXZ@QEBA@XZ@4HA
pdata	ENDS
;	COMDAT pdata
pdata	SEGMENT
$pdata$??R<lambda_11>@?BK@??ui512_02_div64@ui512_unit_tests_division@ui512_Unit_Tests@@AEAAXXZ@QEBA@XZ DD imagerel $LN6
	DD	imagerel $LN6+400
	DD	imagerel $unwind$??R<lambda_11>@?BK@??ui512_02_div64@ui512_unit_tests_division@ui512_Unit_Tests@@AEAAXXZ@QEBA@XZ
pdata	ENDS
;	COMDAT pdata
pdata	SEGMENT
$pdata$?dtor$0@?0???R<lambda_11>@?BK@??ui512_02_div64@ui512_unit_tests_division@ui512_Unit_Tests@@AEAAXXZ@QEBA@XZ@4HA DD imagerel ?dtor$0@?0???R<lambda_11>@?BK@??ui512_02_div64@ui512_unit_tests_division@ui512_Unit_Tests@@AEAAXXZ@QEBA@XZ@4HA
	DD	imagerel ?dtor$0@?0???R<lambda_11>@?BK@??ui512_02_div64@ui512_unit_tests_division@ui512_Unit_Tests@@AEAAXXZ@QEBA@XZ@4HA+36
	DD	imagerel $unwind$?dtor$0@?0???R<lambda_11>@?BK@??ui512_02_div64@ui512_unit_tests_division@ui512_Unit_Tests@@AEAAXXZ@QEBA@XZ@4HA
pdata	ENDS
;	COMDAT pdata
pdata	SEGMENT
$pdata$??0<lambda_11>@?BK@??ui512_02_div64@ui512_unit_tests_division@ui512_Unit_Tests@@AEAAXXZ@QEAA@AEAHAEAG0@Z DD imagerel $LN4
	DD	imagerel $LN4+117
	DD	imagerel $unwind$??0<lambda_11>@?BK@??ui512_02_div64@ui512_unit_tests_division@ui512_Unit_Tests@@AEAAXXZ@QEAA@AEAHAEAG0@Z
pdata	ENDS
;	COMDAT pdata
pdata	SEGMENT
$pdata$??R<lambda_12>@?BI@??ui512_02_div64@ui512_unit_tests_division@ui512_Unit_Tests@@AEAAXXZ@QEBA@XZ DD imagerel $LN6
	DD	imagerel $LN6+340
	DD	imagerel $unwind$??R<lambda_12>@?BI@??ui512_02_div64@ui512_unit_tests_division@ui512_Unit_Tests@@AEAAXXZ@QEBA@XZ
pdata	ENDS
;	COMDAT pdata
pdata	SEGMENT
$pdata$?dtor$0@?0???R<lambda_12>@?BI@??ui512_02_div64@ui512_unit_tests_division@ui512_Unit_Tests@@AEAAXXZ@QEBA@XZ@4HA DD imagerel ?dtor$0@?0???R<lambda_12>@?BI@??ui512_02_div64@ui512_unit_tests_division@ui512_Unit_Tests@@AEAAXXZ@QEBA@XZ@4HA
	DD	imagerel ?dtor$0@?0???R<lambda_12>@?BI@??ui512_02_div64@ui512_unit_tests_division@ui512_Unit_Tests@@AEAAXXZ@QEBA@XZ@4HA+36
	DD	imagerel $unwind$?dtor$0@?0???R<lambda_12>@?BI@??ui512_02_div64@ui512_unit_tests_division@ui512_Unit_Tests@@AEAAXXZ@QEBA@XZ@4HA
pdata	ENDS
;	COMDAT pdata
pdata	SEGMENT
$pdata$??0<lambda_12>@?BI@??ui512_02_div64@ui512_unit_tests_division@ui512_Unit_Tests@@AEAAXXZ@QEAA@AEAGAEAH@Z DD imagerel $LN4
	DD	imagerel $LN4+94
	DD	imagerel $unwind$??0<lambda_12>@?BI@??ui512_02_div64@ui512_unit_tests_division@ui512_Unit_Tests@@AEAAXXZ@QEAA@AEAGAEAH@Z
pdata	ENDS
;	COMDAT pdata
pdata	SEGMENT
$pdata$??R<lambda_13>@?BL@??ui512_02_div64@ui512_unit_tests_division@ui512_Unit_Tests@@AEAAXXZ@QEBA@XZ DD imagerel $LN6
	DD	imagerel $LN6+286
	DD	imagerel $unwind$??R<lambda_13>@?BL@??ui512_02_div64@ui512_unit_tests_division@ui512_Unit_Tests@@AEAAXXZ@QEBA@XZ
pdata	ENDS
;	COMDAT pdata
pdata	SEGMENT
$pdata$?dtor$0@?0???R<lambda_13>@?BL@??ui512_02_div64@ui512_unit_tests_division@ui512_Unit_Tests@@AEAAXXZ@QEBA@XZ@4HA DD imagerel ?dtor$0@?0???R<lambda_13>@?BL@??ui512_02_div64@ui512_unit_tests_division@ui512_Unit_Tests@@AEAAXXZ@QEBA@XZ@4HA
	DD	imagerel ?dtor$0@?0???R<lambda_13>@?BL@??ui512_02_div64@ui512_unit_tests_division@ui512_Unit_Tests@@AEAAXXZ@QEBA@XZ@4HA+36
	DD	imagerel $unwind$?dtor$0@?0???R<lambda_13>@?BL@??ui512_02_div64@ui512_unit_tests_division@ui512_Unit_Tests@@AEAAXXZ@QEBA@XZ@4HA
pdata	ENDS
;	COMDAT pdata
pdata	SEGMENT
$pdata$??0?$_String_const_iterator@V?$_String_val@U?$_Simple_types@D@std@@@std@@@std@@QEAA@PEBDPEBU_Container_base12@1@@Z DD imagerel $LN4
	DD	imagerel $LN4+110
	DD	imagerel $unwind$??0?$_String_const_iterator@V?$_String_val@U?$_Simple_types@D@std@@@std@@@std@@QEAA@PEBDPEBU_Container_base12@1@@Z
pdata	ENDS
;	COMDAT pdata
pdata	SEGMENT
$pdata$?_Verify_offset@?$_String_const_iterator@V?$_String_val@U?$_Simple_types@D@std@@@std@@@std@@QEBAX_J@Z DD imagerel $LN15
	DD	imagerel $LN15+484
	DD	imagerel $unwind$?_Verify_offset@?$_String_const_iterator@V?$_String_val@U?$_Simple_types@D@std@@@std@@@std@@QEBAX_J@Z
pdata	ENDS
;	COMDAT pdata
pdata	SEGMENT
$pdata$??Y?$_String_const_iterator@V?$_String_val@U?$_Simple_types@D@std@@@std@@@std@@QEAAAEAV01@_J@Z DD imagerel $LN4
	DD	imagerel $LN4+103
	DD	imagerel $unwind$??Y?$_String_const_iterator@V?$_String_val@U?$_Simple_types@D@std@@@std@@@std@@QEAAAEAV01@_J@Z
pdata	ENDS
;	COMDAT pdata
